 XM7

 Timestamp is 5bf5be34 (Wed Nov 21 14:21:08 2018)

 Preferred load address is 00400000

 Start         Length     Name                   Class
 0001:00000000 000099b0H .text                   CODE
 0001:000099b0 0005f2bbH .text$mn                CODE
 0002:00000000 00000468H .idata$5                DATA
 0002:00000468 00000004H .00cfg                  DATA
 0002:0000046c 00000004H .CRT$XCA                DATA
 0002:00000470 00000004H .CRT$XCAA               DATA
 0002:00000474 00000004H .CRT$XCZ                DATA
 0002:00000478 00000004H .CRT$XIA                DATA
 0002:0000047c 00000004H .CRT$XIAA               DATA
 0002:00000480 00000004H .CRT$XIAC               DATA
 0002:00000484 00000010H .CRT$XIC                DATA
 0002:00000494 00000004H .CRT$XIZ                DATA
 0002:00000498 00000004H .CRT$XPA                DATA
 0002:0000049c 00000008H .CRT$XPX                DATA
 0002:000004a4 00000004H .CRT$XPXA               DATA
 0002:000004a8 00000004H .CRT$XPZ                DATA
 0002:000004ac 00000004H .CRT$XTA                DATA
 0002:000004b0 00000010H .CRT$XTZ                DATA
 0002:000004b4 00000000H .gfids$y                DATA
 0002:000004c0 000145b0H .rdata                  DATA
 0002:00014a70 000001c0H .rdata$r                DATA
 0002:00014c30 000002bcH .rdata$zzzdbg           DATA
 0002:00014eec 00000004H .rtc$IAA                DATA
 0002:00014ef0 00000004H .rtc$IZZ                DATA
 0002:00014ef4 00000004H .rtc$TAA                DATA
 0002:00014ef8 00000008H .rtc$TZZ                DATA
 0002:00014f00 0000052cH .xdata$x                DATA
 0002:0001542c 00000000H .edata                  DATA
 0002:0001542c 000000f0H .idata$2                DATA
 0002:0001551c 00000014H .idata$3                DATA
 0002:00015530 00000468H .idata$4                DATA
 0002:00015998 000012a6H .idata$6                DATA
 0003:00000000 00002c90H .data                   DATA
 0003:00002c90 000000b0H .data$r                 DATA
 0003:00002d40 000da044H .bss                    DATA
 0004:00000000 00000020H _RDATA                  DATA
 0005:00000000 00001990H .rsrc$01                DATA
 0005:00001990 00014278H .rsrc$02                DATA

  Address         Publics by Value              Rva+Base       Lib:Object

 0000:00000000       ___enclave_config          00000000     <absolute>
 0000:00000000       ___guard_fids_count        00000000     <absolute>
 0000:00000000       ___guard_longjmp_count     00000000     <absolute>
 0000:00000000       __except_list              00000000     <absolute>
 0000:00000000       ___guard_longjmp_table     00000000     <absolute>
 0000:00000000       ___hybrid_code_map         00000000     <absolute>
 0000:00000000       ___guard_iat_table         00000000     <absolute>
 0000:00000000       ___guard_iat_count         00000000     <absolute>
 0000:00000000       ___hybrid_auxiliary_iat    00000000     <absolute>
 0000:00000000       ___guard_fids_table        00000000     <absolute>
 0000:00000000       ___safe_se_handler_table   00000000     <absolute>
 0000:00000000       ___dynamic_value_reloc_table 00000000     <absolute>
 0000:00000000       ___hybrid_code_map_count   00000000     <absolute>
 0000:00000000       ___safe_se_handler_count   00000000     <absolute>
 0000:00000100       ___guard_flags             00000100     <absolute>
 0000:00000000       ___ImageBase               00400000     <linker-defined>
 0001:000051f8       _main_line                 004061f8     cpu_x86.obj
 0001:0000520c       _sub_line                  0040620c     cpu_x86.obj
 0001:00005220       _main_exec                 00406220     cpu_x86.obj
 0001:0000523c       _sub_exec                  0040623c     cpu_x86.obj
 0001:00005258       _main_reset                00406258     cpu_x86.obj
 0001:0000526c       _sub_reset                 0040626c     cpu_x86.obj
 0001:00005280       _memcpy400l                00406280     vm_sub.obj
 0001:000052b0       _CopySndBufMMX             004062b0     w32_sub.obj
 0001:000052f4       _CopySndBuf                004062f4     w32_sub.obj
 0001:00005344       _CheckMMX                  00406344     w32_sub.obj
 0001:0000534c       _CheckCMOV                 0040634c     w32_sub.obj
 0001:00005380       _Render640DD2              00406380     ddrend16.obj
 0001:000054e8       _Render640wDD2             004064e8     ddrend16.obj
 0001:00005680       _Render320DD               00406680     ddrend16.obj
 0001:000057cc       _Render320wDD              004067cc     ddrend16.obj
 0001:00005948       _Render256k555DD           00406948     ddrend16.obj
 0001:00005b10       _Render256k565DD           00406b10     ddrend16.obj
 0001:00005ce4       _Render640cDD              00406ce4     ddrend16.obj
 0001:00005f3c       _Render640cwDD             00406f3c     ddrend16.obj
 0001:000061d0       _Render640Tc24DD2          004071d0     ddrend24.obj
 0001:00006388       _Render640wTc24DD2         00407388     ddrend24.obj
 0001:00006570       _Render320Tc24DD           00407570     ddrend24.obj
 0001:000066cc       _Render320wTc24DD          004076cc     ddrend24.obj
 0001:00006850       _Render256kTc24DD          00407850     ddrend24.obj
 0001:00006a20       _Render640cTc24DD          00407a20     ddrend24.obj
 0001:00006d20       _Render640cwTc24DD         00407d20     ddrend24.obj
 0001:00007050       _Render640Tc32DD2          00408050     ddrend32.obj
 0001:000071a8       _Render640wTc32DD2         004081a8     ddrend32.obj
 0001:00007330       _Render320Tc32DD           00408330     ddrend32.obj
 0001:00007480       _Render320wTc32DD          00408480     ddrend32.obj
 0001:00007600       _Render256kTc32DD          00408600     ddrend32.obj
 0001:000077d0       _Render640cTc32DD          004087d0     ddrend32.obj
 0001:00007a08       _Render640cwTc32DD         00408a08     ddrend32.obj
 0001:00007c80       _Render640GDI2             00408c80     gdi_rend.obj
 0001:00007d90       _Render640wGDI2            00408d90     gdi_rend.obj
 0001:00007ecc       _Render320GDI              00408ecc     gdi_rend.obj
 0001:0000800c       _Render320GDI32bpp         0040900c     gdi_rend.obj
 0001:00008150       _Render320wGDI             00409150     gdi_rend.obj
 0001:000082c4       _Render320wGDI32bpp        004092c4     gdi_rend.obj
 0001:0000843c       _Render256kGDI             0040943c     gdi_rend.obj
 0001:000085fc       _Render640cGDI             004095fc     gdi_rend.obj
 0001:00008784       _Render640cwGDI            00409784     gdi_rend.obj
 0001:0000a7c0       @aluline_exec@4            0040b7c0 f   aluline.obj
 0001:0000a880       @aluline_extrb@4           0040b880 f   aluline.obj
 0001:0000a8e0       @aluline_init@0            0040b8e0 f   aluline.obj
 0001:0000aa90       @aluline_load@8            0040ba90 f   aluline.obj
 0001:0000ac70       @aluline_readb@8           0040bc70 f   aluline.obj
 0001:0000ad30       @aluline_reset@0           0040bd30 f   aluline.obj
 0001:0000add0       @aluline_save@4            0040bdd0 f   aluline.obj
 0001:0000af00       @aluline_writeb@8          0040bf00 f   aluline.obj
 0001:0000b230       @apalet_load@8             0040c230 f   apalet.obj
 0001:0000b290       @apalet_readb@8            0040c290 f   apalet.obj
 0001:0000b350       @apalet_reset@0            0040c350 f   apalet.obj
 0001:0000b390       @apalet_save@4             0040c390 f   apalet.obj
 0001:0000b3f0       @apalet_writeb@8           0040c3f0 f   apalet.obj
 0001:0000b4e0       @disline@12                0040c4e0 f   disasm.obj
 0001:0000d580       @display_cleanup@0         0040e580 f   display.obj
 0001:0000d5a0       @display_init@0            0040e5a0 f   display.obj
 0001:0000d5e0       @display_load@8            0040e5e0 f   display.obj
 0001:0000d8e0       @display_readb@8           0040e8e0 f   display.obj
 0001:0000daf0       @display_reset@0           0040eaf0 f   display.obj
 0001:0000dc70       @display_save@4            0040ec70 f   display.obj
 0001:0000deb0       @display_setpointer@4      0040eeb0 f   display.obj
 0001:0000e140       @display_writeb@8          0040f140 f   display.obj
 0001:0000e680       @fix_vram_address@0        0040f680 f   display.obj
 0001:0000e970       @window_clip@4             0040f970 f   display.obj
 0001:0000e9f0       @fdc_cleanup@0             0040f9f0 f   fdc.obj
 0001:0000eb50       @fdc_init@0                0040fb50 f   fdc.obj
 0001:0000ebe0       @fdc_load@8                0040fbe0 f   fdc.obj
 0001:00010320       @fdc_readb@8               00411320 f   fdc.obj
 0001:00010cb0       @fdc_reset@0               00411cb0 f   fdc.obj
 0001:00010d50       @fdc_save@4                00411d50 f   fdc.obj
 0001:00011080       @fdc_setdisk@8             00412080 f   fdc.obj
 0001:00011460       @fdc_setmedia@8            00412460 f   fdc.obj
 0001:000116e0       @fdc_setwritep@8           004126e0 f   fdc.obj
 0001:00011b90       @fdc_writeb@8              00412b90 f   fdc.obj
 0001:00012270       @jcard_cleanup@0           00413270 f   jcard.obj
 0001:000122d0       @jcard_init@0              004132d0 f   jcard.obj
 0001:00012470       @jcard_load@8              00413470 f   jcard.obj
 0001:00012540       @jcard_readb@4             00413540 f   jcard.obj
 0001:00012610       @jcard_reset@0             00413610 f   jcard.obj
 0001:00012640       @jcard_save@4              00413640 f   jcard.obj
 0001:000126c0       @jcard_writeb@8            004136c0 f   jcard.obj
 0001:00012710       @kanji_cleanup@0           00413710 f   kanji.obj
 0001:00012750       @kanji_init@0              00413750 f   kanji.obj
 0001:000128a0       @kanji_load@8              004138a0 f   kanji.obj
 0001:000128c0       @kanji_readb@8             004138c0 f   kanji.obj
 0001:000129c0       @kanji_reset@0             004139c0 f   kanji.obj
 0001:000129d0       @kanji_save@4              004139d0 f   kanji.obj
 0001:000129f0       @kanji_writeb@8            004139f0 f   kanji.obj
 0001:00012b00       @keyboard_break@4          00413b00 f   keyboard.obj
 0001:00012c20       @keyboard_init@0           00413c20 f   keyboard.obj
 0001:00012c30       @keyboard_load@8           00413c30 f   keyboard.obj
 0001:00012fa0       @keyboard_make@4           00413fa0 f   keyboard.obj
 0001:000131d0       @keyboard_paste@4          004141d0 f   keyboard.obj
 0001:00013210       @keyboard_readb@8          00414210 f   keyboard.obj
 0001:00013360       @keyboard_repeat@0         00414360 f   keyboard.obj
 0001:00013380       @keyboard_reset@0          00414380 f   keyboard.obj
 0001:00013490       @keyboard_save@4           00414490 f   keyboard.obj
 0001:000136f0       @keyboard_to_fm16b@4       004146f0 f   keyboard.obj
 0001:00013860       @keyboard_to_fm7@4         00414860 f   keyboard.obj
 0001:000139d0       @keyboard_to_scan@4        004149d0 f   keyboard.obj
 0001:00013c30       @keyboard_writeb@8         00414c30 f   keyboard.obj
 0001:00014210       @maincpu_exec@0            00415210 f   maincpu.obj
 0001:00014260       @maincpu_execline@0        00415260 f   maincpu.obj
 0001:000142b0       @maincpu_firq@0            004152b0 f   maincpu.obj
 0001:000142e0       @maincpu_init@0            004152e0 f   maincpu.obj
 0001:00014300       @maincpu_irq@0             00415300 f   maincpu.obj
 0001:00014390       @maincpu_load@8            00415390 f   maincpu.obj
 0001:00014460       @maincpu_reset@0           00415460 f   maincpu.obj
 0001:00014470       @maincpu_save@4            00415470 f   maincpu.obj
 0001:00014550       @mainetc_beep@0            00415550 f   mainetc.obj
 0001:000145b0       @mainetc_fdc@0             004155b0 f   mainetc.obj
 0001:000145d0       @mainetc_load@8            004155d0 f   mainetc.obj
 0001:000147d0       @mainetc_lp@0              004157d0 f   mainetc.obj
 0001:000147f0       @mainetc_readb@8           004157f0 f   mainetc.obj
 0001:00014930       @mainetc_reset@0           00415930 f   mainetc.obj
 0001:00014a30       @mainetc_save@4            00415a30 f   mainetc.obj
 0001:00014bf0       @mainetc_writeb@8          00415bf0 f   mainetc.obj
 0001:00014ce0       @mainmem_cleanup@0         00415ce0 f   mainmem.obj
 0001:00014d90       @mainmem_init@0            00415d90 f   mainmem.obj
 0001:000151f0       @mainmem_load@8            004161f0 f   mainmem.obj
 0001:00015300       @mainmem_readb@4           00416300 f   mainmem.obj
 0001:000155c0       @mainmem_readbnio@4        004165c0 f   mainmem.obj
 0001:00015700       @mainmem_readbnio_p@4      00416700 f   mainmem.obj
 0001:00015930       @mainmem_reset@0           00416930 f   mainmem.obj
 0001:00015a90       @mainmem_save@4            00416a90 f   mainmem.obj
 0001:00015b80       @mainmem_transfer_boot@0   00416b80 f   mainmem.obj
 0001:00015bd0       @mainmem_writeb@8          00416bd0 f   mainmem.obj
 0001:00015e50       @mainmem_writeb_p@8        00416e50 f   mainmem.obj
 0001:00015f30       @mos_init@0                00416f30 f   mouse.obj
 0001:00015f50       @mos_load@8                00416f50 f   mouse.obj
 0001:00016060       @mos_readdata@4            00417060 f   mouse.obj
 0001:00016110       @mos_reset@0               00417110 f   mouse.obj
 0001:00016150       @mos_save@4                00417150 f   mouse.obj
 0001:000161d0       @mos_strobe_signal@4       004171d0 f   mouse.obj
 0001:00016250       @mouse_readb@8             00417250 f   mouse.obj
 0001:00016330       @mouse_writeb@8            00417330 f   mouse.obj
 0001:00016380       @mmr_extbnio@8             00417380 f   mmr.obj
 0001:000164b0       @mmr_extrb@8               004174b0 f   mmr.obj
 0001:000165e0       @mmr_extwb@8               004175e0 f   mmr.obj
 0001:000166e0       @mmr_init@0                004176e0 f   mmr.obj
 0001:00016720       @mmr_load@8                00417720 f   mmr.obj
 0001:00016890       @mmr_readb@8               00417890 f   mmr.obj
 0001:00016ab0       @mmr_reset@0               00417ab0 f   mmr.obj
 0001:00016b20       @mmr_save@4                00417b20 f   mmr.obj
 0001:00016c30       @mmr_trans_mmr@4           00417c30 f   mmr.obj
 0001:00016c90       @mmr_trans_phys_to_logi@4  00417c90 f   mmr.obj
 0001:00016cf0       @mmr_trans_twr@8           00417cf0 f   mmr.obj
 0001:00016d30       @mmr_writeb@8              00417d30 f   mmr.obj
 0001:000170f0       @mmr_cleanup@0             004180f0 f   mmr.obj
 0001:000170f0       @aluline_cleanup@0         004180f0 f   aluline.obj
 0001:000170f0       @maincpu_cleanup@0         004180f0 f   maincpu.obj
 0001:000170f0       @rtc_cleanup@0             004180f0 f   rtc.obj
 0001:000170f0       @midi_cleanup@0            004180f0 f   midi.obj
 0001:000170f0       @mos_cleanup@0             004180f0 f   mouse.obj
 0001:000170f0       @subctrl_cleanup@0         004180f0 f   subctrl.obj
 0001:000170f0       @multipag_cleanup@0        004180f0 f   multipag.obj
 0001:000170f0       __initialize_denormal_control 004180f0 f   LIBCMT:denormal_control.obj
 0001:000170f0       @digitize_notify@0         004180f0 f   w32_draw.obj
 0001:000170f0       @keyboard_cleanup@0        004180f0 f   keyboard.obj
 0001:000170f0       @mainetc_cleanup@0         004180f0 f   mainetc.obj
 0001:000170f0       @ttlpalet_cleanup@0        004180f0 f   ttlpalet.obj
 0001:000170f0       @apalet_cleanup@0          004180f0 f   apalet.obj
 0001:000170f0       @subcpu_cleanup@0          004180f0 f   subcpu.obj
 0001:000170f0       @dmac_cleanup@0            004180f0 f   dmac.obj
 0001:000170f0       ??1PSG@@QAE@XZ             004180f0 f   psg.obj
 0001:000170f0       __initialize_invalid_parameter_handler 004180f0 f   LIBCMT:invalid_parameter_handler.obj
 0001:000170f0       @_guard_check_icall_nop@4  004180f0 f   LIBCMT:guard_support.obj
 0001:000170f0       @ptm_cleanup@0             004180f0 f   ptm.obj
 0001:000170f0       @schedule_cleanup@0        004180f0 f   schedule.obj
 0001:00017100       @apalet_init@0             00418100 f   apalet.obj
 0001:00017100       @dmac_init@0               00418100 f   dmac.obj
 0001:00017100       @ttlpalet_init@0           00418100 f   ttlpalet.obj
 0001:00017100       @mainetc_init@0            00418100 f   mainetc.obj
 0001:00017100       @multipag_init@0           00418100 f   multipag.obj
 0001:00017100       @ptm_init@0                00418100 f   ptm.obj
 0001:00017110       @multipag_load@8           00418110 f   multipag.obj
 0001:00017130       @multipag_readb@8          00418130 f   multipag.obj
 0001:00017150       @multipag_reset@0          00418150 f   multipag.obj
 0001:00017160       @multipag_save@4           00418160 f   multipag.obj
 0001:00017170       @multipag_writeb@8         00418170 f   multipag.obj
 0001:000171c0       @opn_cleanup@0             004181c0 f   opn.obj
 0001:00017220       @opn_init@0                00418220 f   opn.obj
 0001:00017260       @opn_load@8                00418260 f   opn.obj
 0001:00017560       @opn_readb@8               00418560 f   opn.obj
 0001:00017610       @opn_reset@0               00418610 f   opn.obj
 0001:00017950       @opn_save@4                00418950 f   opn.obj
 0001:00017da0       @opn_writeb@8              00418da0 f   opn.obj
 0001:00018170       @thg_cleanup@0             00419170 f   opn.obj
 0001:000181d0       @thg_init@0                004191d0 f   opn.obj
 0001:000181f0       @thg_load@8                004191f0 f   opn.obj
 0001:000182e0       @thg_readb@8               004192e0 f   opn.obj
 0001:000183e0       @thg_reset@0               004193e0 f   opn.obj
 0001:00018570       @thg_save@4                00419570 f   opn.obj
 0001:00018650       @thg_writeb@8              00419650 f   opn.obj
 0001:000187f0       @whg_cleanup@0             004197f0 f   opn.obj
 0001:00018850       @whg_init@0                00419850 f   opn.obj
 0001:00018870       @whg_load@8                00419870 f   opn.obj
 0001:00018960       @whg_readb@8               00419960 f   opn.obj
 0001:00018a60       @whg_reset@0               00419a60 f   opn.obj
 0001:00018bf0       @whg_save@4                00419bf0 f   opn.obj
 0001:00018cd0       @whg_writeb@8              00419cd0 f   opn.obj
 0001:00019050       @ptm_load@8                0041a050 f   ptm.obj
 0001:00019220       @ptm_readb@8               0041a220 f   ptm.obj
 0001:00019330       @ptm_reset@0               0041a330 f   ptm.obj
 0001:00019410       @ptm_save@4                0041a410 f   ptm.obj
 0001:00019530       @ptm_writeb@8              0041a530 f   ptm.obj
 0001:00019660       @rs232c_calc_timing@0      0041a660 f   rs232c.obj
 0001:00019720       @rs232c_load@8             0041a720 f   rs232c.obj
 0001:00019850       @rs232c_readb@8            0041a850 f   rs232c.obj
 0001:00019930       @rs232c_reset@0            0041a930 f   rs232c.obj
 0001:000199c0       @rs232c_rxrdy@4            0041a9c0 f   rs232c.obj
 0001:00019a00       @rs232c_rxrdy_event@0      0041aa00 f   rs232c.obj
 0001:00019a30       @rs232c_rxrdy_request@0    0041aa30 f   rs232c.obj
 0001:00019a50       @rs232c_save@4             0041aa50 f   rs232c.obj
 0001:00019b10       @rs232c_syndet@4           0041ab10 f   rs232c.obj
 0001:00019b50       @rs232c_txempty_event@0    0041ab50 f   rs232c.obj
 0001:00019b90       @rs232c_txempty_request@0  0041ab90 f   rs232c.obj
 0001:00019be0       @rs232c_txrdy@4            0041abe0 f   rs232c.obj
 0001:00019c30       @rs232c_writeb@8           0041ac30 f   rs232c.obj
 0001:00019f50       @rtc_get@4                 0041af50 f   rtc.obj
 0001:0001a050       @rtc_init@0                0041b050 f   rtc.obj
 0001:0001a080       @rtc_load@8                0041b080 f   rtc.obj
 0001:0001a0f0       @rtc_reset@0               0041b0f0 f   rtc.obj
 0001:0001a130       @rtc_save@4                0041b130 f   rtc.obj
 0001:0001a170       @rtc_set@4                 0041b170 f   rtc.obj
 0001:0001a270       @rtc_time_adjust@0         0041b270 f   rtc.obj
 0001:0001a3b0       @schedule_delevent@4       0041b3b0 f   schedule.obj
 0001:0001a3d0       @schedule_exec@4           0041b3d0 f   schedule.obj
 0001:0001aa50       @schedule_fullspeed@0      0041ba50 f   schedule.obj
 0001:0001ab30       @schedule_get_cycle@0      0041bb30 f   schedule.obj
 0001:0001abb0       @schedule_handle@8         0041bbb0 f   schedule.obj
 0001:0001abc0       @schedule_init@0           0041bbc0 f   schedule.obj
 0001:0001ac70       @schedule_load@12          0041bc70 f   schedule.obj
 0001:0001af10       @schedule_main_fullspeed@0 0041bf10 f   schedule.obj
 0001:0001af70       @schedule_reset@0          0041bf70 f   schedule.obj
 0001:0001afe0       @schedule_save@4           0041bfe0 f   schedule.obj
 0001:0001b150       @schedule_setbreak2@12     0041c150 f   schedule.obj
 0001:0001b190       @schedule_setbreak@8       0041c190 f   schedule.obj
 0001:0001b2c0       @schedule_setevent@12      0041c2c0 f   schedule.obj
 0001:0001b340       @schedule_trace@0          0041c340 f   schedule.obj
 0001:0001b400       @subcpu_exec@0             0041c400 f   subcpu.obj
 0001:0001b410       @subcpu_execline@0         0041c410 f   subcpu.obj
 0001:0001b420       @subcpu_firq@0             0041c420 f   subcpu.obj
 0001:0001b450       @subcpu_init@0             0041c450 f   subcpu.obj
 0001:0001b470       @subcpu_irq@0              0041c470 f   subcpu.obj
 0001:0001b490       @subcpu_load@8             0041c490 f   subcpu.obj
 0001:0001b560       @subcpu_nmi@0              0041c560 f   subcpu.obj
 0001:0001b580       @subcpu_reset@0            0041c580 f   subcpu.obj
 0001:0001b590       @subcpu_save@4             0041c590 f   subcpu.obj
 0001:0001b670       @subctrl_halt_ack@0        0041c670 f   subctrl.obj
 0001:0001b6a0       @subctrl_init@0            0041c6a0 f   subctrl.obj
 0001:0001b6c0       @subctrl_load@8            0041c6c0 f   subctrl.obj
 0001:0001b8e0       @subctrl_readb@8           0041c8e0 f   subctrl.obj
 0001:0001ba20       @subctrl_reset@0           0041ca20 f   subctrl.obj
 0001:0001bad0       @subctrl_save@4            0041cad0 f   subctrl.obj
 0001:0001bc00       @subctrl_writeb@8          0041cc00 f   subctrl.obj
 0001:0001bde0       @submem_cleanup@0          0041cde0 f   submem.obj
 0001:0001bea0       @submem_init@0             0041cea0 f   submem.obj
 0001:0001c080       @submem_load@8             0041d080 f   submem.obj
 0001:0001c2f0       @submem_readb@4            0041d2f0 f   submem.obj
 0001:0001c580       @submem_readbnio@4         0041d580 f   submem.obj
 0001:0001c790       @submem_reset@0            0041d790 f   submem.obj
 0001:0001c7e0       @submem_save@4             0041d7e0 f   submem.obj
 0001:0001ca60       @submem_writeb@8           0041da60 f   submem.obj
 0001:0001cc80       @file_bool_read@8          0041dc80 f   system.obj
 0001:0001ccc0       @file_bool_write@8         0041dcc0 f   system.obj
 0001:0001cce0       @file_byte_read@8          0041dce0 f   system.obj
 0001:0001ccf0       @file_byte_write@8         0041dcf0 f   system.obj
 0001:0001cd00       @file_dword_read@8         0041dd00 f   system.obj
 0001:0001cd90       @file_dword_write@8        0041dd90 f   system.obj
 0001:0001ce10       @file_word_read@8          0041de10 f   system.obj
 0001:0001ce60       @file_word_write@8         0041de60 f   system.obj
 0001:0001cea0       @system_cleanup@0          0041dea0 f   system.obj
 0001:0001cf30       @system_hotreset@0         0041df30 f   system.obj
 0001:0001cf70       @system_init@0             0041df70 f   system.obj
 0001:0001d0d0       @system_load@4             0041e0d0 f   system.obj
 0001:0001d4a0       @system_reset@0            0041e4a0 f   system.obj
 0001:0001d550       @system_save@4             0041e550 f   system.obj
 0001:0001d7b0       @system_tabreset@0         0041e7b0 f   system.obj
 0001:0001d7d0       @lp_print@0                0041e7d0 f   tapelp.obj
 0001:0001d7f0       @lp_setfile@4              0041e7f0 f   tapelp.obj
 0001:0001d8c0       @tape_ff@0                 0041e8c0 f   tapelp.obj
 0001:0001dd90       @tape_rew@0                0041ed90 f   tapelp.obj
 0001:0001de40       @tape_rewtop@0             0041ee40 f   tapelp.obj
 0001:0001de90       @tape_setfile@4            0041ee90 f   tapelp.obj
 0001:0001e080       @tape_setrec@4             0041f080 f   tapelp.obj
 0001:0001e0f0       @tapelp_cleanup@0          0041f0f0 f   tapelp.obj
 0001:0001e1b0       @tapelp_init@0             0041f1b0 f   tapelp.obj
 0001:0001e250       @tapelp_load@8             0041f250 f   tapelp.obj
 0001:0001e530       @tapelp_readb@8            0041f530 f   tapelp.obj
 0001:0001e600       @tapelp_reset@0            0041f600 f   tapelp.obj
 0001:0001e6b0       @tapelp_save@4             0041f6b0 f   tapelp.obj
 0001:0001e8a0       @tapelp_writeb@8           0041f8a0 f   tapelp.obj
 0001:000205c0       @capture_to_bmp2@12        004215c0 f   tools.obj
 0001:00020720       @capture_to_bmp@16         00421720 f   tools.obj
 0001:00020960       @conv_2d_to_d77@12         00421960 f   tools.obj
 0001:00020bc0       @conv_vfd_to_d77@12        00421bc0 f   tools.obj
 0001:00021070       @conv_vtp_to_t77@8         00422070 f   tools.obj
 0001:00021260       @make_new_d77@12           00422260 f   tools.obj
 0001:000214b0       @make_new_t77@4            004224b0 f   tools.obj
 0001:000214f0       @make_new_userdisk@12      004224f0 f   tools.obj
 0001:000217f0       @mix_color@12              004227f0 f   tools.obj
 0001:00021990       @ttlpalet_load@8           00422990 f   ttlpalet.obj
 0001:000219b0       @ttlpalet_readb@8          004229b0 f   ttlpalet.obj
 0001:000219f0       @ttlpalet_reset@0          004229f0 f   ttlpalet.obj
 0001:00021a10       @ttlpalet_save@4           00422a10 f   ttlpalet.obj
 0001:00021a20       @ttlpalet_writeb@8         00422a20 f   ttlpalet.obj
 0001:00021a60       @dmac_exec@0               00422a60 f   dmac.obj
 0001:00021bb0       @dmac_load@8               00422bb0 f   dmac.obj
 0001:00021d20       @dmac_readb@8              00422d20 f   dmac.obj
 0001:00021e80       @dmac_reset@0              00422e80 f   dmac.obj
 0001:00021ef0       @dmac_save@4               00422ef0 f   dmac.obj
 0001:00021fa0       @dmac_start@0              00422fa0 f   dmac.obj
 0001:00022020       @dmac_writeb@8             00423020 f   dmac.obj
 0001:000221b0       @midi_init@0               004231b0 f   midi.obj
 0001:000221c0       @midi_load@8               004231c0 f   midi.obj
 0001:00022230       @midi_readb@8              00423230 f   midi.obj
 0001:00022270       @midi_reset@0              00423270 f   midi.obj
 0001:00022290       @midi_save@4               00423290 f   midi.obj
 0001:000222d0       @midi_writeb@8             004232d0 f   midi.obj
 0001:00022360       @ChangeStatusBorder@4      00423360 f   w32_bar.obj
 0001:000223d0       @CleanThemeDLL@0           004233d0 f   w32_bar.obj
 0001:00022400       @CreateStatus@4            00423400 f   w32_bar.obj
 0001:00022b70       @DrawStatus@0              00423b70 f   w32_bar.obj
 0001:00022d20       @EndStatusMessage@0        00423d20 f   w32_bar.obj
 0001:00022dd0       @InitThemeDLL@0            00423dd0 f   w32_bar.obj
 0001:00022e20       @OnExitMenuLoop@0          00423e20 f   w32_bar.obj
 0001:00022e70       @OnMenuSelect@4            00423e70 f   w32_bar.obj
 0001:00022f20       @OwnerDrawStatus@4         00423f20 f   w32_bar.obj
 0001:00023230       @PaintStatus@0             00424230 f   w32_bar.obj
 0001:00023290       @ResizeStatus@8            00424290 f   w32_bar.obj
 0001:00023340       @SetStatusMessage@4        00424340 f   w32_bar.obj
 0001:000233e0       @SizeStatus@4              004243e0 f   w32_bar.obj
 0001:000234f0       ___local_stdio_printf_options 004244f0 f i w32_bar.obj
 0001:00023500       __snprintf                 00424500 f i w32_bar.obj
 0001:00023540       @ApplyCfg@0                00424540 f   w32_cfg.obj
 0001:00024010       @GetCfg@0                  00425010 f   w32_cfg.obj
 0001:00024d90       @LoadCfg@0                 00425d90 f   w32_cfg.obj
 0001:00025cc0       @LoadCfg_DoubleSize@0      00426cc0 f   w32_cfg.obj
 0001:00025cf0       @OnConfig@4                00426cf0 f   w32_cfg.obj
 0001:00026710       @SaveCfg@0                 00427710 f   w32_cfg.obj
 0001:00027c60       @SetMachineVersion@0       00428c60 f   w32_cfg.obj
 0001:00029f40       @CheckMenuSub@12           0042af40 f   w32_cmd.obj
 0001:00029f70       @EnableMenuSub@12          0042af70 f   w32_cmd.obj
 0001:00029fa0       @FileSelectSub@20          0042afa0 f   w32_cmd.obj
 0001:0002a1f0       @OnCmdLine@4               0042b1f0 f   w32_cmd.obj
 0001:0002a580       @OnCommand@8               0042b580 f   w32_cmd.obj
 0001:0002b760       @OnDropFiles@4             0042c760 f   w32_cmd.obj
 0001:0002b960       @OnDropSub@4               0042c960 f   w32_cmd.obj
 0001:0002bc00       @OnMenuPopup@12            0042cc00 f   w32_cmd.obj
 0001:0002be80       @OnRefresh@4               0042ce80 f   w32_cmd.obj
 0001:0002da20       @CleanCommPort@0           0042ea20 f   w32_comm.obj
 0001:0002dac0       @InitCommPort@0            0042eac0 f   w32_comm.obj
 0001:0002dd80       @rs232c_readstatus@0       0042ed80 f   w32_comm.obj
 0001:0002dd90       @rs232c_receivedata@0      0042ed90 f   w32_comm.obj
 0001:0002de30       @rs232c_reset_notify@0     0042ee30 f   w32_comm.obj
 0001:0002def0       @rs232c_senddata@4         0042eef0 f   w32_comm.obj
 0001:0002dfe0       @rs232c_setbaudrate@4      0042efe0 f   w32_comm.obj
 0001:0002e080       @rs232c_writecommand@4     0042f080 f   w32_comm.obj
 0001:0002e120       @rs232c_writemodecmd@4     0042f120 f   w32_comm.obj
 0001:0002e520       @CleanDraw@0               0042f520 f   w32_draw.obj
 0001:0002e540       @EnterMenu@4               0042f540 f   w32_draw.obj
 0001:0002e560       @ExitMenu@0                0042f560 f   w32_draw.obj
 0001:0002e580       @InitDraw@0                0042f580 f   w32_draw.obj
 0001:0002e600       @ModeDraw@8                0042f600 f   w32_draw.obj
 0001:0002e730       @OnDraw@8                  0042f730 f   w32_draw.obj
 0001:0002e770       @OnPaint@4                 0042f770 f   w32_draw.obj
 0001:0002e810       @SelectDraw@4              0042f810 f   w32_draw.obj
 0001:0002e820       @SetDirtyFlag@12           0042f820 f   w32_draw.obj
 0001:0002e850       @apalet_notify@0           0042f850 f   w32_draw.obj
 0001:0002e8a0       @display_notify@0          0042f8a0 f   w32_draw.obj
 0001:0002e950       @hblank_notify@0           0042f950 f   w32_draw.obj
 0001:0002e990       @refpalet_notify@0         0042f990 f   w32_draw.obj
 0001:0002e9a0       @ttlpalet_notify@0         0042f9a0 f   w32_draw.obj
 0001:0002e9f0       @vblankperiod_notify@0     0042f9f0 f   w32_draw.obj
 0001:0002eaa0       @vram_notify@8             0042faa0 f   w32_draw.obj
 0001:0002eb70       @window_notify@0           0042fb70 f   w32_draw.obj
 0001:0002eb90       @file_close@4              0042fb90 f   w32_file.obj
 0001:0002eba0       @file_getsize@4            0042fba0 f   w32_file.obj
 0001:0002ebe0       @file_load@12              0042fbe0 f   w32_file.obj
 0001:0002ece0       @file_open@8               0042fce0 f   w32_file.obj
 0001:0002ed40       @file_read@12              0042fd40 f   w32_file.obj
 0001:0002ed60       @file_save@12              0042fd60 f   w32_file.obj
 0001:0002ee60       @file_seek@8               0042fe60 f   w32_file.obj
 0001:0002ee80       @file_write@12             0042fe80 f   w32_file.obj
 0001:0002ef10       @AnalogGDI@0               0042ff10 f   w32_gdi.obj
 0001:0002ef60       @CleanGDI@0                0042ff60 f   w32_gdi.obj
 0001:0002ef90       @DigitalGDI@0              0042ff90 f   w32_gdi.obj
 0001:0002f910       @DrawGDI@8                 00430910 f   w32_gdi.obj
 0001:0002f970       @DrawPostRenderGDI@8       00430970 f   w32_gdi.obj
 0001:0002fb90       @DrawRasterGDI@4           00430b90 f   w32_gdi.obj
 0001:0002fd60       @EnterMenuGDI@4            00430d60 f   w32_gdi.obj
 0001:0002fd90       @ExitMenuGDI@0             00430d90 f   w32_gdi.obj
 0001:0002fdc0       @InitGDI@0                 00430dc0 f   w32_gdi.obj
 0001:00030090       @ReDrawGDI@0               00431090 f   w32_gdi.obj
 0001:00030410       @SelectGDI@4               00431410 f   w32_gdi.obj
 0001:00030590       @VramGDI@4                 00431590 f   w32_gdi.obj
 0001:000306d0       @WindowGDI@0               004316d0 f   w32_gdi.obj
 0001:000309a0       _SelectCancelGDI           004319a0 f   w32_gdi.obj
 0001:000309e0       @EnableIME@8               004319e0 f   w32_main.obj
 0001:00030c90       @LockVM@0                  00431c90 f   w32_main.obj
 0001:00030f70       @OnSize@12                 00431f70 f   w32_main.obj
 0001:000310d0       @UnlockVM@0                004320d0 f   w32_main.obj
 0001:000311b0       _WinMain@16                004321b0 f   w32_main.obj
 0001:00032080       @CleanMIDI@0               00433080 f   w32_midi.obj
 0001:000320c0       @MidiSendData@4            004330c0 f   w32_midi.obj
 0001:00032260       @midi_notify@4             00433260 f   w32_midi.obj
 0001:000325a0       @midi_reset_notify@0       004335a0 f   w32_midi.obj
 0001:00032710       @CleanSch@0                00433710 f   w32_sch.obj
 0001:00032880       @DrawSubWindow@0           00433880 f   w32_sch.obj
 0001:00032920       @InitSch@0                 00433920 f   w32_sch.obj
 0001:000329c0       @ResetSch@0                004339c0 f   w32_sch.obj
 0001:000329e0       @SelectSch@0               004339e0 f   w32_sch.obj
 0001:00032a70       @vsync_notify@0            00433a70 f   w32_sch.obj
 0001:00032ff0       @AddrDisAsm@8              00433ff0 f   w32_sub1.obj
 0001:00033100       @AddrMemory@8              00434100 f   w32_sub1.obj
 0001:00034100       @CreateBreakPoint@8        00435100 f   w32_sub1.obj
 0001:00034380       @CreateCPURegister@12      00435380 f   w32_sub1.obj
 0001:00034650       @CreateDisAsm@12           00435650 f   w32_sub1.obj
 0001:000349e0       @CreateMemory@12           004359e0 f   w32_sub1.obj
 0001:00034e10       @CreateScheduler@8         00435e10 f   w32_sub1.obj
 0001:00035080       @DestroySubWindow@12       00436080 f   w32_sub1.obj
 0001:00035910       @DrawWindowText2@16        00436910 f   w32_sub1.obj
 0001:00035a50       @DrawWindowText@16         00436a50 f   w32_sub1.obj
 0001:00035b00       @InitSubWndWork@0          00436b00 f   w32_sub1.obj
 0001:00036a20       @PositioningSubWindow@12   00437a20 f   w32_sub1.obj
 0001:00036aa0       @RefreshBreakPoint@0       00437aa0 f   w32_sub1.obj
 0001:00036ad0       @RefreshCPURegister@0      00437ad0 f   w32_sub1.obj
 0001:00036b30       @RefreshDisAsm@0           00437b30 f   w32_sub1.obj
 0001:00036b80       @RefreshMemory@0           00437b80 f   w32_sub1.obj
 0001:00036cf0       @RefreshScheduler@0        00437cf0 f   w32_sub1.obj
 0001:00039fa0       @CreateALULine@8           0043afa0 f   w32_sub2.obj
 0001:0003a1b0       @CreateFDC@8               0043b1b0 f   w32_sub2.obj
 0001:0003a3b0       @CreateOPNDisp@8           0043b3b0 f   w32_sub2.obj
 0001:0003a5c0       @CreateOPNReg@8            0043b5c0 f   w32_sub2.obj
 0001:0003a810       @CreateSubCtrl@8           0043b810 f   w32_sub2.obj
 0001:0003aec0       @InitOPNDisp@4             0043bec0 f   w32_sub2.obj
 0001:0003bf40       @ReSizeOPNDisp@0           0043cf40 f   w32_sub2.obj
 0001:0003c100       @ReSizeOPNReg@0            0043d100 f   w32_sub2.obj
 0001:0003c2a0       @RefreshALULine@0          0043d2a0 f   w32_sub2.obj
 0001:0003c2d0       @RefreshFDC@0              0043d2d0 f   w32_sub2.obj
 0001:0003c300       @RefreshOPNDisp@0          0043d300 f   w32_sub2.obj
 0001:0003c330       @RefreshOPNReg@0           0043d330 f   w32_sub2.obj
 0001:0003c360       @RefreshSubCtrl@0          0043d360 f   w32_sub2.obj
 0001:000400d0       @CreateDMAC@8              004410d0 f   w32_sub3.obj
 0001:000402e0       @CreateKeyboard@8          004412e0 f   w32_sub3.obj
 0001:000404f0       @CreateMMR@8               004414f0 f   w32_sub3.obj
 0001:000406f0       @CreatePaletteReg@8        004416f0 f   w32_sub3.obj
 0001:00040b70       @RefreshDMAC@0             00441b70 f   w32_sub3.obj
 0001:00040ba0       @RefreshKeyboard@0         00441ba0 f   w32_sub3.obj
 0001:00040bd0       @RefreshMMR@0              00441bd0 f   w32_sub3.obj
 0001:00040c00       @RefreshPaletteReg@0       00441c00 f   w32_sub3.obj
 0001:00042c20       @OnAbout@4                 00443c20 f   w32_ver.obj
 0001:00042f80       ??0Channel4@FM@@QAE@XZ     00443f80 f   fmgen.obj
 0001:00043110       ??0Chip@FM@@QAE@XZ         00444110 f   fmgen.obj
 0001:00043140       ?Calc@Channel4@FM@@QAIHXZ  00444140 f   fmgen.obj
 0001:00043340       ?Calc@Operator@FM@@QAEHH@Z 00444340 f i fmgen.obj
 0001:000433b0       ?CalcFB@Operator@FM@@QAEHI@Z 004443b0 f i fmgen.obj
 0001:00043440       ?EGCalc@Operator@FM@@AAIXXZ 00444440 f   fmgen.obj
 0001:00043590       ?EGUpdate@Operator@FM@@AAEXXZ 00444590 f i fmgen.obj
 0001:00043600       ?KeyControl@Channel4@FM@@QAIXI@Z 00444600 f   fmgen.obj
 0001:000436c0       ?KeyOn@Operator@FM@@QAEXXZ 004446c0 f i fmgen.obj
 0001:000437f0       ?MakeTable@Operator@FM@@CAXXZ 004447f0 f   fmgen.obj
 0001:00043b70       ?Prepare@Channel4@FM@@QAIHXZ 00444b70 f   fmgen.obj
 0001:00043c20       ?Prepare@Operator@FM@@QAIXXZ 00444c20 f   fmgen.obj
 0001:00043d60       ?Reset@Channel4@FM@@QAIXXZ 00444d60 f   fmgen.obj
 0001:00043d90       ?Reset@Operator@FM@@QAIXXZ 00444d90 f   fmgen.obj
 0001:00043e00       ?SetAlgorithm@Channel4@FM@@QAIXI@Z 00444e00 f   fmgen.obj
 0001:00043e80       ?SetFNum@Channel4@FM@@QAIXI@Z 00444e80 f   fmgen.obj
 0001:00043f10       ?SetFNum@Operator@FM@@QAIXI@Z 00444f10 f   fmgen.obj
 0001:00043f40       ?SetRatio@Chip@FM@@QAEXI@Z 00444f40 f   fmgen.obj
 0001:00044010       ?ShiftPhase@Operator@FM@@AAIXW4EGPhase@12@@Z 00445010 f   fmgen.obj
 0001:00044290       ??0OPN@FM@@QAE@XZ          00445290 f   opna.obj
 0001:00044380       ??_GOPN@FM@@UAEPAXI@Z      00445380 f i opna.obj
 0001:00044380       ??_EOPN@FM@@UAEPAXI@Z      00445380 f i opna.obj
 0001:000443b0       ?Init@OPN@FM@@QAE_NII_NPBD@Z 004453b0 f   opna.obj
 0001:000444e0       ?Intr@OPN@FM@@EAEX_N@Z     004454e0 f i opna.obj
 0001:000444f0       ?Mix2@OPN@FM@@QAEXPAHHHH@Z 004454f0 f   opna.obj
 0001:00044940       ?Mix@OPN@FM@@QAEXPAHH@Z    00445940 f   opna.obj
 0001:00044d60       ?Reset@OPN@FM@@UAEXXZ      00445d60 f   opna.obj
 0001:00044de0       ?Reset@OPNBase@FM@@UAEXXZ  00445de0 f   opna.obj
 0001:00044e00       ?SetChannelMask@OPN@FM@@QAEXI@Z 00445e00 f   opna.obj
 0001:00044ef0       ?SetPrescaler@OPNBase@FM@@IAEXI@Z 00445ef0 f   opna.obj
 0001:00045090       ?SetReg@OPN@FM@@QAEXII@Z   00446090 f   opna.obj
 0001:00045450       ?SetVolumeFM@OPNBase@FM@@QAEXH@Z 00446450 f   opna.obj
 0001:000454b0       ??0PSG@@QAE@XZ             004464b0 f   psg.obj
 0001:000456b0       ?Mix2@PSG@@QAEXPAHHHH@Z    004466b0 f   psg.obj
 0001:00046400       ?Mix@PSG@@QAEXPAHH@Z       00447400 f   psg.obj
 0001:000470f0       ?Reset@PSG@@QAEXXZ         004480f0 f   psg.obj
 0001:000472b0       ?SetChannelMask@PSG@@QAEXH@Z 004482b0 f   psg.obj
 0001:00047340       ?SetClock@PSG@@QAEXHH@Z    00448340 f   psg.obj
 0001:00047480       ?SetReg@PSG@@QAEXIE@Z      00448480 f   psg.obj
 0001:00047670       ?SetSSGEnvMode@PSG@@QAEX_N@Z 00448670 f   psg.obj
 0001:00047680       ?SetVolume@PSG@@QAEXH@Z    00448680 f   psg.obj
 0001:0004a0c0       @AnalogDD@0                0044b0c0 f   w32_dd.obj
 0001:0004a0c0       @DigitalDD@0               0044b0c0 f   w32_dd.obj
 0001:0004a110       @CleanDD@0                 0044b110 f   w32_dd.obj
 0001:0004a2f0       @DrawDD@0                  0044b2f0 f   w32_dd.obj
 0001:0004a340       @DrawPostRenderDD@0        0044b340 f   w32_dd.obj
 0001:0004a610       @DrawRasterDD@4            0044b610 f   w32_dd.obj
 0001:0004a900       @EnterMenuDD@4             0044b900 f   w32_dd.obj
 0001:0004a980       @ExitMenuDD@0              0044b980 f   w32_dd.obj
 0001:0004a9f0       @InitDD@0                  0044b9f0 f   w32_dd.obj
 0001:0004abb0       @ReDrawDD@0                0044bbb0 f   w32_dd.obj
 0001:0004ac10       @SelectDD@0                0044bc10 f   w32_dd.obj
 0001:0004b3d0       @VramDD@4                  0044c3d0 f   w32_dd.obj
 0001:0004b510       @WindowDD@0                0044c510 f   w32_dd.obj
 0001:0004bd30       @CleanKbd@0                0044cd30 f   w32_kbd.obj
 0001:0004bdd0       @GetDefMapKbd@8            0044cdd0 f   w32_kbd.obj
 0001:0004bf20       @GetKbd@4                  0044cf20 f   w32_kbd.obj
 0001:0004c000       @InitKbd@0                 0044d000 f   w32_kbd.obj
 0001:0004c300       @PasteClipboardKbd@4       0044d300 f   w32_kbd.obj
 0001:0004c390       @PasteKbd@4                0044d390 f   w32_kbd.obj
 0001:0004c400       @PollJoy@0                 0044d400 f   w32_kbd.obj
 0001:0004c4f0       @PollKbd@0                 0044d4f0 f   w32_kbd.obj
 0001:0004cd20       @PollMos@0                 0044dd20 f   w32_kbd.obj
 0001:0004cdf0       @SelectKbd@4               0044ddf0 f   w32_kbd.obj
 0001:0004cf00       @SetMapKbd@4               0044df00 f   w32_kbd.obj
 0001:0004cf40       @SetMenuExitTimer@0        0044df40 f   w32_kbd.obj
 0001:0004cf60       @SetMouseCapture@4         0044df60 f   w32_kbd.obj
 0001:0004d0e0       @joy_request@4             0044e0e0 f   w32_kbd.obj
 0001:0004d0f0       @mosbtn_request@0          0044e0f0 f   w32_kbd.obj
 0001:0004d100       @mospos_request@8          0044e100 f   w32_kbd.obj
 0001:0004d170       ?Delete@LprRenderer@@AAEHPAUHDC__@@@Z 0044e170 f i w32_lpr.obj
 0001:0004d210       ?Esc_3@LprRenderer@@AAEHPAUHDC__@@@Z 0044e210 f i w32_lpr.obj
 0001:0004d280       ?Esc_A@LprRenderer@@AAEHPAUHDC__@@@Z 0044e280 f i w32_lpr.obj
 0001:0004d2f0       ?Esc_K@LprRenderer@@AAEHPAUHDC__@@@Z 0044e2f0 f i w32_lpr.obj
 0001:0004d360       ?Esc_L@LprRenderer@@AAEHPAUHDC__@@@Z 0044e360 f i w32_lpr.obj
 0001:0004d3d0       ?GetAt@LprPrintBuffer@@QAE?AUPrtBuffChar@@H@Z 0044e3d0 f i w32_lpr.obj
 0001:0004d400       ?Kanji_OFF@LprRenderer@@AAEHPAUHDC__@@@Z 0044e400 f i w32_lpr.obj
 0001:0004d440       ?Kanji_ON@LprRenderer@@AAEHPAUHDC__@@@Z 0044e440 f i w32_lpr.obj
 0001:0004d480       ?PrintChar@LprRenderer@@AAEHPAUHDC__@@PAH@Z 0044e480 f i w32_lpr.obj
 0001:0004d650       ?PrintLine@LprRenderer@@AAEHPAUHDC__@@@Z 0044e650 f i w32_lpr.obj
 0001:0004d6d0       ?delete_f@LprFonts@@QAEHPAUHDC__@@@Z 0044e6d0 f i w32_lpr.obj
 0001:0004d700       ?draw_bit_image@LprRenderer@@AAEHPAUHDC__@@HH@Z 0044e700 f i w32_lpr.obj
 0001:0004d830       ?draw_one_char_image@LprRenderer@@AAEHPAUHDC__@@H@Z 0044e830 f i w32_lpr.obj
 0001:0004d920       ?draw_printable_char@LprRenderer@@AAEHPAUHDC__@@E@Z 0044e920 f i w32_lpr.obj
 0001:0004d980       ?print@LprRenderer@@QAEHAAUtagPDA@@@Z 0044e980 f i w32_lpr.obj
 0001:0004dc90       ?render@LprRenderer@@AAEHPAUHDC__@@@Z 0044ec90 f i w32_lpr.obj
 0001:0004df70       ?reset_params@LprRenderer@@AAEHPAUHDC__@@@Z 0044ef70 f i w32_lpr.obj
 0001:0004e010       @lp_closefile@0            0044f010 f   w32_lpr.obj
 0001:0004e030       @lp_openfile@4             0044f030 f   w32_lpr.obj
 0001:0004e140       @lp_printfile@0            0044f140 f   w32_lpr.obj
 0001:0004e250       @lp_removefile@0           0044f250 f   w32_lpr.obj
 0001:0004e290       @lp_writefile@8            0044f290 f   w32_lpr.obj
 0001:0004ea90       @ApplySnd@0                0044fa90 f   w32_snd.obj
 0001:0004ed90       @CleanFDDSnd@0             0044fd90 f   w32_snd.obj
 0001:0004edc0       @CleanSnd@0                0044fdc0 f   w32_snd.obj
 0001:0004ef60       @CloseCaptureSnd@0         0044ff60 f   w32_snd.obj
 0001:0004f000       @GetLevelSnd@4             00450000 f   w32_snd.obj
 0001:0004f230       @GetMute@4                 00450230 f   w32_snd.obj
 0001:0004f260       @InitFDDSnd@0              00450260 f   w32_snd.obj
 0001:0004f540       @InitSnd@0                 00450540 f   w32_snd.obj
 0001:0004f7c0       @OpenCaptureSnd@4          004507c0 f   w32_snd.obj
 0001:0004f910       @PlaySnd@0                 00450910 f   w32_snd.obj
 0001:0004fa00       @ProcessSnd@4              00450a00 f   w32_snd.obj
 0001:0004fd20       @ROMEO_Mute@4              00450d20 f   w32_snd.obj
 0001:0004fe10       @SelectSnd@4               00450e10 f   w32_snd.obj
 0001:00050500       @SetMute@8                 00451500 f   w32_snd.obj
 0001:00050560       @SetSoundVolume2@24        00451560 f   w32_snd.obj
 0001:00050690       @SetSoundVolume@0          00451690 f   w32_snd.obj
 0001:000507c0       @StopSnd@0                 004517c0 f   w32_snd.obj
 0001:000507e0       @beep_notify@0             004517e0 f   w32_snd.obj
 0001:00050830       @dac_notify@4              00451830 f   w32_snd.obj
 0001:00050870       @keyencbeep_notify@0       00451870 f   w32_snd.obj
 0001:000508a0       @opn_notify@8              004518a0 f   w32_snd.obj
 0001:00050990       @tape_notify@4             00451990 f   w32_snd.obj
 0001:000509c0       @thg_notify@8              004519c0 f   w32_snd.obj
 0001:00050aa0       @wav_notify@4              00451aa0 f   w32_snd.obj
 0001:00050b60       @whg_notify@8              00451b60 f   w32_snd.obj
 0001:00050e50       ?juliet_YMF288WriteReg@@YAXGE@Z 00451e50 f   juliet.obj
 0001:00050eb0       _juliet_YMF288A_B          00451eb0 f   juliet.obj
 0001:00051180       _juliet_YMF288B_B          00452180 f   juliet.obj
 0001:000512c0       _juliet_YMF288EXEC         004522c0 f   juliet.obj
 0001:00051430       _juliet_YMF288Mute         00452430 f   juliet.obj
 0001:000514c0       _juliet_YMF288Reset        004524c0 f   juliet.obj
 0001:000516e0       _juliet_load               004526e0 f   juliet.obj
 0001:000517c0       _juliet_prepare            004527c0 f   juliet.obj
 0001:000518a0       _juliet_unload             004528a0 f   juliet.obj
 0001:000518de       _ImmGetContext@4           004528de f   imm32:IMM32.dll
 0001:000518e4       _ImmReleaseContext@8       004528e4 f   imm32:IMM32.dll
 0001:000518ea       _ImmGetConversionStatus@12 004528ea f   imm32:IMM32.dll
 0001:000518f0       _ImmSetConversionStatus@12 004528f0 f   imm32:IMM32.dll
 0001:000518f6       _ImmGetOpenStatus@4        004528f6 f   imm32:IMM32.dll
 0001:000518fc       _ImmSetOpenStatus@8        004528fc f   imm32:IMM32.dll
 0001:00051902       _ImmAssociateContext@8     00452902 f   imm32:IMM32.dll
 0001:00051908       _DirectDrawCreate@12       00452908 f   ddraw:DDRAW.dll
 0001:0005190e       _DirectInputCreateA@16     0045290e f   dinput:DINPUT.dll
 0001:00051914       _DirectSoundCreate@12      00452914 f   dsound:DSOUND.dll
 0001:0005191a       @__security_check_cookie@4 0045291a f   LIBCMT:_secchk_.obj
 0001:0005192b       ___raise_securityfailure   0045292b f   LIBCMT:gs_report.obj
 0001:00051953       ___report_gsfailure        00452953 f   LIBCMT:gs_report.obj
 0001:00051a4e       ___report_rangecheckfailure 00452a4e f   LIBCMT:gs_report.obj
 0001:00051a5a       ___report_securityfailure  00452a5a f   LIBCMT:gs_report.obj
 0001:00051b30       __ftoui3                   00452b30 f   LIBCMT:_ftol3_.obj
 0001:00051b3f       __ftoul3                   00452b3f f   LIBCMT:_ftol3_.obj
 0001:00051b4e       __ftol3                    00452b4e f   LIBCMT:_ftol3_.obj
 0001:00051b5b       __ftol3_NaN                00452b5b f   LIBCMT:_ftol3_.obj
 0001:00051b73       __ftol3_work               00452b73 f   LIBCMT:_ftol3_.obj
 0001:00051bf9       __ftol3_common             00452bf9 f   LIBCMT:_ftol3_.obj
 0001:00051cbb       __ftol3_arg_error          00452cbb f   LIBCMT:_ftol3_.obj
 0001:00051ccd       __ftol3_except             00452ccd f   LIBCMT:_ftol3_.obj
 0001:00051d11       __dtoui3                   00452d11 f   LIBCMT:_ftol3_.obj
 0001:00051d20       __dtoul3                   00452d20 f   LIBCMT:_ftol3_.obj
 0001:00051d2f       __dtol3                    00452d2f f   LIBCMT:_ftol3_.obj
 0001:00051d3c       __dtol3_NaN                00452d3c f   LIBCMT:_ftol3_.obj
 0001:00051d59       __dtol3_work               00452d59 f   LIBCMT:_ftol3_.obj
 0001:00051e40       __ultod3                   00452e40 f   LIBCMT:_ftol3_.obj
 0001:00051e80       __ltod3                    00452e80 f   LIBCMT:_ftol3_.obj
 0001:00051eb0       __alloca_probe             00452eb0 f   LIBCMT:chkstk.obj
 0001:00051eb0       __chkstk                   00452eb0 f   LIBCMT:chkstk.obj
 0001:00051edd       ___isa_available_init      00452edd f   LIBCMT:_cpu_disp_.obj
 0001:00052080       ___vdecl_pow2              00453080 f   LIBCMT:_svml_dpow2_dispatch_.obj
 0001:00052085       ??3@YAXPAXI@Z              00453085 f   LIBCMT:delete_scalar_size.obj
 0001:00052093       ??_Etype_info@@UAEPAXI@Z   00453093 f i LIBCMT:std_type_info_static.obj
 0001:00052093       ??_Gtype_info@@UAEPAXI@Z   00453093 f i LIBCMT:std_type_info_static.obj
 0001:000520b6       ??2@YAPAXI@Z               004530b6 f   LIBCMT:new_scalar.obj
 0001:00052315       _WinMainCRTStartup         00453315 f   LIBCMT:exe_winmain.obj
 0001:00052fc0       ___sse2_pow2               00453fc0 f   LIBCMT:_svml_dpow2_sse2_.obj
 0001:00053410       ??3@YAXPAX@Z               00454410 f   LIBCMT:delete_scalar.obj
 0001:00053415       ??0bad_alloc@std@@QAE@ABV01@@Z 00454415 f i LIBCMT:throw_bad_alloc.obj
 0001:00053430       ??0bad_alloc@std@@QAE@XZ   00454430 f i LIBCMT:throw_bad_alloc.obj
 0001:00053448       ??0bad_array_new_length@std@@QAE@ABV01@@Z 00454448 f i LIBCMT:throw_bad_alloc.obj
 0001:00053463       ??0bad_array_new_length@std@@QAE@XZ 00454463 f i LIBCMT:throw_bad_alloc.obj
 0001:0005347b       ??0exception@std@@QAE@ABV01@@Z 0045447b f i LIBCMT:throw_bad_alloc.obj
 0001:000534a7       ??1bad_array_new_length@std@@UAE@XZ 004544a7 f i LIBCMT:throw_bad_alloc.obj
 0001:000534a7       ??1bad_alloc@std@@UAE@XZ   004544a7 f i LIBCMT:throw_bad_alloc.obj
 0001:000534b8       ??_Ebad_array_new_length@std@@UAEPAXI@Z 004544b8 f i LIBCMT:throw_bad_alloc.obj
 0001:000534b8       ??_Gexception@std@@UAEPAXI@Z 004544b8 f i LIBCMT:throw_bad_alloc.obj
 0001:000534b8       ??_Gbad_array_new_length@std@@UAEPAXI@Z 004544b8 f i LIBCMT:throw_bad_alloc.obj
 0001:000534b8       ??_Eexception@std@@UAEPAXI@Z 004544b8 f i LIBCMT:throw_bad_alloc.obj
 0001:000534b8       ??_Ebad_alloc@std@@UAEPAXI@Z 004544b8 f i LIBCMT:throw_bad_alloc.obj
 0001:000534b8       ??_Gbad_alloc@std@@UAEPAXI@Z 004544b8 f i LIBCMT:throw_bad_alloc.obj
 0001:000534e5       ?__scrt_throw_std_bad_alloc@@YAXXZ 004544e5 f   LIBCMT:throw_bad_alloc.obj
 0001:00053502       ?__scrt_throw_std_bad_array_new_length@@YAXXZ 00454502 f   LIBCMT:throw_bad_alloc.obj
 0001:0005351f       ?what@exception@std@@UBEPBDXZ 0045451f f i LIBCMT:throw_bad_alloc.obj
 0001:0005352c       ??$__crt_fast_encode_pointer@PAX@@YAPAXQAX@Z 0045452c f i libvcruntime:winapi_downlevel.obj
 0001:0005352c       ??$__crt_fast_encode_pointer@PAP6AXXZ@@YAPAP6AXXZQAP6AXXZ@Z 0045452c f i LIBCMT:utility.obj
 0001:0005358d       ___scrt_acquire_startup_lock 0045458d f   LIBCMT:utility.obj
 0001:000535c2       ___scrt_initialize_crt     004545c2 f   LIBCMT:utility.obj
 0001:000535fb       ___scrt_initialize_onexit_tables 004545fb f   LIBCMT:utility.obj
 0001:000536a5       ___scrt_is_nonwritable_in_current_image 004546a5 f   LIBCMT:utility.obj
 0001:0005372f       ___scrt_release_startup_lock 0045472f f   LIBCMT:utility.obj
 0001:0005374c       ___scrt_uninitialize_crt   0045474c f   LIBCMT:utility.obj
 0001:00053774       __onexit                   00454774 f   LIBCMT:utility.obj
 0001:000537af       _atexit                    004547af f   LIBCMT:utility.obj
 0001:00053813       ___security_init_cookie    00454813 f   LIBCMT:gs_support.obj
 0001:0005385e       __get_startup_argv_mode    0045485e f   LIBCMT:argv_mode.obj
 0001:00053862       __get_startup_file_mode    00454862 f   LIBCMT:file_mode.obj
 0001:00053868       ?__scrt_initialize_type_info@@YAXXZ 00454868 f   LIBCMT:tncleanup.obj
 0001:00053874       __initialize_default_precision 00454874 f   LIBCMT:default_precision.obj
 0001:00053895       ___local_stdio_scanf_options 00454895 f i LIBCMT:default_local_stdio_options.obj
 0001:0005389b       ___scrt_initialize_default_local_stdio_options 0045489b f   LIBCMT:default_local_stdio_options.obj
 0001:000538b8       ___scrt_is_user_matherr_present 004548b8 f   LIBCMT:matherr_detection.obj
 0001:000538c4       ___scrt_get_dyn_tls_init_callback 004548c4 f   LIBCMT:dyn_tls_init.obj
 0001:000538ca       ___scrt_get_dyn_tls_dtor_callback 004548ca f   LIBCMT:dyn_tls_dtor.obj
 0001:000538d0       ___scrt_fastfail           004548d0 f   LIBCMT:utility_desktop.obj
 0001:000539ec       ___scrt_get_show_window_mode 004549ec f   LIBCMT:utility_desktop.obj
 0001:00053a1f       __get_startup_thread_locale_mode 00454a1f f   LIBCMT:thread_locale.obj
 0001:00053a1f       ___scrt_initialize_winrt   00454a1f f   LIBCMT:utility_desktop.obj
 0001:00053a1f       __matherr                  00454a1f f   LIBCMT:matherr.obj
 0001:00053a1f       __get_startup_commit_mode  00454a1f f   LIBCMT:commit_mode.obj
 0001:00053a1f       __get_startup_new_mode     00454a1f f   LIBCMT:new_mode.obj
 0001:00053a22       ___scrt_set_unhandled_exception_filter 00454a22 f   LIBCMT:utility_desktop.obj
 0001:00053a2e       ___scrt_unhandled_exception_filter@4 00454a2e f   LIBCMT:utility_desktop.obj
 0001:00053a6f       __crt_debugger_hook        00454a6f f   LIBCMT:utility_desktop.obj
 0001:00053a77       __RTC_Initialize           00454a77 f   LIBCMT:_initsect_.obj
 0001:00053aa2       __RTC_Terminate            00454aa2 f   LIBCMT:_initsect_.obj
 0001:00053acd       @_guard_check_icall@4      00454acd f i LIBCMT:checkcfg.obj
 0001:00053ae0       __SEH_prolog4              00454ae0 f   LIBCMT:_sehprolg4_.obj
 0001:00053b26       __SEH_epilog4              00454b26 f   LIBCMT:_sehprolg4_.obj
 0001:00053b3b       ___scrt_is_ucrt_dll_in_use 00454b3b f   LIBCMT:ucrt_detection.obj
 0001:00053b50       _memset                    00454b50 f   libvcruntime:memset.obj
 0001:00053cb0       _memcpy                    00454cb0 f   libvcruntime:memcpy.obj
 0001:00054270       __except_handler4          00455270 f   libvcruntime:_chandler4_.obj
 0001:000543cd       ___std_exception_copy      004553cd f   libvcruntime:std_exception.obj
 0001:00054430       ___std_exception_destroy   00455430 f   libvcruntime:std_exception.obj
 0001:0005444f       __CxxThrowException@8      0045544f f   libvcruntime:throw.obj
 0001:000544bd       ___vcrt_initialize         004554bd f   libvcruntime:initialization.obj
 0001:000544e6       ___vcrt_uninitialize       004554e6 f   libvcruntime:initialization.obj
 0001:00054510       __local_unwind4            00455510 f   libvcruntime:_exsup4_.obj
 0001:000545e8       __seh_longjmp_unwind4@4    004555e8 f   libvcruntime:_exsup4_.obj
 0001:00054610       @_EH4_CallFilterFunc@8     00455610 f   libvcruntime:_exsup4_.obj
 0001:00054628       @_EH4_TransferToHandler@8  00455628 f   libvcruntime:_exsup4_.obj
 0001:00054644       @_EH4_GlobalUnwind2@8      00455644 f   libvcruntime:_exsup4_.obj
 0001:00054660       @_EH4_LocalUnwind@16       00455660 f   libvcruntime:_exsup4_.obj
 0001:00054677       ___except_validate_context_record 00455677 f   libvcruntime:jbcxrval.obj
 0001:000546a7       ___except_validate_jump_buffer 004556a7 f   libvcruntime:jbcxrval.obj
 0001:000546d4       ___vcrt_freefls@4          004556d4 f   libvcruntime:per_thread_data.obj
 0001:000546f0       ___vcrt_initialize_ptd     004556f0 f   libvcruntime:per_thread_data.obj
 0001:00054736       ___vcrt_uninitialize_ptd   00455736 f   libvcruntime:per_thread_data.obj
 0001:00054751       ___vcrt_initialize_locks   00455751 f   libvcruntime:locks.obj
 0001:0005478d       ___vcrt_uninitialize_locks 0045578d f   libvcruntime:locks.obj
 0001:00054909       ___vcrt_FlsAlloc           00455909 f   libvcruntime:winapi_downlevel.obj
 0001:00054943       ___vcrt_FlsFree            00455943 f   libvcruntime:winapi_downlevel.obj
 0001:0005497d       ___vcrt_FlsSetValue        0045597d f   libvcruntime:winapi_downlevel.obj
 0001:000549ba       ___vcrt_InitializeCriticalSectionEx 004559ba f   libvcruntime:winapi_downlevel.obj
 0001:00054a00       ___vcrt_initialize_winapi_thunks 00455a00 f   libvcruntime:winapi_downlevel.obj
 0001:00054a3a       ___vcrt_uninitialize_winapi_thunks 00455a3a f   libvcruntime:winapi_downlevel.obj
 0001:00054a6c       ___vcrt_initialize_pure_virtual_call_handler 00455a6c f   libvcruntime:purevirt_data.obj
 0001:00054a90       __global_unwind2           00455a90 f   libvcruntime:_exsup_.obj
 0001:00054af6       __local_unwind2            00455af6 f   libvcruntime:_exsup_.obj
 0001:00054b7a       __abnormal_termination     00455b7a f   libvcruntime:_exsup_.obj
 0001:00054ba0       __NLG_Notify1              00455ba0 f   libvcruntime:_exsup_.obj
 0001:00054bac       __NLG_Notify               00455bac f   libvcruntime:_exsup_.obj
 0001:00054bc3       __NLG_Dispatch             00455bc3     libvcruntime:_exsup_.obj
 0001:00054bc3       __NLG_Dispatch2            00455bc3     libvcruntime:_exsup_.obj
 0001:00054bcb       __NLG_Call                 00455bcb f   libvcruntime:_exsup_.obj
 0001:00054bcd       __NLG_Return2              00455bcd     libvcruntime:_exsup_.obj
 0001:00054bce       _free                      00455bce f   libucrt:free.obj
 0001:00054beb       _malloc                    00455beb f   libucrt:malloc.obj
 0001:00054e7d       __localtime64              00455e7d f   libucrt:localtime.obj
 0001:00054f28       __time64                   00455f28 f   libucrt:time.obj
 0001:00054f80       __libm_sse2_pow_precise    00455f80 f   libucrt:pow_sse2_precise.obj
 0001:00055ad0       _strncat                   00456ad0 f   libucrt:strncat.obj
 0001:00055c10       _strncpy                   00456c10 f   libucrt:strncpy.obj
 0001:00055f7d       __splitpath                00456f7d f   libucrt:splitpath.obj
 0001:00056168       ??$count@D@formatting_buffer@__crt_stdio_output@@QBEIXZ 00457168 f i libucrt:output.obj
 0001:00056180       ??$ensure_buffer_is_big_enough@D@formatting_buffer@__crt_stdio_output@@QAE_NI@Z 00457180 f i libucrt:output.obj
 0001:000561ff       ??$is_wide_character_specifier@D@__crt_stdio_output@@YA_N_KDW4length_modifier@0@@Z 004571ff f i libucrt:output.obj
 0001:00056230       ??$scratch_data@D@formatting_buffer@__crt_stdio_output@@QAEPADXZ 00457230 f i libucrt:output.obj
 0001:0005624e       ??$type_case_integer_parse_into_buffer@I@?$output_processor@DV?$string_output_adapter@D@__crt_stdio_output@@V?$standard_base@DV?$string_output_adapter@D@__crt_stdio_output@@@2@@__crt_stdio_output@@AAEXII_N@Z 0045724e f i libucrt:output.obj
 0001:000562bb       ??$type_case_integer_parse_into_buffer@_K@?$output_processor@DV?$string_output_adapter@D@__crt_stdio_output@@V?$standard_base@DV?$string_output_adapter@D@__crt_stdio_output@@@2@@__crt_stdio_output@@AAEX_KI_N@Z 004572bb f i libucrt:output.obj
 0001:0005633d       ??$write_multiple_characters@V?$string_output_adapter@D@__crt_stdio_output@@D@__crt_stdio_output@@YAXABV?$string_output_adapter@D@0@DHQAH@Z 0045733d f i libucrt:output.obj
 0001:00056369       ??0?$common_data@D@__crt_stdio_output@@IAE@XZ 00457369 f i libucrt:output.obj
 0001:000563b0       ??0?$output_adapter_data@DV?$string_output_adapter@D@__crt_stdio_output@@@__crt_stdio_output@@IAE@ABV?$string_output_adapter@D@1@_KQBDQAU__crt_locale_pointers@@QAD@Z 004573b0 f i libucrt:output.obj
 0001:000563ec       ??0_LocaleUpdate@@QAE@QAU__crt_locale_pointers@@@Z 004573ec f i libucrt:output.obj
 0001:0005646f       ??1formatting_buffer@__crt_stdio_output@@QAE@XZ 0045746f f i libucrt:output.obj
 0001:00056489       ??4?$__crt_unique_heap_ptr@DU__crt_internal_free_policy@@@@QAEAAV0@$$QAV0@@Z 00457489 f i libucrt:output.obj
 0001:000564ad       ?crop_zeroes@__crt_stdio_output@@YAXPADQAU__crt_locale_pointers@@@Z 004574ad f i libucrt:output.obj
 0001:00056504       ?find_next_state@?$output_processor@DV?$string_output_adapter@D@__crt_stdio_output@@V?$standard_base@DV?$string_output_adapter@D@__crt_stdio_output@@@2@@__crt_stdio_output@@ABE?AW4state@2@DW432@@Z 00457504 f i libucrt:output.obj
 0001:00056536       ?force_decimal_point@__crt_stdio_output@@YAXPADQAU__crt_locale_pointers@@@Z 00457536 f i libucrt:output.obj
 0001:00056592       ?parse_int_from_format_string@?$output_processor@DV?$string_output_adapter@D@__crt_stdio_output@@V?$standard_base@DV?$string_output_adapter@D@__crt_stdio_output@@@2@@__crt_stdio_output@@AAE_NQAH@Z 00457592 f i libucrt:output.obj
 0001:0005660a       ?process@?$output_processor@DV?$string_output_adapter@D@__crt_stdio_output@@V?$standard_base@DV?$string_output_adapter@D@__crt_stdio_output@@@2@@__crt_stdio_output@@QAEHXZ 0045760a f i libucrt:output.obj
 0001:00056726       ?state_case_flag@?$output_processor@DV?$string_output_adapter@D@__crt_stdio_output@@V?$standard_base@DV?$string_output_adapter@D@__crt_stdio_output@@@2@@__crt_stdio_output@@AAE_NXZ 00457726 f i libucrt:output.obj
 0001:00056763       ?state_case_normal@?$output_processor@DV?$string_output_adapter@D@__crt_stdio_output@@V?$standard_base@DV?$string_output_adapter@D@__crt_stdio_output@@@2@@__crt_stdio_output@@AAE_NXZ 00457763 f i libucrt:output.obj
 0001:00056782       ?state_case_normal_common@?$output_processor@DV?$string_output_adapter@D@__crt_stdio_output@@V?$standard_base@DV?$string_output_adapter@D@__crt_stdio_output@@@2@@__crt_stdio_output@@AAE_NXZ 00457782 f i libucrt:output.obj
 0001:000567ac       ?state_case_normal_tchar@?$output_processor@DV?$string_output_adapter@D@__crt_stdio_output@@V?$standard_base@DV?$string_output_adapter@D@__crt_stdio_output@@@2@@__crt_stdio_output@@AAE_ND@Z 004577ac f i libucrt:output.obj
 0001:00056808       ?state_case_precision@?$output_processor@DV?$string_output_adapter@D@__crt_stdio_output@@V?$standard_base@DV?$string_output_adapter@D@__crt_stdio_output@@@2@@__crt_stdio_output@@AAE_NXZ 00457808 f i libucrt:output.obj
 0001:00056830       ?state_case_size@?$output_processor@DV?$string_output_adapter@D@__crt_stdio_output@@V?$standard_base@DV?$string_output_adapter@D@__crt_stdio_output@@@2@@__crt_stdio_output@@AAE_NXZ 00457830 f i libucrt:output.obj
 0001:000569a1       ?state_case_type@?$output_processor@DV?$string_output_adapter@D@__crt_stdio_output@@V?$standard_base@DV?$string_output_adapter@D@__crt_stdio_output@@@2@@__crt_stdio_output@@AAE_NXZ 004579a1 f i libucrt:output.obj
 0001:00056bc9       ?state_case_width@?$output_processor@DV?$string_output_adapter@D@__crt_stdio_output@@V?$standard_base@DV?$string_output_adapter@D@__crt_stdio_output@@@2@@__crt_stdio_output@@AAE_NXZ 00457bc9 f i libucrt:output.obj
 0001:00056bf6       ?to_integer_size@__crt_stdio_output@@YAIW4length_modifier@1@@Z 00457bf6 f i libucrt:output.obj
 0001:00056c52       ?type_case_Z@?$output_processor@DV?$string_output_adapter@D@__crt_stdio_output@@V?$standard_base@DV?$string_output_adapter@D@__crt_stdio_output@@@2@@__crt_stdio_output@@AAE_NXZ 00457c52 f i libucrt:output.obj
 0001:00056cb5       ?type_case_a@?$output_processor@DV?$string_output_adapter@D@__crt_stdio_output@@V?$standard_base@DV?$string_output_adapter@D@__crt_stdio_output@@@2@@__crt_stdio_output@@AAE_NXZ 00457cb5 f i libucrt:output.obj
 0001:00056e13       ?type_case_c_tchar@?$output_processor@DV?$string_output_adapter@D@__crt_stdio_output@@V?$standard_base@DV?$string_output_adapter@D@__crt_stdio_output@@@2@@__crt_stdio_output@@AAE_ND@Z 00457e13 f i libucrt:output.obj
 0001:00056ea3       ?type_case_integer@?$output_processor@DV?$string_output_adapter@D@__crt_stdio_output@@V?$standard_base@DV?$string_output_adapter@D@__crt_stdio_output@@@2@@__crt_stdio_output@@AAE_NI_N@Z 00457ea3 f i libucrt:output.obj
 0001:00056ff4       ?type_case_n@?$output_processor@DV?$string_output_adapter@D@__crt_stdio_output@@V?$standard_base@DV?$string_output_adapter@D@__crt_stdio_output@@@2@@__crt_stdio_output@@AAE_NXZ 00457ff4 f i libucrt:output.obj
 0001:00057068       ?type_case_o@?$output_processor@DV?$string_output_adapter@D@__crt_stdio_output@@V?$standard_base@DV?$string_output_adapter@D@__crt_stdio_output@@@2@@__crt_stdio_output@@AAE_NXZ 00458068 f i libucrt:output.obj
 0001:00057087       ?type_case_p@?$output_processor@DV?$string_output_adapter@D@__crt_stdio_output@@V?$standard_base@DV?$string_output_adapter@D@__crt_stdio_output@@@2@@__crt_stdio_output@@AAE_NXZ 00458087 f i libucrt:output.obj
 0001:0005709f       ?type_case_s@?$output_processor@DV?$string_output_adapter@D@__crt_stdio_output@@V?$standard_base@DV?$string_output_adapter@D@__crt_stdio_output@@@2@@__crt_stdio_output@@AAE_NXZ 0045809f f i libucrt:output.obj
 0001:00057112       ?write_character@?$string_output_adapter@D@__crt_stdio_output@@QBE_NDQAH@Z 00458112 f i libucrt:output.obj
 0001:00057154       ?write_stored_string_tchar@?$output_processor@DV?$string_output_adapter@D@__crt_stdio_output@@V?$standard_base@DV?$string_output_adapter@D@__crt_stdio_output@@@2@@__crt_stdio_output@@AAE_ND@Z 00458154 f i libucrt:output.obj
 0001:000571fd       ?write_string@?$string_output_adapter@D@__crt_stdio_output@@QBEXQBDHQAHAAV__crt_deferred_errno_cache@@@Z 004581fd f i libucrt:output.obj
 0001:00057264       ___stdio_common_vsprintf   00458264 f   libucrt:output.obj
 0001:00057358       __fullpath                 00458358 f   libucrt:fullpath.obj
 0001:0005750d       __beginthreadex            0045850d f   libucrt:thread.obj
 0001:00057592       __endthreadex              00458592 f   libucrt:thread.obj
 0001:000576f2       __makepath                 004586f2 f   libucrt:makepath.obj
 0001:00057712       _realloc                   00458712 f   libucrt:realloc.obj
 0001:0005771d       ??$is_overflow_condition@K@__crt_strtox@@YA_NIK@Z 0045871d f i libucrt:strtox.obj
 0001:0005774e       ??$make_c_string_character_source@DPAPAD@__crt_strtox@@YA?AV?$c_string_character_source@D@0@QBDQAPAD@Z 0045874e f i libucrt:strtox.obj
 0001:00057769       ??$parse_integer@KV?$c_string_character_source@D@__crt_strtox@@@__crt_strtox@@YAKQAU__crt_locale_pointers@@V?$c_string_character_source@D@0@H_N@Z 00458769 f i libucrt:strtox.obj
 0001:00057992       ?unget@?$c_string_character_source@D@__crt_strtox@@QAEXD@Z 00458992 f i libucrt:strtox.obj
 0001:000579ba       ?validate@?$string_output_adapter@D@__crt_stdio_output@@QBE_NXZ 004589ba f i libucrt:output.obj
 0001:000579ba       ?validate@?$c_string_character_source@D@__crt_strtox@@QBE_NXZ 004589ba f i libucrt:strtox.obj
 0001:000579d5       __chvalidchk_l             004589d5 f i libucrt:strtox.obj
 0001:000579ff       __ischartype_l             004589ff f i libucrt:strtox.obj
 0001:00057a32       _strtol                    00458a32 f   libucrt:strtox.obj
 0001:00057a60       __libm_sse2_log_precise    00458a60 f   libucrt:log_sse2_precise.obj
 0001:00057cf0       __libm_sse2_sin_precise    00458cf0 f   libucrt:sin_sse2_precise.obj
 0001:00057ec0       _floor                     00458ec0 f   libucrt:floor_pentium4.obj
 0001:00057f00       __floor_pentium4           00458f00 f   libucrt:floor_pentium4.obj
 0001:00057fc0       __libm_sse2_log10_precise  00458fc0 f   libucrt:log10_sse2_precise.obj
 0001:00058270       __errcode                  00459270 f   libucrt:fpexcept.obj
 0001:000582a4       __except1                  004592a4 f   libucrt:fpexcept.obj
 0001:00058372       __handle_exc               00459372 f   libucrt:fpexcept.obj
 0001:0005855f       __raise_exc                0045955f f   libucrt:fpexcept.obj
 0001:00058582       __raise_exc_ex             00459582 f   libucrt:fpexcept.obj
 0001:00058873       __set_errno_from_matherr   00459873 f   libucrt:fpexcept.obj
 0001:000588a2       __umatherr                 004598a2 f   libucrt:fpexcept.obj
 0001:00058944       ___acrt_initialize_new_handler 00459944 f   libucrt:new_handler.obj
 0001:00058953       __callnewh                 00459953 f   libucrt:new_handler.obj
 0001:00058997       __query_new_handler        00459997 f   libucrt:new_handler.obj
 0001:000589e9       __seh_filter_exe           004599e9 f   libucrt:exception_filter.obj
 0001:00058b5c       __query_app_type           00459b5c f   libucrt:report_runtime_error.obj
 0001:00058b62       __set_app_type             00459b62 f   libucrt:report_runtime_error.obj
 0001:00058b71       ___acrt_has_user_matherr   00459b71 f   libucrt:matherr.obj
 0001:00058b89       ___acrt_initialize_user_matherr 00459b89 f   libucrt:matherr.obj
 0001:00058b98       ___acrt_invoke_user_matherr 00459b98 f   libucrt:matherr.obj
 0001:00058be1       ___setusermatherr          00459be1 f   libucrt:matherr.obj
 0001:00058ea0       ___acrt_allocate_buffer_for_argv 00459ea0 f   libucrt:argv_parsing.obj
 0001:00058eef       __configure_narrow_argv    00459eef f   libucrt:argv_parsing.obj
 0001:000590f8       ??$uninitialize@A6AXAAPAPA_W@Z@?$dual_state_global@PAPA_W@__crt_state_management@@QAEXA6AXAAPAPA_W@Z@Z 0045a0f8 f i libucrt:environment_initialization.obj
 0001:000590f8       ??$uninitialize@A6AXAAPAPAD@Z@?$dual_state_global@PAPAD@__crt_state_management@@QAEXA6AXAAPAPAD@Z@Z 0045a0f8 f i libucrt:environment_initialization.obj
 0001:0005916e       ___dcrt_get_or_create_narrow_environment_nolock 0045a16e f   libucrt:environment_initialization.obj
 0001:00059173       ___dcrt_uninitialize_environments_nolock 0045a173 f   libucrt:environment_initialization.obj
 0001:000591aa       __initialize_narrow_environment 0045a1aa f   libucrt:environment_initialization.obj
 0001:000591af       __get_narrow_winmain_command_line 0045a1af f   libucrt:argv_winmain.obj
 0001:00059202       __initterm                 0045a202 f   libucrt:initterm.obj
 0001:0005925e       __initterm_e               0045a25e f   libucrt:initterm.obj
 0001:000592e6       ??$__crt_fast_encode_pointer@P6AHXZ@@YAP6AHXZQ6AHXZ@Z 0045a2e6 f i libucrt:onexit.obj
 0001:000592e6       ??$__crt_fast_encode_pointer@P6GXPAXK0@Z@@YAP6GXPAXK0@ZQ6GX0K0@Z@Z 0045a2e6 f i libucrt:exit.obj
 0001:000592e6       ??$__crt_fast_encode_pointer@P6AHPAU_exception@@@Z@@YAP6AHPAU_exception@@@ZQ6AH0@Z@Z 0045a2e6 f i libucrt:matherr.obj
 0001:0005949c       ___scrt_is_managed_app     0045a49c f   LIBCMT:utility_desktop.obj
 0001:0005954a       ___acrt_initialize_thread_local_exit_callback 0045a54a f   libucrt:exit.obj
 0001:00059559       __c_exit                   0045a559 f   libucrt:exit.obj
 0001:00059568       __cexit                    0045a568 f   libucrt:exit.obj
 0001:00059577       __exit                     0045a577 f   libucrt:exit.obj
 0001:0005958d       __register_thread_local_exe_atexit_callback 0045a58d f   libucrt:exit.obj
 0001:000595c5       _exit                      0045a5c5 f   libucrt:exit.obj
 0001:000595db       __get_fmode                0045a5db f   libucrt:setmode.obj
 0001:00059607       __set_fmode                0045a607 f   libucrt:setmode.obj
 0001:00059644       __setmode_nolock           0045a644 f   libucrt:setmode.obj
 0001:00059779       ___acrt_set_locale_changed 0045a779 f   libucrt:wsetlocale.obj
 0001:00059784       ___acrt_uninitialize_locale 0045a784 f   libucrt:wsetlocale.obj
 0001:000597ad       __configthreadlocale       0045a7ad f   libucrt:wsetlocale.obj
 0001:0005980f       __query_new_mode           0045a80f f   libucrt:new_mode.obj
 0001:00059815       __set_new_mode             0045a815 f   libucrt:new_mode.obj
 0001:00059844       ___p__commode              0045a844 f   libucrt:ncommode.obj
 0001:00059b51       __crt_atexit               0045ab51 f   libucrt:onexit.obj
 0001:00059b67       __execute_onexit_table     0045ab67 f   libucrt:onexit.obj
 0001:00059b96       __initialize_onexit_table  0045ab96 f   libucrt:onexit.obj
 0001:00059bd3       __register_onexit_function 0045abd3 f   libucrt:onexit.obj
 0001:00059d14       ___acrt_initialize         0045ad14 f   libucrt:initialization.obj
 0001:00059d26       ___acrt_uninitialize       0045ad26 f   libucrt:initialization.obj
 0001:00059d56       __controlfp_s              0045ad56 f   libucrt:contrlfp.obj
 0001:00059db5       _terminate                 0045adb5 f   libucrt:terminate.obj
 0001:00059df1       ___ascii_stricmp           0045adf1 f   libucrt:stricmp.obj
 0001:00059e2c       _stricmp                   0045ae2c f   libucrt:stricmp.obj
 0001:00059e2c       __stricmp                  0045ae2c f   libucrt:stricmp.obj
 0001:00059e75       __stricmp_l                0045ae75 f   libucrt:stricmp.obj
 0001:00059f0f       _access                    0045af0f f   libucrt:access.obj
 0001:00059f0f       __access                   0045af0f f   libucrt:access.obj
 0001:00059f27       __access_s                 0045af27 f   libucrt:access.obj
 0001:00059ffe       __close                    0045affe f   libucrt:close.obj
 0001:00059ffe       _close                     0045affe f   libucrt:close.obj
 0001:0005a08d       __close_nolock             0045b08d f   libucrt:close.obj
 0001:0005a36a       _lseek                     0045b36a f   libucrt:lseek.obj
 0001:0005a36a       __lseek                    0045b36a f   libucrt:lseek.obj
 0001:0005a375       __lseeki64_nolock          0045b375 f   libucrt:lseek.obj
 0001:0005a944       __open                     0045b944 f   libucrt:open.obj
 0001:0005a944       _open                      0045b944 f   libucrt:open.obj
 0001:0005a95c       __sopen_nolock             0045b95c f   libucrt:open.obj
 0001:0005a9ad       __wsopen_nolock            0045b9ad f   libucrt:open.obj
 0001:0005b197       _read                      0045c197 f   libucrt:read.obj
 0001:0005b197       __read                     0045c197 f   libucrt:read.obj
 0001:0005b2a1       __read_nolock              0045c2a1 f   libucrt:read.obj
 0001:0005b656       __tell                     0045c656 f   libucrt:tell.obj
 0001:0005b656       _tell                      0045c656 f   libucrt:tell.obj
 0001:0005bc0d       __write                    0045cc0d f   libucrt:write.obj
 0001:0005bc0d       _write                     0045cc0d f   libucrt:write.obj
 0001:0005bcf5       __write_nolock             0045ccf5 f   libucrt:write.obj
 0001:0005bf07       _strcpy_s                  0045cf07 f   libucrt:strcpy_s.obj
 0001:0005bf61       __free_base                0045cf61 f   libucrt:free_base.obj
 0001:0005bf9b       __malloc_base              0045cf9b f   libucrt:malloc_base.obj
 0001:0005bfe9       _abort                     0045cfe9 f   libucrt:abort.obj
 0001:0005c02d       __calloc_base              0045d02d f   libucrt:calloc_base.obj
 0001:0005c08a       _wcsncmp                   0045d08a f   libucrt:wcsncmp.obj
 0001:0005c0c4       _atol                      0045d0c4 f   libucrt:atox.obj
 0001:0005c0e9       ___acrt_call_reportfault   0045d0e9 f   libucrt:invalid_parameter.obj
 0001:0005c224       ___acrt_initialize_invalid_parameter_handler 0045d224 f   libucrt:invalid_parameter.obj
 0001:0005c233       __invalid_parameter        0045d233 f   libucrt:invalid_parameter.obj
 0001:0005c2ae       __invalid_parameter_noinfo 0045d2ae f   libucrt:invalid_parameter.obj
 0001:0005c2be       __invoke_watson            0045d2be f   libucrt:invalid_parameter.obj
 0001:0005c2f2       ___acrt_errno_from_os_error 0045d2f2 f   libucrt:errno.obj
 0001:0005c335       ___acrt_errno_map_os_error 0045d335 f   libucrt:errno.obj
 0001:0005c358       ___doserrno                0045d358 f   libucrt:errno.obj
 0001:0005c36b       __errno                    0045d36b f   libucrt:errno.obj
 0001:0005c37e       ___acrt_initialize_timeset 0045d37e f   libucrt:timeset.obj
 0001:0005c3a9       ___daylight                0045d3a9 f   libucrt:timeset.obj
 0001:0005c3af       ___dstbias                 0045d3af f   libucrt:timeset.obj
 0001:0005c3b5       ___timezone                0045d3b5 f   libucrt:timeset.obj
 0001:0005c3bb       ___tzname                  0045d3bb f   libucrt:timeset.obj
 0001:0005c3c1       __get_daylight             0045d3c1 f   libucrt:timeset.obj
 0001:0005c3ed       __get_dstbias              0045d3ed f   libucrt:timeset.obj
 0001:0005c419       __get_timezone             0045d419 f   libucrt:timeset.obj
 0001:0005c445       ??$__crt_time_elapsed_leap_years@H@@YAHH@Z 0045d445 f i libucrt:gmtime.obj
 0001:0005c47f       ??$__crt_time_is_leap_year@H@@YA_NH@Z 0045d47f f i libucrt:gmtime.obj
 0001:0005c6a8       ___getgmtimebuf            0045d6a8 f   libucrt:gmtime.obj
 0001:0005c6e6       __gmtime64_s               0045d6e6 f   libucrt:gmtime.obj
 0001:0005ce35       ___tzset                   0045de35 f   libucrt:tzset.obj
 0001:0005ce86       __isindst                  0045de86 f   libucrt:tzset.obj
 0001:0005d082       ___acrt_AppPolicyGetProcessTerminationMethodInternal@4 0045e082 f   libucrt:winapi_thunks.obj
 0001:0005d0d9       ___acrt_AppPolicyGetThreadInitializationTypeInternal@4 0045e0d9 f   libucrt:winapi_thunks.obj
 0001:0005d130       ___acrt_AreFileApisANSI@0  0045e130 f   libucrt:winapi_thunks.obj
 0001:0005d16a       ___acrt_CompareStringEx@36 0045e16a f   libucrt:winapi_thunks.obj
 0001:0005d1de       ___acrt_FlsAlloc@4         0045e1de f   libucrt:winapi_thunks.obj
 0001:0005d234       ___acrt_FlsFree@4          0045e234 f   libucrt:winapi_thunks.obj
 0001:0005d28a       ___acrt_FlsGetValue@4      0045e28a f   libucrt:winapi_thunks.obj
 0001:0005d2e0       ___acrt_FlsSetValue@8      0045e2e0 f   libucrt:winapi_thunks.obj
 0001:0005d339       ___acrt_GetSystemTimePreciseAsFileTime@4 0045e339 f   libucrt:winapi_thunks.obj
 0001:0005d38f       ___acrt_InitializeCriticalSectionEx@12 0045e38f f   libucrt:winapi_thunks.obj
 0001:0005d3f1       ___acrt_LCMapStringEx@36   0045e3f1 f   libucrt:winapi_thunks.obj
 0001:0005d465       ___acrt_LocaleNameToLCID@8 0045e465 f   libucrt:winapi_thunks.obj
 0001:0005d4ad       ___acrt_RoInitialize@4     0045e4ad f   libucrt:winapi_thunks.obj
 0001:0005d4ff       ___acrt_RoUninitialize@0   0045e4ff f   libucrt:winapi_thunks.obj
 0001:0005d548       ___acrt_initialize_winapi_thunks 0045e548 f   libucrt:winapi_thunks.obj
 0001:0005d584       ___acrt_uninitialize_winapi_thunks 0045e584 f   libucrt:winapi_thunks.obj
 0001:0005d5ba       ___libm_error_support      0045e5ba f   libucrt:libm_error.obj
 0001:0005d7e0       __CIpow                    0045e7e0 f   libucrt:pow_impl.obj
 0001:0005d81b       __CIpow_default            0045e81b f   libucrt:pow_impl.obj
 0001:0005d834       __pow_default              0045e834     libucrt:pow_impl.obj
 0001:0005dada       _strncpy_s                 0045eada f   libucrt:strncpy_s.obj
 0001:0005db3e       __ismbblead                0045eb3e f   libucrt:ismbbyte.obj
 0001:0005db56       __isdigit_l                0045eb56 f i libucrt:_ctype.obj
 0001:0005db8e       _isdigit                   0045eb8e f i libucrt:_ctype.obj
 0001:0005dd21       __tolower_l                0045ed21 f   libucrt:tolower_toupper.obj
 0001:0005dd3b       _tolower                   0045ed3b f   libucrt:tolower_toupper.obj
 0001:0005dd6b       __mbtowc_l                 0045ed6b f   libucrt:mbtowc.obj
 0001:0005de69       _mbtowc                    0045ee69 f   libucrt:mbtowc.obj
 0001:0005de83       __wctomb_s_l               0045ee83 f   libucrt:wctomb.obj
 0001:0005dfa6       _wctomb_s                  0045efa6 f   libucrt:wctomb.obj
 0001:0005dfc3       _strnlen                   0045efc3 f   libucrt:strnlen.obj
 0001:0005e0e5       _wcsnlen                   0045f0e5 f   libucrt:strnlen.obj
 0001:0005e5aa       ___acrt_getptd             0045f5aa f   libucrt:per_thread_data.obj
 0001:0005e65e       ___acrt_getptd_head        0045f65e f   libucrt:per_thread_data.obj
 0001:0005e6f8       ___acrt_getptd_noexit      0045f6f8 f   libucrt:per_thread_data.obj
 0001:0005e7ab       ___acrt_initialize_ptd     0045f7ab f   libucrt:per_thread_data.obj
 0001:0005e7d7       ___acrt_uninitialize_ptd   0045f7d7 f   libucrt:per_thread_data.obj
 0001:0005e7f1       ___acrt_update_locale_info 0045f7f1 f   libucrt:locale_update.obj
 0001:0005e81e       ___acrt_update_multibyte_info 0045f81e f   libucrt:locale_update.obj
 0001:0005e84b       ?__acrt_fp_classify@@YA?AW4__acrt_fp_class@@ABN@Z 0045f84b f i libucrt:cvt.obj
 0001:0005f111       ___acrt_fp_format          00460111 f   libucrt:cvt.obj
 0001:0005f24a       __fileno                   0046024a f   libucrt:fileno.obj
 0001:0005f270       ___acrt_initialize_stdio   00460270 f   libucrt:_file.obj
 0001:0005f338       ___acrt_uninitialize_stdio 00460338 f   libucrt:_file.obj
 0001:0005f384       __lock_file                00460384 f   libucrt:_file.obj
 0001:0005f398       __unlock_file              00460398 f   libucrt:_file.obj
 0001:0005f3ac       __get_printf_count_output  004603ac f   libucrt:printf_count_output.obj
 0001:0005f52d       ___acrt_initialize_lowio   0046052d f   libucrt:ioinit.obj
 0001:0005f583       ___acrt_uninitialize_lowio 00460583 f   libucrt:ioinit.obj
 0001:0005f7c9       __getcwd                   004607c9 f   libucrt:getcwd.obj
 0001:0005f7e5       _calloc                    004607e5 f   libucrt:calloc.obj
 0001:0005f7f0       ___acrt_get_begin_thread_init_policy 004607f0 f   libucrt:win_policies.obj
 0001:0005f835       ___acrt_get_process_end_policy 00460835 f   libucrt:win_policies.obj
 0001:0005f868       __mbsdec                   00460868 f   libucrt:mbsdec.obj
 0001:0005f87f       __mbsdec_l                 0046087f f   libucrt:mbsdec.obj
 0001:0005f8f6       __realloc_base             004608f6 f   libucrt:realloc_base.obj
 0001:0005f95f       ___pctype_func             0046095f f   libucrt:ctype.obj
 0001:0005f985       __isctype_l                00460985 f   libucrt:isctype.obj
 0001:0005fa60       __CIlog                    00460a60 f   libucrt:log_impl.obj
 0001:0005fa9b       __CIlog_default            00460a9b f   libucrt:log_impl.obj
 0001:0005faaf       __log_default              00460aaf     libucrt:log_impl.obj
 0001:0005fb70       __CIsin                    00460b70 f   libucrt:sin_impl.obj
 0001:0005fbab       __CIsin_default            00460bab f   libucrt:sin_impl.obj
 0001:0005fbbf       __sin_default              00460bbf     libucrt:sin_impl.obj
 0001:0005fc52       ___acrt_initialize_sse2    00460c52 f   libucrt:mathfcns.obj
 0001:0005fc62       __floor_default            00460c62 f   libucrt:floor.obj
 0001:0005fd20       __CIlog10                  00460d20 f   libucrt:log10_impl.obj
 0001:0005fd5b       __CIlog10_default          00460d5b f   libucrt:log10_impl.obj
 0001:0005fd6f       __log10_default            00460d6f     libucrt:log10_impl.obj
 0001:0005fe30       __decomp                   00460e30 f   libucrt:util.obj
 0001:0005ff04       __set_exp                  00460f04 f   libucrt:util.obj
 0001:0005ff33       __sptype                   00460f33 f   libucrt:util.obj
 0001:0005ff91       ___set_fpsr_sse2           00460f91 f   libucrt:fpctrl.obj
 0001:00060007       __clrfp                    00461007 f   libucrt:fpctrl.obj
 0001:0006001a       __ctrlfp                   0046101a f   libucrt:fpctrl.obj
 0001:00060046       __set_statfp               00461046 f   libucrt:fpctrl.obj
 0001:000600a1       __statfp                   004610a1 f   libucrt:fpctrl.obj
 0001:000600b3       ___acrt_initialize_locks   004610b3 f   libucrt:locks.obj
 0001:000600f4       ___acrt_lock               004610f4 f   libucrt:locks.obj
 0001:0006010b       ___acrt_uninitialize_locks 0046110b f   libucrt:locks.obj
 0001:0006013c       ___acrt_unlock             0046113c f   libucrt:locks.obj
 0001:00060605       ___acrt_expand_narrow_argv_wildcards 00461605 f   libucrt:argv_wildcards.obj
 0001:00060b2e       ___acrt_initialize_multibyte 00461b2e f   libucrt:mbctype.obj
 0001:00060b76       ___acrt_update_thread_multibyte_data 00461b76 f   libucrt:mbctype.obj
 0001:00060b89       __setmbcp_nolock           00461b89 f   libucrt:mbctype.obj
 0001:00060d83       ___acrt_initialize_command_line 00461d83 f   libucrt:argv_data.obj
 0001:00060d9c       __should_initialize_environment 00461d9c f   LIBCMT:env_mode.obj
 0001:00060d9c       ___acrt_uninitialize_command_line 00461d9c f   libucrt:argv_data.obj
 0001:00060dd6       ___dcrt_get_narrow_environment_from_os 00461dd6 f   libucrt:get_environment_from_os.obj
 0001:000611b7       ___dcrt_set_variable_in_narrow_environment_nolock 004621b7 f   libucrt:setenv.obj
 0001:000611c2       ___acrt_lowio_create_handle_array 004621c2 f   libucrt:osfinfo.obj
 0001:0006123c       ___acrt_lowio_destroy_handle_array 0046223c f   libucrt:osfinfo.obj
 0001:00061271       ___acrt_lowio_ensure_fh_exists 00462271 f   libucrt:osfinfo.obj
 0001:00061305       ___acrt_lowio_lock_fh      00462305 f   libucrt:osfinfo.obj
 0001:00061328       ___acrt_lowio_set_os_handle 00462328 f   libucrt:osfinfo.obj
 0001:000613bc       ___acrt_lowio_unlock_fh    004623bc f   libucrt:osfinfo.obj
 0001:000613df       __alloc_osfhnd             004623df f   libucrt:osfinfo.obj
 0001:000614e8       __free_osfhnd              004624e8 f   libucrt:osfinfo.obj
 0001:00061579       __get_osfhandle            00462579 f   libucrt:osfinfo.obj
 0001:000615e3       ____lc_codepage_func       004625e3 f   libucrt:initctype.obj
 0001:0006160a       ___acrt_locale_free_monetary 0046260a f   libucrt:initmon.obj
 0001:00061708       ___acrt_locale_free_numeric 00462708 f   libucrt:initnum.obj
 0001:000617a9       ___acrt_locale_free_time   004627a9 f   libucrt:inittime.obj
 0001:0006188d       ___acrt_GetStringTypeA     0046288d f   libucrt:getstringtypea.obj
 0001:00061991       __freea_crt                00462991 f i libucrt:getstringtypea.obj
 0001:000619b1       ___acrt_add_locale_ref     004629b1 f   libucrt:locale_refcounting.obj
 0001:00061a2e       ___acrt_free_locale        00462a2e f   libucrt:locale_refcounting.obj
 0001:00061b78       ___acrt_locale_add_lc_time_reference 00462b78 f   libucrt:locale_refcounting.obj
 0001:00061ba1       ___acrt_locale_free_lc_time_if_unreferenced 00462ba1 f   libucrt:locale_refcounting.obj
 0001:00061bd1       ___acrt_locale_release_lc_time_reference 00462bd1 f   libucrt:locale_refcounting.obj
 0001:00061bfa       ___acrt_release_locale_ref 00462bfa f   libucrt:locale_refcounting.obj
 0001:00061c7b       ___acrt_update_thread_locale_data 00462c7b f   libucrt:locale_refcounting.obj
 0001:00061cf2       __updatetlocinfoEx_nolock  00462cf2 f   libucrt:locale_refcounting.obj
 0001:00061d42       __recalloc                 00462d42 f   libucrt:recalloc.obj
 0001:00061d4d       __recalloc_base            00462d4d f   libucrt:recalloc.obj
 0001:00061dba       ___acrt_initialize_heap    00462dba f   libucrt:heap_handle.obj
 0001:00061dcb       ___acrt_uninitialize_heap  00462dcb f   libucrt:heap_handle.obj
 0001:00061dd5       ___acrt_execute_initializers 00462dd5 f   libucrt:shared_initialization.obj
 0001:00061e58       ___acrt_execute_uninitializers 00462e58 f   libucrt:shared_initialization.obj
 0001:00061f64       ___acrt_get_sigabrt_handler 00462f64 f   libucrt:signal.obj
 0001:00061f8d       ___acrt_initialize_signal_handlers 00462f8d f   libucrt:signal.obj
 0001:00061fab       ___fpecode                 00462fab f   libucrt:signal.obj
 0001:00061fb4       _raise                     00462fb4 f   libucrt:signal.obj
 0001:00062371       ___acrt_stdio_flush_nolock 00463371 f   libucrt:fflush.obj
 0001:000623d4       __fflush_nolock            004633d4 f   libucrt:fflush.obj
 0001:0006241b       __flushall                 0046341b f   libucrt:fflush.obj
 0001:000624cb       __clearfp                  004634cb f   libucrt:ieee87.obj
 0001:000625ab       __control87                004635ab f   libucrt:ieee87.obj
 0001:00062949       ___acrt_copy_path_to_wide_string 00463949 f   libucrt:string_utilities.obj
 0001:00062a10       __waccess_s                00463a10 f   libucrt:waccess.obj
 0001:00062ad0       __chsize_nolock            00463ad0 f   libucrt:chsize.obj
 0001:00062c61       __isatty                   00463c61 f   libucrt:isatty.obj
 0001:00062cb7       __putwch_nolock            00463cb7 f   libucrt:putwch.obj
 0001:00062e58       _getenv_s                  00463e58 f   libucrt:getenv.obj
 0001:00062f17       ___acrt_DownlevelLocaleNameToLCID 00463f17 f   libucrt:lcidtoname_downlevel.obj
 0001:00062f50       __CIpow_pentium4           00463f50 f   libucrt:pow_pentium4.obj
 0001:00062f69       __pow_pentium4             00463f69     libucrt:pow_pentium4.obj
 0001:00063a81       __fFEXP                    00464a81     libucrt:87tran.obj
 0001:00063ad8       __rtinfpopse               00464ad8     libucrt:87tran.obj
 0001:00063ada       __rtinfnpopse              00464ada     libucrt:87tran.obj
 0001:00063aea       __fFLN                     00464aea     libucrt:87tran.obj
 0001:00063b9f       __rtinfpop                 00464b9f     libucrt:87tran.obj
 0001:00063ba1       __rtinfnpop                00464ba1     libucrt:87tran.obj
 0001:00063bbe       __ffexpm1                  00464bbe     libucrt:87tran.obj
 0001:00063c70       __trandisp1                00464c70 f   libucrt:87disp.obj
 0001:00063cd7       __trandisp2                00464cd7 f   libucrt:87disp.obj
 0001:00063d63       __rttospopde               00464d63     libucrt:87disp.obj
 0001:00063d68       __rttospop                 00464d68     libucrt:87disp.obj
 0001:00063d6a       __rtnospop                 00464d6a     libucrt:87disp.obj
 0001:00063d6c       __rttosnpop                00464d6c     libucrt:87disp.obj
 0001:00063d6d       __rtnospopde               00464d6d     libucrt:87disp.obj
 0001:00063d74       __rtzeropop                00464d74     libucrt:87disp.obj
 0001:00063d76       __rtzeronpop               00464d76     libucrt:87disp.obj
 0001:00063d7b       __rtzerospop               00464d7b     libucrt:87disp.obj
 0001:00063d88       __rtonepop                 00464d88     libucrt:87disp.obj
 0001:00063d8a       __rtonenpop                00464d8a     libucrt:87disp.obj
 0001:00063d8f       __tosnan1                  00464d8f     libucrt:87disp.obj
 0001:00063dba       __nosnan2                  00464dba     libucrt:87disp.obj
 0001:00063dbc       __tosnan2                  00464dbc     libucrt:87disp.obj
 0001:00063de4       __nan2                     00464de4     libucrt:87disp.obj
 0001:00063e23       __rtindfpop                00464e23     libucrt:87disp.obj
 0001:00063e25       __rtindfnpop               00464e25     libucrt:87disp.obj
 0001:00063e36       __rttosnpopde              00464e36     libucrt:87disp.obj
 0001:00063e40       __rtatan2inf               00464e40     libucrt:87disp.obj
 0001:00063e5d       __rtchsifneg               00464e5d     libucrt:87disp.obj
 0001:00063e70       __startTwoArgErrorHandling 00464e70 f   libucrt:genexcep.obj
 0001:00063e87       __startOneArgErrorHandling 00464e87 f   libucrt:genexcep.obj
 0001:00063ed0       __twoToTOS                 00464ed0 f   libucrt:common.obj
 0001:00063ee5       __load_CW                  00464ee5 f   libucrt:common.obj
 0001:00063efc       __convertTOStoQNaN         00464efc f   libucrt:common.obj
 0001:00063f15       __fload_withFB             00464f15 f   libucrt:common.obj
 0001:00063f58       __checkTOS_withFB          00464f58 f   libucrt:common.obj
 0001:00063f6e       __fast_exit                00464f6e f   libucrt:common.obj
 0001:00063f7b       __math_exit                00464f7b f   libucrt:common.obj
 0001:00063fa5       __check_overflow_exit      00464fa5 f   libucrt:common.obj
 0001:00063fb9       __check_range_exit         00464fb9 f   libucrt:common.obj
 0001:0006405c       __d_inttype                0046505c f   libucrt:powhlp.obj
 0001:000640c6       __powhlp                   004650c6 f   libucrt:powhlp.obj
 0001:000641f1       __isleadbyte_l             004651f1 f i libucrt:_wctype.obj
 0001:00064410       ___acrt_LCMapStringA       00465410 f   libucrt:lcmapstringa.obj
 0001:0006445b       ___acrt_MultiByteToWideChar 0046545b f   libucrt:multibytetowidechar.obj
 0001:0006447a       ___acrt_WideCharToMultiByte 0046547a f   libucrt:widechartomultibyte.obj
 0001:0006449f       ___acrt_fp_strflt_to_string 0046549f f   libucrt:_fptostr.obj
 0001:00064560       ?divide@__crt_strtox@@YA_KAAUbig_integer@1@ABU21@@Z 00465560 f i libucrt:cfout.obj
 0001:00064a02       ___acrt_fltout             00465a02 f   libucrt:cfout.obj
 0001:00065df6       __fcloseall                00466df6 f   libucrt:closeall.obj
 0001:00065e96       ___acrt_stdio_free_buffer_nolock 00466e96 f   libucrt:_freebuf.obj
 0001:00065f02       __getdrive                 00466f02 f   libucrt:drive.obj
 0001:00065fb0       __CIlog_pentium4           00466fb0 f   libucrt:log_pentium4.obj
 0001:00065fc8       __log_pentium4             00466fc8     libucrt:log_pentium4.obj
 0001:00066220       __CIsin_pentium4           00467220 f   libucrt:sin_pentium4.obj
 0001:00066238       __sin_pentium4             00467238     libucrt:sin_pentium4.obj
 0001:000663e8       __frnd                     004673e8 f   libucrt:frnd.obj
 0001:00066400       __CIlog10_pentium4         00467400 f   libucrt:log10_pentium4.obj
 0001:00066418       __log10_pentium4           00467418     libucrt:log10_pentium4.obj
 0001:000666d0       _qsort                     004676d0 f   libucrt:qsort.obj
 0001:00066b20       _strpbrk                   00467b20 f   libucrt:strpbrk.obj
 0001:00066b6f       __strnicoll                00467b6f f   libucrt:strnicol.obj
 0001:00066b98       __strnicoll_l              00467b98 f   libucrt:strnicol.obj
 0001:00066c62       __msize                    00467c62 f   libucrt:msize.obj
 0001:00066c6d       __msize_base               00467c6d f   libucrt:msize.obj
 0001:00066d38       __commit                   00467d38 f   libucrt:commit.obj
 0001:00066dd6       ___dcrt_lowio_ensure_console_output_initialized 00467dd6 f   libucrt:initcon.obj
 0001:00066df5       ___dcrt_terminate_console_output 00467df5 f   libucrt:initcon.obj
 0001:00066e0c       ___dcrt_write_console_w    00467e0c f   libucrt:initcon.obj
 0001:00066e61       __87except                 00467e61 f   libucrt:87except.obj
 0001:00066f6c       __fpclass                  00467f6c f   libucrt:ieeemisc.obj
 0001:00067010       ___strncnt                 00468010 f   libucrt:strncnt.obj
 0001:0006702c       _fegetenv                  0046802c f   libucrt:fegetenv.obj
 0001:00067049       _fesetenv                  00468049 f   libucrt:fesetenv.obj
 0001:00067096       _feholdexcept              00468096 f   libucrt:feholdexcept.obj
 0001:000670f0       _ceil                      004680f0 f   libucrt:ceil_pentium4.obj
 0001:00067130       __ceil_pentium4            00468130 f   libucrt:ceil_pentium4.obj
 0001:0006720d       __fclose_nolock            0046820d f   libucrt:fclose.obj
 0001:00067283       _fclose                    00468283 f   libucrt:fclose.obj
 0001:000672fc       __strnicmp                 004682fc f   libucrt:strnicmp.obj
 0001:00067369       __strnicmp_l               00468369 f   libucrt:strnicmp.obj
 0001:00067693       ___acrt_CompareStringA     00468693 f   libucrt:comparestringa.obj
 0001:00067a5b       ___acrt_fenv_get_control   00468a5b f   libucrt:_fenvutils.obj
 0001:00067add       ___acrt_fenv_get_status    00468add f   libucrt:_fenvutils.obj
 0001:00067ba0       ___acrt_fenv_set_control   00468ba0 f   libucrt:_fenvutils.obj
 0001:00067c0a       ___acrt_fenv_set_status    00468c0a f   libucrt:_fenvutils.obj
 0001:00067d03       __ceil_default             00468d03 f   libucrt:ceil.obj
 0001:00067dbc       ?__acrt_stdio_free_stream@@YAXV__crt_stdio_stream@@@Z 00468dbc f   libucrt:stream.obj
 0001:00067e00       ___ascii_strnicmp          00468e00 f   libucrt:_strnicm.obj
 0001:00067e61       _IsProcessorFeaturePresent@4 00468e61 f   kernel32:KERNEL32.dll
 0001:00067e70       __FindPESection            00468e70 f   LIBCMT:pesect.obj
 0001:00067ec0       __IsNonwritableInCurrentImage 00468ec0 f   LIBCMT:pesect.obj
 0001:00067f80       __ValidateImageBase        00468f80 f   LIBCMT:pesect.obj
 0001:00067fc0       __aulldvrm                 00468fc0 f   LIBCMT:ulldvrm.obj
 0001:00068060       __alldiv                   00469060 f   LIBCMT:lldiv.obj
 0001:00068110       __allrem                   00469110 f   LIBCMT:llrem.obj
 0001:000681d0       __alldvrm                  004691d0 f   LIBCMT:lldvrm.obj
 0001:000682b0       __SEH_prolog4_GS           004692b0 f   LIBCMT:_sehprolg4gs_.obj
 0001:000682f9       __SEH_epilog4_GS           004692f9 f   LIBCMT:_sehprolg4gs_.obj
 0001:00068310       __allmul                   00469310 f   LIBCMT:llmul.obj
 0001:00068350       __aullshr                  00469350 f   LIBCMT:ullshr.obj
 0001:00068370       __alloca_probe_16          00469370 f   LIBCMT:alloca16.obj
 0001:00068386       __alloca_probe_8           00469386     LIBCMT:alloca16.obj
 0001:000683a0       __allshl                   004693a0 f   LIBCMT:llshl.obj
 0001:000683c0       __ftol2_sse                004693c0 f   LIBCMT:_ftol2_.obj
 0001:000683c9       __ftol2_pentium4           004693c9 f   LIBCMT:_ftol2_.obj
 0001:000683dc       __ftol2_sse_excpt          004693dc f   LIBCMT:_ftol2_.obj
 0001:00068400       __ftol2                    00469400 f   LIBCMT:_ftol2_.obj
 0001:00068480       _memmove                   00469480 f   libvcruntime:memmove.obj
 0001:00068a00       _strrchr                   00469a00 f   libvcruntime:strrchr.obj
 0001:00068b40       _strchr                    00469b40 f   libvcruntime:strchr.obj
 0001:00068bae       ___from_strstr_to_strchr   00469bae     libvcruntime:strchr.obj
 0002:00000000       __imp__CreateStatusWindowA@16 0046a000     comctl32:COMCTL32.dll
 0002:00000004       __imp__CreatePropertySheetPageA@4 0046a004     comctl32:COMCTL32.dll
 0002:00000008       __imp__PropertySheetA@4    0046a008     comctl32:COMCTL32.dll
 0002:0000000c       __imp__InitCommonControls@0 0046a00c     comctl32:COMCTL32.dll
 0002:00000010       \177COMCTL32_NULL_THUNK_DATA 0046a010     comctl32:COMCTL32.dll
 0002:00000014       __imp__PrintDlgA@4         0046a014     comdlg32:COMDLG32.dll
 0002:00000018       __imp__GetSaveFileNameA@4  0046a018     comdlg32:COMDLG32.dll
 0002:0000001c       __imp__GetOpenFileNameA@4  0046a01c     comdlg32:COMDLG32.dll
 0002:00000020       \177COMDLG32_NULL_THUNK_DATA 0046a020     comdlg32:COMDLG32.dll
 0002:00000024       __imp__DirectDrawCreate@12 0046a024     ddraw:DDRAW.dll
 0002:00000028       \177DDRAW_NULL_THUNK_DATA  0046a028     ddraw:DDRAW.dll
 0002:0000002c       __imp__DirectInputCreateA@16 0046a02c     dinput:DINPUT.dll
 0002:00000030       \177DINPUT_NULL_THUNK_DATA 0046a030     dinput:DINPUT.dll
 0002:00000034       __imp__DirectSoundCreate@12 0046a034     dsound:DSOUND.dll
 0002:00000038       \177DSOUND_NULL_THUNK_DATA 0046a038     dsound:DSOUND.dll
 0002:0000003c       __imp__DPtoLP@12           0046a03c     gdi32:GDI32.dll
 0002:00000040       __imp__EndPage@4           0046a040     gdi32:GDI32.dll
 0002:00000044       __imp__StartPage@4         0046a044     gdi32:GDI32.dll
 0002:00000048       __imp__EndDoc@4            0046a048     gdi32:GDI32.dll
 0002:0000004c       __imp__StartDocA@8         0046a04c     gdi32:GDI32.dll
 0002:00000050       __imp__SetMapMode@8        0046a050     gdi32:GDI32.dll
 0002:00000054       __imp__GetDeviceCaps@8     0046a054     gdi32:GDI32.dll
 0002:00000058       __imp__SetWindowOrgEx@16   0046a058     gdi32:GDI32.dll
 0002:0000005c       __imp__ExtTextOutA@32      0046a05c     gdi32:GDI32.dll
 0002:00000060       __imp__GetTextFaceA@12     0046a060     gdi32:GDI32.dll
 0002:00000064       __imp__CreateFontIndirectA@4 0046a064     gdi32:GDI32.dll
 0002:00000068       __imp__TextOutA@20         0046a068     gdi32:GDI32.dll
 0002:0000006c       __imp__SetBkColor@8        0046a06c     gdi32:GDI32.dll
 0002:00000070       __imp__GetTextColor@4      0046a070     gdi32:GDI32.dll
 0002:00000074       __imp__GetBkColor@4        0046a074     gdi32:GDI32.dll
 0002:00000078       __imp__CreateFontA@56      0046a078     gdi32:GDI32.dll
 0002:0000007c       __imp__SetDIBColorTable@16 0046a07c     gdi32:GDI32.dll
 0002:00000080       __imp__CreateDIBSection@24 0046a080     gdi32:GDI32.dll
 0002:00000084       __imp__StretchBlt@44       0046a084     gdi32:GDI32.dll
 0002:00000088       __imp__SelectObject@8      0046a088     gdi32:GDI32.dll
 0002:0000008c       __imp__DeleteDC@4          0046a08c     gdi32:GDI32.dll
 0002:00000090       __imp__CreateCompatibleDC@4 0046a090     gdi32:GDI32.dll
 0002:00000094       __imp__BitBlt@36           0046a094     gdi32:GDI32.dll
 0002:00000098       __imp__GetTextMetricsA@8   0046a098     gdi32:GDI32.dll
 0002:0000009c       __imp__SetTextColor@8      0046a09c     gdi32:GDI32.dll
 0002:000000a0       __imp__SetPixelV@16        0046a0a0     gdi32:GDI32.dll
 0002:000000a4       __imp__SetBkMode@8         0046a0a4     gdi32:GDI32.dll
 0002:000000a8       __imp__DeleteObject@4      0046a0a8     gdi32:GDI32.dll
 0002:000000ac       __imp__CreateSolidBrush@4  0046a0ac     gdi32:GDI32.dll
 0002:000000b0       __imp__Ellipse@20          0046a0b0     gdi32:GDI32.dll
 0002:000000b4       __imp__GetStockObject@4    0046a0b4     gdi32:GDI32.dll
 0002:000000b8       \177GDI32_NULL_THUNK_DATA  0046a0b8     gdi32:GDI32.dll
 0002:000000bc       __imp__ImmGetOpenStatus@4  0046a0bc     imm32:IMM32.dll
 0002:000000c0       __imp__ImmSetConversionStatus@12 0046a0c0     imm32:IMM32.dll
 0002:000000c4       __imp__ImmGetConversionStatus@12 0046a0c4     imm32:IMM32.dll
 0002:000000c8       __imp__ImmReleaseContext@8 0046a0c8     imm32:IMM32.dll
 0002:000000cc       __imp__ImmAssociateContext@8 0046a0cc     imm32:IMM32.dll
 0002:000000d0       __imp__ImmSetOpenStatus@8  0046a0d0     imm32:IMM32.dll
 0002:000000d4       __imp__ImmGetContext@4     0046a0d4     imm32:IMM32.dll
 0002:000000d8       \177IMM32_NULL_THUNK_DATA  0046a0d8     imm32:IMM32.dll
 0002:000000dc       __imp__FreeEnvironmentStringsW@4 0046a0dc     kernel32:KERNEL32.dll
 0002:000000e0       __imp__GetEnvironmentStringsW@0 0046a0e0     kernel32:KERNEL32.dll
 0002:000000e4       __imp__GetCommandLineW@0   0046a0e4     kernel32:KERNEL32.dll
 0002:000000e8       __imp__GetCPInfo@8         0046a0e8     kernel32:KERNEL32.dll
 0002:000000ec       __imp__GetOEMCP@0          0046a0ec     kernel32:KERNEL32.dll
 0002:000000f0       __imp__IsValidCodePage@4   0046a0f0     kernel32:KERNEL32.dll
 0002:000000f4       __imp__FindNextFileA@8     0046a0f4     kernel32:KERNEL32.dll
 0002:000000f8       __imp__FindFirstFileExA@24 0046a0f8     kernel32:KERNEL32.dll
 0002:000000fc       __imp__FindClose@4         0046a0fc     kernel32:KERNEL32.dll
 0002:00000100       __imp__HeapReAlloc@16      0046a100     kernel32:KERNEL32.dll
 0002:00000104       __imp__GetDriveTypeW@4     0046a104     kernel32:KERNEL32.dll
 0002:00000108       __imp__DecodePointer@4     0046a108     kernel32:KERNEL32.dll
 0002:0000010c       __imp__LCMapStringW@24     0046a10c     kernel32:KERNEL32.dll
 0002:00000110       __imp__CompareStringW@24   0046a110     kernel32:KERNEL32.dll
 0002:00000114       __imp__GetTimeZoneInformation@4 0046a114     kernel32:KERNEL32.dll
 0002:00000118       __imp__HeapAlloc@12        0046a118     kernel32:KERNEL32.dll
 0002:0000011c       __imp__HeapFree@12         0046a11c     kernel32:KERNEL32.dll
 0002:00000120       __imp__GetConsoleCP@0      0046a120     kernel32:KERNEL32.dll
 0002:00000124       __imp__ReadConsoleW@20     0046a124     kernel32:KERNEL32.dll
 0002:00000128       __imp__GetConsoleMode@8    0046a128     kernel32:KERNEL32.dll
 0002:0000012c       __imp__GetFileType@4       0046a12c     kernel32:KERNEL32.dll
 0002:00000130       __imp__CreateFileW@28      0046a130     kernel32:KERNEL32.dll
 0002:00000134       __imp__SetFilePointerEx@20 0046a134     kernel32:KERNEL32.dll
 0002:00000138       __imp__GetACP@0            0046a138     kernel32:KERNEL32.dll
 0002:0000013c       __imp__WideCharToMultiByte@32 0046a13c     kernel32:KERNEL32.dll
 0002:00000140       __imp__MultiByteToWideChar@24 0046a140     kernel32:KERNEL32.dll
 0002:00000144       __imp__GetStdHandle@4      0046a144     kernel32:KERNEL32.dll
 0002:00000148       __imp__GetModuleHandleExW@12 0046a148     kernel32:KERNEL32.dll
 0002:0000014c       __imp__FreeLibraryAndExitThread@8 0046a14c     kernel32:KERNEL32.dll
 0002:00000150       __imp__ExitThread@4        0046a150     kernel32:KERNEL32.dll
 0002:00000154       __imp__CreateThread@24     0046a154     kernel32:KERNEL32.dll
 0002:00000158       __imp__GetFullPathNameA@16 0046a158     kernel32:KERNEL32.dll
 0002:0000015c       __imp__LoadLibraryExW@12   0046a15c     kernel32:KERNEL32.dll
 0002:00000160       __imp__TlsFree@4           0046a160     kernel32:KERNEL32.dll
 0002:00000164       __imp__TlsSetValue@8       0046a164     kernel32:KERNEL32.dll
 0002:00000168       __imp__TlsGetValue@4       0046a168     kernel32:KERNEL32.dll
 0002:0000016c       __imp__TlsAlloc@0          0046a16c     kernel32:KERNEL32.dll
 0002:00000170       __imp__InitializeCriticalSectionAndSpinCount@8 0046a170     kernel32:KERNEL32.dll
 0002:00000174       __imp__SetLastError@4      0046a174     kernel32:KERNEL32.dll
 0002:00000178       __imp__RtlUnwind@16        0046a178     kernel32:KERNEL32.dll
 0002:0000017c       __imp__RaiseException@16   0046a17c     kernel32:KERNEL32.dll
 0002:00000180       __imp__GetModuleHandleW@4  0046a180     kernel32:KERNEL32.dll
 0002:00000184       __imp__GetStartupInfoW@4   0046a184     kernel32:KERNEL32.dll
 0002:00000188       __imp__IsDebuggerPresent@0 0046a188     kernel32:KERNEL32.dll
 0002:0000018c       __imp__InitializeSListHead@4 0046a18c     kernel32:KERNEL32.dll
 0002:00000190       __imp__GetSystemTimeAsFileTime@4 0046a190     kernel32:KERNEL32.dll
 0002:00000194       __imp__GetCurrentThreadId@0 0046a194     kernel32:KERNEL32.dll
 0002:00000198       __imp__GetCurrentProcessId@0 0046a198     kernel32:KERNEL32.dll
 0002:0000019c       __imp__QueryPerformanceCounter@4 0046a19c     kernel32:KERNEL32.dll
 0002:000001a0       __imp__IsProcessorFeaturePresent@4 0046a1a0     kernel32:KERNEL32.dll
 0002:000001a4       __imp__TerminateProcess@8  0046a1a4     kernel32:KERNEL32.dll
 0002:000001a8       __imp__GetCurrentProcess@0 0046a1a8     kernel32:KERNEL32.dll
 0002:000001ac       __imp__SetUnhandledExceptionFilter@4 0046a1ac     kernel32:KERNEL32.dll
 0002:000001b0       __imp__UnhandledExceptionFilter@4 0046a1b0     kernel32:KERNEL32.dll
 0002:000001b4       __imp__SetStdHandle@8      0046a1b4     kernel32:KERNEL32.dll
 0002:000001b8       __imp__GetStringTypeW@16   0046a1b8     kernel32:KERNEL32.dll
 0002:000001bc       __imp__GetProcessHeap@0    0046a1bc     kernel32:KERNEL32.dll
 0002:000001c0       __imp__GetFileAttributesExW@12 0046a1c0     kernel32:KERNEL32.dll
 0002:000001c4       __imp__SetEnvironmentVariableA@8 0046a1c4     kernel32:KERNEL32.dll
 0002:000001c8       __imp__GetCurrentDirectoryW@8 0046a1c8     kernel32:KERNEL32.dll
 0002:000001cc       __imp__HeapSize@12         0046a1cc     kernel32:KERNEL32.dll
 0002:000001d0       __imp__FlushFileBuffers@4  0046a1d0     kernel32:KERNEL32.dll
 0002:000001d4       __imp__GetTempFileNameA@16 0046a1d4     kernel32:KERNEL32.dll
 0002:000001d8       __imp__GetTempPathA@8      0046a1d8     kernel32:KERNEL32.dll
 0002:000001dc       __imp__SetFilePointer@16   0046a1dc     kernel32:KERNEL32.dll
 0002:000001e0       __imp__SetEndOfFile@4      0046a1e0     kernel32:KERNEL32.dll
 0002:000001e4       __imp__DeleteFileA@4       0046a1e4     kernel32:KERNEL32.dll
 0002:000001e8       __imp__lstrcpyA@8          0046a1e8     kernel32:KERNEL32.dll
 0002:000001ec       __imp__GlobalLock@4        0046a1ec     kernel32:KERNEL32.dll
 0002:000001f0       __imp__GlobalUnlock@4      0046a1f0     kernel32:KERNEL32.dll
 0002:000001f4       __imp__GlobalSize@4        0046a1f4     kernel32:KERNEL32.dll
 0002:000001f8       __imp__SetThreadPriority@8 0046a1f8     kernel32:KERNEL32.dll
 0002:000001fc       __imp__GetUserDefaultLangID@0 0046a1fc     kernel32:KERNEL32.dll
 0002:00000200       __imp__lstrlenA@4          0046a200     kernel32:KERNEL32.dll
 0002:00000204       __imp__GetVersionExA@4     0046a204     kernel32:KERNEL32.dll
 0002:00000208       __imp__GetCommandLineA@0   0046a208     kernel32:KERNEL32.dll
 0002:0000020c       __imp__FreeLibrary@4       0046a20c     kernel32:KERNEL32.dll
 0002:00000210       __imp__WaitCommEvent@12    0046a210     kernel32:KERNEL32.dll
 0002:00000214       __imp__SetCommTimeouts@8   0046a214     kernel32:KERNEL32.dll
 0002:00000218       __imp__SetCommState@8      0046a218     kernel32:KERNEL32.dll
 0002:0000021c       __imp__SetCommMask@8       0046a21c     kernel32:KERNEL32.dll
 0002:00000220       __imp__GetCommState@8      0046a220     kernel32:KERNEL32.dll
 0002:00000224       __imp__GetCommModemStatus@8 0046a224     kernel32:KERNEL32.dll
 0002:00000228       __imp__GetCommProperties@8 0046a228     kernel32:KERNEL32.dll
 0002:0000022c       __imp__EscapeCommFunction@8 0046a22c     kernel32:KERNEL32.dll
 0002:00000230       __imp__ClearCommError@12   0046a230     kernel32:KERNEL32.dll
 0002:00000234       __imp__GetExitCodeThread@8 0046a234     kernel32:KERNEL32.dll
 0002:00000238       __imp__CreateEventA@16     0046a238     kernel32:KERNEL32.dll
 0002:0000023c       __imp__WaitForSingleObject@8 0046a23c     kernel32:KERNEL32.dll
 0002:00000240       __imp__DeleteCriticalSection@4 0046a240     kernel32:KERNEL32.dll
 0002:00000244       __imp__LeaveCriticalSection@4 0046a244     kernel32:KERNEL32.dll
 0002:00000248       __imp__EnterCriticalSection@4 0046a248     kernel32:KERNEL32.dll
 0002:0000024c       __imp__InitializeCriticalSection@4 0046a24c     kernel32:KERNEL32.dll
 0002:00000250       __imp__GetOverlappedResult@16 0046a250     kernel32:KERNEL32.dll
 0002:00000254       __imp__GetLastError@0      0046a254     kernel32:KERNEL32.dll
 0002:00000258       __imp__CloseHandle@4       0046a258     kernel32:KERNEL32.dll
 0002:0000025c       __imp__WriteFile@20        0046a25c     kernel32:KERNEL32.dll
 0002:00000260       __imp__ReadFile@20         0046a260     kernel32:KERNEL32.dll
 0002:00000264       __imp__CreateFileA@28      0046a264     kernel32:KERNEL32.dll
 0002:00000268       __imp__Sleep@4             0046a268     kernel32:KERNEL32.dll
 0002:0000026c       __imp__WritePrivateProfileStringA@16 0046a26c     kernel32:KERNEL32.dll
 0002:00000270       __imp__GetPrivateProfileStringA@24 0046a270     kernel32:KERNEL32.dll
 0002:00000274       __imp__GetPrivateProfileIntA@16 0046a274     kernel32:KERNEL32.dll
 0002:00000278       __imp__GetModuleFileNameA@12 0046a278     kernel32:KERNEL32.dll
 0002:0000027c       __imp__LoadLibraryA@4      0046a27c     kernel32:KERNEL32.dll
 0002:00000280       __imp__GetProcAddress@8    0046a280     kernel32:KERNEL32.dll
 0002:00000284       __imp__ExitProcess@4       0046a284     kernel32:KERNEL32.dll
 0002:00000288       __imp__WriteConsoleW@20    0046a288     kernel32:KERNEL32.dll
 0002:0000028c       \177KERNEL32_NULL_THUNK_DATA 0046a28c     kernel32:KERNEL32.dll
 0002:00000290       __imp__ShellExecuteA@24    0046a290     shell32:SHELL32.dll
 0002:00000294       __imp__DragQueryFileA@16   0046a294     shell32:SHELL32.dll
 0002:00000298       __imp__DragQueryPoint@8    0046a298     shell32:SHELL32.dll
 0002:0000029c       __imp__DragFinish@4        0046a29c     shell32:SHELL32.dll
 0002:000002a0       __imp__DragAcceptFiles@8   0046a2a0     shell32:SHELL32.dll
 0002:000002a4       \177SHELL32_NULL_THUNK_DATA 0046a2a4     shell32:SHELL32.dll
 0002:000002a8       __imp__TileWindows@20      0046a2a8     user32:USER32.dll
 0002:000002ac       __imp__LoadStringA@16      0046a2ac     user32:USER32.dll
 0002:000002b0       __imp__SendMessageA@16     0046a2b0     user32:USER32.dll
 0002:000002b4       __imp__PostMessageA@16     0046a2b4     user32:USER32.dll
 0002:000002b8       __imp__ShowWindow@8        0046a2b8     user32:USER32.dll
 0002:000002bc       __imp__MoveWindow@24       0046a2bc     user32:USER32.dll
 0002:000002c0       __imp__IsWindowVisible@4   0046a2c0     user32:USER32.dll
 0002:000002c4       __imp__SetTimer@16         0046a2c4     user32:USER32.dll
 0002:000002c8       __imp__KillTimer@8         0046a2c8     user32:USER32.dll
 0002:000002cc       __imp__GetSystemMetrics@4  0046a2cc     user32:USER32.dll
 0002:000002d0       __imp__DrawTextA@20        0046a2d0     user32:USER32.dll
 0002:000002d4       __imp__GetDC@4             0046a2d4     user32:USER32.dll
 0002:000002d8       __imp__ReleaseDC@8         0046a2d8     user32:USER32.dll
 0002:000002dc       __imp__SetWindowTextA@8    0046a2dc     user32:USER32.dll
 0002:000002e0       __imp__GetClientRect@8     0046a2e0     user32:USER32.dll
 0002:000002e4       __imp__GetKeyboardType@4   0046a2e4     user32:USER32.dll
 0002:000002e8       __imp__GetClipboardData@4  0046a2e8     user32:USER32.dll
 0002:000002ec       __imp__CloseClipboard@0    0046a2ec     user32:USER32.dll
 0002:000002f0       __imp__OpenClipboard@4     0046a2f0     user32:USER32.dll
 0002:000002f4       __imp__SetClassLongA@12    0046a2f4     user32:USER32.dll
 0002:000002f8       __imp__GetClassLongA@8     0046a2f8     user32:USER32.dll
 0002:000002fc       __imp__FrameRect@12        0046a2fc     user32:USER32.dll
 0002:00000300       __imp__SetCursorPos@8      0046a300     user32:USER32.dll
 0002:00000304       __imp__DrawMenuBar@4       0046a304     user32:USER32.dll
 0002:00000308       __imp__GetWindowRect@8     0046a308     user32:USER32.dll
 0002:0000030c       __imp__GetSysColor@4       0046a30c     user32:USER32.dll
 0002:00000310       __imp__FillRect@12         0046a310     user32:USER32.dll
 0002:00000314       __imp__LoadIconA@8         0046a314     user32:USER32.dll
 0002:00000318       __imp__SetMenu@8           0046a318     user32:USER32.dll
 0002:0000031c       __imp__DrawIcon@16         0046a31c     user32:USER32.dll
 0002:00000320       __imp__IsIconic@4          0046a320     user32:USER32.dll
 0002:00000324       __imp__SetScrollInfo@16    0046a324     user32:USER32.dll
 0002:00000328       __imp__ScreenToClient@8    0046a328     user32:USER32.dll
 0002:0000032c       __imp__TrackPopupMenu@28   0046a32c     user32:USER32.dll
 0002:00000330       __imp__DestroyMenu@4       0046a330     user32:USER32.dll
 0002:00000334       __imp__SystemParametersInfoA@16 0046a334     user32:USER32.dll
 0002:00000338       __imp__IsDialogMessageA@8  0046a338     user32:USER32.dll
 0002:0000033c       __imp__FindWindowA@8       0046a33c     user32:USER32.dll
 0002:00000340       __imp__ClipCursor@4        0046a340     user32:USER32.dll
 0002:00000344       __imp__AdjustWindowRect@12 0046a344     user32:USER32.dll
 0002:00000348       __imp__LoadMenuA@8         0046a348     user32:USER32.dll
 0002:0000034c       __imp__TranslateAcceleratorA@12 0046a34c     user32:USER32.dll
 0002:00000350       __imp__LoadAcceleratorsA@8 0046a350     user32:USER32.dll
 0002:00000354       __imp__CreateWindowExA@48  0046a354     user32:USER32.dll
 0002:00000358       __imp__RegisterClassExA@4  0046a358     user32:USER32.dll
 0002:0000035c       __imp__PostQuitMessage@4   0046a35c     user32:USER32.dll
 0002:00000360       __imp__DefWindowProcA@16   0046a360     user32:USER32.dll
 0002:00000364       __imp__PeekMessageA@20     0046a364     user32:USER32.dll
 0002:00000368       __imp__DispatchMessageA@4  0046a368     user32:USER32.dll
 0002:0000036c       __imp__TranslateMessage@4  0046a36c     user32:USER32.dll
 0002:00000370       __imp__GetMessageA@16      0046a370     user32:USER32.dll
 0002:00000374       __imp__ShowCursor@4        0046a374     user32:USER32.dll
 0002:00000378       __imp__DestroyIcon@4       0046a378     user32:USER32.dll
 0002:0000037c       __imp__BeginPaint@8        0046a37c     user32:USER32.dll
 0002:00000380       __imp__CascadeWindows@20   0046a380     user32:USER32.dll
 0002:00000384       __imp__EndPaint@8          0046a384     user32:USER32.dll
 0002:00000388       __imp__ArrangeIconicWindows@4 0046a388     user32:USER32.dll
 0002:0000038c       __imp__LoadCursorA@8       0046a38c     user32:USER32.dll
 0002:00000390       __imp__CheckMenuRadioItem@20 0046a390     user32:USER32.dll
 0002:00000394       __imp__WindowFromPoint@8   0046a394     user32:USER32.dll
 0002:00000398       __imp__ClientToScreen@8    0046a398     user32:USER32.dll
 0002:0000039c       __imp__SetCursor@4         0046a39c     user32:USER32.dll
 0002:000003a0       __imp__SetForegroundWindow@4 0046a3a0     user32:USER32.dll
 0002:000003a4       __imp__UpdateWindow@4      0046a3a4     user32:USER32.dll
 0002:000003a8       __imp__InsertMenuItemA@16  0046a3a8     user32:USER32.dll
 0002:000003ac       __imp__DeleteMenu@12       0046a3ac     user32:USER32.dll
 0002:000003b0       __imp__GetMenuItemCount@4  0046a3b0     user32:USER32.dll
 0002:000003b4       __imp__GetSubMenu@8        0046a3b4     user32:USER32.dll
 0002:000003b8       __imp__EnableMenuItem@12   0046a3b8     user32:USER32.dll
 0002:000003bc       __imp__CheckMenuItem@12    0046a3bc     user32:USER32.dll
 0002:000003c0       __imp__GetMenu@4           0046a3c0     user32:USER32.dll
 0002:000003c4       __imp__GetAsyncKeyState@4  0046a3c4     user32:USER32.dll
 0002:000003c8       __imp__CreateDialogParamA@20 0046a3c8     user32:USER32.dll
 0002:000003cc       __imp__SetWindowPos@28     0046a3cc     user32:USER32.dll
 0002:000003d0       __imp__GetParent@4         0046a3d0     user32:USER32.dll
 0002:000003d4       __imp__SetWindowLongA@12   0046a3d4     user32:USER32.dll
 0002:000003d8       __imp__GetWindowLongA@8    0046a3d8     user32:USER32.dll
 0002:000003dc       __imp__PtInRect@12         0046a3dc     user32:USER32.dll
 0002:000003e0       __imp__GetCursorPos@4      0046a3e0     user32:USER32.dll
 0002:000003e4       __imp__MessageBoxA@16      0046a3e4     user32:USER32.dll
 0002:000003e8       __imp__GetWindowTextA@12   0046a3e8     user32:USER32.dll
 0002:000003ec       __imp__InvalidateRect@12   0046a3ec     user32:USER32.dll
 0002:000003f0       __imp__EnableWindow@8      0046a3f0     user32:USER32.dll
 0002:000003f4       __imp__SendDlgItemMessageA@20 0046a3f4     user32:USER32.dll
 0002:000003f8       __imp__IsDlgButtonChecked@8 0046a3f8     user32:USER32.dll
 0002:000003fc       __imp__CheckDlgButton@12   0046a3fc     user32:USER32.dll
 0002:00000400       __imp__GetDlgItemInt@16    0046a400     user32:USER32.dll
 0002:00000404       __imp__GetDlgItem@8        0046a404     user32:USER32.dll
 0002:00000408       __imp__EndDialog@8         0046a408     user32:USER32.dll
 0002:0000040c       __imp__DialogBoxParamA@20  0046a40c     user32:USER32.dll
 0002:00000410       __imp__DestroyWindow@4     0046a410     user32:USER32.dll
 0002:00000414       \177USER32_NULL_THUNK_DATA 0046a414     user32:USER32.dll
 0002:00000418       __imp__midiOutUnprepareHeader@12 0046a418     winmm:WINMM.dll
 0002:0000041c       __imp__midiOutShortMsg@8   0046a41c     winmm:WINMM.dll
 0002:00000420       __imp__midiOutLongMsg@12   0046a420     winmm:WINMM.dll
 0002:00000424       __imp__midiOutPrepareHeader@12 0046a424     winmm:WINMM.dll
 0002:00000428       __imp__midiOutGetNumDevs@0 0046a428     winmm:WINMM.dll
 0002:0000042c       __imp__midiOutGetDevCapsA@12 0046a42c     winmm:WINMM.dll
 0002:00000430       __imp__timeBeginPeriod@4   0046a430     winmm:WINMM.dll
 0002:00000434       __imp__timeEndPeriod@4     0046a434     winmm:WINMM.dll
 0002:00000438       __imp__midiOutOpen@20      0046a438     winmm:WINMM.dll
 0002:0000043c       __imp__midiOutClose@4      0046a43c     winmm:WINMM.dll
 0002:00000440       __imp__joyGetNumDevs@0     0046a440     winmm:WINMM.dll
 0002:00000444       __imp__joyGetPosEx@8       0046a444     winmm:WINMM.dll
 0002:00000448       __imp__timeGetDevCaps@8    0046a448     winmm:WINMM.dll
 0002:0000044c       __imp__timeGetTime@0       0046a44c     winmm:WINMM.dll
 0002:00000450       __imp__midiOutReset@4      0046a450     winmm:WINMM.dll
 0002:00000454       \177WINMM_NULL_THUNK_DATA  0046a454     winmm:WINMM.dll
 0002:00000458       __imp__CoCreateInstance@20 0046a458     ole32:ole32.dll
 0002:0000045c       __imp__CoInitialize@4      0046a45c     ole32:ole32.dll
 0002:00000460       __imp__CoUninitialize@0    0046a460     ole32:ole32.dll
 0002:00000464       \177ole32_NULL_THUNK_DATA  0046a464     ole32:ole32.dll
 0002:00000468       ___guard_check_icall_fptr  0046a468     LIBCMT:guard_support.obj
 0002:0000046c       ___xc_a                    0046a46c     LIBCMT:initializers.obj
 0002:00000474       ___xc_z                    0046a474     LIBCMT:initializers.obj
 0002:00000478       ___xi_a                    0046a478     LIBCMT:initializers.obj
 0002:00000484       ___acrt_timeset_initializer 0046a484     libucrt:timeset_initializer.obj
 0002:00000488       ___acrt_stdio_initializer  0046a488     libucrt:stdio_initializer.obj
 0002:0000048c       ___acrt_tran_sse2_initializer 0046a48c     libucrt:sse2_initializer.obj
 0002:00000490       ___acrt_multibyte_initializer 0046a490     libucrt:multibyte_initializer.obj
 0002:00000494       ___xi_z                    0046a494     LIBCMT:initializers.obj
 0002:00000498       ___xp_a                    0046a498     LIBCMT:initializers.obj
 0002:0000049c       ___acrt_locale_terminator  0046a49c     libucrt:locale_initializer.obj
 0002:000004a0       ___dcrt_console_output_terminator 0046a4a0     libucrt:console_output_initializer.obj
 0002:000004a4       ___acrt_stdio_terminator   0046a4a4     libucrt:stdio_initializer.obj
 0002:000004a8       ___xp_z                    0046a4a8     LIBCMT:initializers.obj
 0002:000004ac       ___xt_a                    0046a4ac     LIBCMT:initializers.obj
 0002:000004b0       ___xt_z                    0046a4b0     LIBCMT:initializers.obj
 0002:000004c0       ??_C@_03GMBJJJAE@NEG?$AA@  0046a4c0     disasm.obj
 0002:000004c4       ??_C@_03LPBIIGO@NGC?$AA@   0046a4c4     disasm.obj
 0002:000004c8       ??_C@_03GJALCMIF@COM?$AA@  0046a4c8     disasm.obj
 0002:000004cc       ??_C@_03OJAOGIFJ@LSR?$AA@  0046a4cc     disasm.obj
 0002:000004d0       ??_C@_03EMPEBCOB@ROR?$AA@  0046a4d0     disasm.obj
 0002:000004d4       ??_C@_03BLGELAIE@ASR?$AA@  0046a4d4     disasm.obj
 0002:000004d8       ??_C@_03DNEPFHIG@LSL?$AA@  0046a4d8     disasm.obj
 0002:000004dc       ??_C@_03JILFCNDO@ROL?$AA@  0046a4dc     disasm.obj
 0002:000004e0       ??_C@_03GHMILMGE@DEC?$AA@  0046a4e0     disasm.obj
 0002:000004e4       ??_C@_03GDEFMANG@DCC?$AA@  0046a4e4     disasm.obj
 0002:000004e8       ??_C@_03JJPHILFI@INC?$AA@  0046a4e8     disasm.obj
 0002:000004ec       ??_C@_03CKPJLAKP@TST?$AA@  0046a4ec     disasm.obj
 0002:000004f0       ??_C@_03PFMOLPFC@CLC?$AA@  0046a4f0     disasm.obj
 0002:000004f4       ??_C@_03KGBHJMEC@CLR?$AA@  0046a4f4     disasm.obj
 0002:000004f8       ??_C@_03GEANJIEE@NOP?$AA@  0046a4f8     disasm.obj
 0002:000004fc       ??_C@_04FBDLEBNN@SYNC?$AA@ 0046a4fc     disasm.obj
 0002:00000504       ??_C@_03FEOEILCL@HCF?$AA@  0046a504     disasm.obj
 0002:00000508       ??_C@_04BDJJKJIG@LBRA?$AA@ 0046a508     disasm.obj
 0002:00000510       ??_C@_04HDLEICCD@LBSR?$AA@ 0046a510     disasm.obj
 0002:00000518       ??_C@_05INMAPKFE@ASLCC?$AA@ 0046a518     disasm.obj
 0002:00000520       ??_C@_03FCPHHGDK@DAA?$AA@  0046a520     disasm.obj
 0002:00000524       ??_C@_04CLPCCPAM@ORCC?$AA@ 0046a524     disasm.obj
 0002:0000052c       ??_C@_05NAAEIBII@ANDCC?$AA@ 0046a52c     disasm.obj
 0002:00000534       ??_C@_03DDABINI@SEX?$AA@   0046a534     disasm.obj
 0002:00000538       ??_C@_03KPOGCOCG@EXG?$AA@  0046a538     disasm.obj
 0002:0000053c       ??_C@_03GGEOHGLC@TFR?$AA@  0046a53c     disasm.obj
 0002:00000540       ??_C@_03GJPMDEMP@BRA?$AA@  0046a540     disasm.obj
 0002:00000544       ??_C@_03OOGECIAA@BRN?$AA@  0046a544     disasm.obj
 0002:00000548       ??_C@_03LAJEJIGB@BHI?$AA@  0046a548     disasm.obj
 0002:0000054c       ??_C@_03HLAMKGG@BLS?$AA@   0046a54c     disasm.obj
 0002:00000550       ??_C@_03EGCOJPAK@BCC?$AA@  0046a550     disasm.obj
 0002:00000554       ??_C@_03MOMINFL@BCS?$AA@   0046a554     disasm.obj
 0002:00000558       ??_C@_03BIKMKLNP@BNE?$AA@  0046a558     disasm.obj
 0002:0000055c       ??_C@_03DKFHJDGL@BEQ?$AA@  0046a55c     disasm.obj
 0002:00000560       ??_C@_03FMMDPOJB@BVC?$AA@  0046a560     disasm.obj
 0002:00000564       ??_C@_03BGABOMMA@BVS?$AA@  0046a564     disasm.obj
 0002:00000568       ??_C@_03NPNGJOOM@BPL?$AA@  0046a568     disasm.obj
 0002:0000056c       ??_C@_03LGFPFKIK@BMI?$AA@  0046a56c     disasm.obj
 0002:00000570       ??_C@_03BHHNJAFA@BGE?$AA@  0046a570     disasm.obj
 0002:00000574       ??_C@_03EIPBFMKB@BLT?$AA@  0046a574     disasm.obj
 0002:00000578       ??_C@_03EEKELDEA@BGT?$AA@  0046a578     disasm.obj
 0002:0000057c       ??_C@_03BLCIHPLB@BLE?$AA@  0046a57c     disasm.obj
 0002:00000580       ??_C@_04LCOCFAO@LEAX?$AA@  0046a580     disasm.obj
 0002:00000588       ??_C@_04BCDFBEEP@LEAY?$AA@ 0046a588     disasm.obj
 0002:00000590       ??_C@_04OINKPMMF@LEAS?$AA@ 0046a590     disasm.obj
 0002:00000598       ??_C@_04LOIAFLED@LEAU?$AA@ 0046a598     disasm.obj
 0002:000005a0       ??_C@_04DHGJLFIK@PSHS?$AA@ 0046a5a0     disasm.obj
 0002:000005a8       ??_C@_04BFALECIK@PULS?$AA@ 0046a5a8     disasm.obj
 0002:000005b0       ??_C@_04GBDDBCAM@PSHU?$AA@ 0046a5b0     disasm.obj
 0002:000005b8       ??_C@_04EDFBOFAM@PULU?$AA@ 0046a5b8     disasm.obj
 0002:000005c0       ??_C@_03EFJMGPDB@RTS?$AA@  0046a5c0     disasm.obj
 0002:000005c4       ??_C@_03PMGPJBEJ@ABX?$AA@  0046a5c4     disasm.obj
 0002:000005c8       ??_C@_03PFLBJFOK@RTI?$AA@  0046a5c8     disasm.obj
 0002:000005cc       ??_C@_04CALHAONL@CWAI?$AA@ 0046a5cc     disasm.obj
 0002:000005d4       ??_C@_03IBHOEMFB@MUL?$AA@  0046a5d4     disasm.obj
 0002:000005d8       ??_C@_03PJCOPHD@RST?$AA@   0046a5d8     disasm.obj
 0002:000005dc       ??_C@_03EPELEMNG@SWI?$AA@  0046a5dc     disasm.obj
 0002:000005e0       ??_C@_03OIOLNLHN@JMP?$AA@  0046a5e0     disasm.obj
 0002:000005e4       ??_C@_04CAMBGFID@SUBA?$AA@ 0046a5e4     disasm.obj
 0002:000005ec       ??_C@_04MKCOPKGP@CMPA?$AA@ 0046a5ec     disasm.obj
 0002:000005f4       ??_C@_04OMMNGAJC@SBCA?$AA@ 0046a5f4     disasm.obj
 0002:000005fc       ??_C@_04FNLGJBMG@SUBD?$AA@ 0046a5fc     disasm.obj
 0002:00000604       ??_C@_04LJHEANEN@ANDA?$AA@ 0046a604     disasm.obj
 0002:0000060c       ??_C@_04HPCFOMFE@BITA?$AA@ 0046a60c     disasm.obj
 0002:00000614       ??_C@_03JBIIJMDO@LDA?$AA@  0046a614     disasm.obj
 0002:00000618       ??_C@_03IFNEHIIH@STA?$AA@  0046a618     disasm.obj
 0002:0000061c       ??_C@_04OMODBDCK@EORA?$AA@ 0046a61c     disasm.obj
 0002:00000624       ??_C@_04NDIGPLKM@ADCA?$AA@ 0046a624     disasm.obj
 0002:0000062c       ??_C@_03JLJGOMBC@ORA?$AA@  0046a62c     disasm.obj
 0002:00000630       ??_C@_04NGMJONCJ@ADDA?$AA@ 0046a630     disasm.obj
 0002:00000638       ??_C@_04FBCOFDHH@CMPX?$AA@ 0046a638     disasm.obj
 0002:00000640       ??_C@_03MMGFDHIF@JSR?$AA@  0046a640     disasm.obj
 0002:00000644       ??_C@_03KIIDFCG@LDX?$AA@   0046a644     disasm.obj
 0002:00000648       ??_C@_03BONENBJP@STX?$AA@  0046a648     disasm.obj
 0002:0000064c       ??_C@_04LOMDGEA@SUBB?$AA@  0046a64c     disasm.obj
 0002:00000654       ??_C@_04OBADKJKM@CMPB?$AA@ 0046a654     disasm.obj
 0002:0000065c       ??_C@_04MHOADDFB@SBCB?$AA@ 0046a65c     disasm.obj
 0002:00000664       ??_C@_04KLLOBJGM@ADDD?$AA@ 0046a664     disasm.obj
 0002:0000066c       ??_C@_04JCFJFOIO@ANDB?$AA@ 0046a66c     disasm.obj
 0002:00000674       ??_C@_04FEAILPJH@BITB?$AA@ 0046a674     disasm.obj
 0002:0000067c       ??_C@_03LKKFMPPN@LDB?$AA@  0046a67c     disasm.obj
 0002:00000680       ??_C@_03KOPJCLEE@STB?$AA@  0046a680     disasm.obj
 0002:00000684       ??_C@_04MHMOEAOJ@EORB?$AA@ 0046a684     disasm.obj
 0002:0000068c       ??_C@_04PIKLKIGP@ADCB?$AA@ 0046a68c     disasm.obj
 0002:00000694       ??_C@_03LALLLPNB@ORB?$AA@  0046a694     disasm.obj
 0002:00000698       ??_C@_04PNOELOOK@ADDB?$AA@ 0046a698     disasm.obj
 0002:000006a0       ??_C@_03OMPPGIHL@LDD?$AA@  0046a6a0     disasm.obj
 0002:000006a4       ??_C@_03PIKDIMMC@STD?$AA@  0046a6a4     disasm.obj
 0002:000006a8       ??_C@_03LPCGELGL@LDU?$AA@  0046a6a8     disasm.obj
 0002:000006ac       ??_C@_03KLHKKPNC@STU?$AA@  0046a6ac     disasm.obj
 0002:000006b0       ??_C@_01CKDDGHAB@D?$AA@    0046a6b0     disasm.obj
 0002:000006b4       ??_C@_01MMEEDKFM@X?$AA@    0046a6b4     disasm.obj
 0002:000006b8       ??_C@_01NFFPALBN@Y?$AA@    0046a6b8     disasm.obj
 0002:000006bc       ??_C@_01HJOKEEBB@U?$AA@    0046a6bc     disasm.obj
 0002:000006c0       ??_C@_01CPLAODJH@S?$AA@    0046a6c0     disasm.obj
 0002:000006c4       ??_C@_02LHFGBEJL@PC?$AA@   0046a6c4     disasm.obj
 0002:000006c8       ??_C@_01FHEEJDEE@A?$AA@    0046a6c8     disasm.obj
 0002:000006cc       ??_C@_01HMGJMAIH@B?$AA@    0046a6cc     disasm.obj
 0002:000006d0       ??_C@_02KJDGAJLC@CC?$AA@   0046a6d0     disasm.obj
 0002:000006d4       ??_C@_02MNJGFOKF@DP?$AA@   0046a6d4     disasm.obj
 0002:000006d8       ??_C@_01EPMOAMKG@$?$AA@    0046a6d8     disasm.obj
 0002:000006dc       ??_C@_01OGPIMHDM@?$DP?$AA@ 0046a6dc     disasm.obj
 0002:000006e0       ??_C@_01MNNFJEPP@?$DM?$AA@ 0046a6e0     disasm.obj
 0002:000006e4       ??_C@_01IPJKGB@?$CD?$AA@   0046a6e4     disasm.obj
 0002:000006e8       ??_C@_01JOAMLHOP@?9?$AA@   0046a6e8     disasm.obj
 0002:000006ec       ??_C@_01IHBHIGKO@?0?$AA@   0046a6ec     disasm.obj
 0002:000006f0       ??_C@_01OHGJGJJP@?$FL?$AA@ 0046a6f0     disasm.obj
 0002:000006f4       ??_C@_01LBDDMOBJ@?$FN?$AA@ 0046a6f4     disasm.obj
 0002:000006f8       ??_C@_01MIFGBAGJ@?$CL?$AA@ 0046a6f8     disasm.obj
 0002:000006fc       ??_C@_02EKJBBEON@B?0?$AA@  0046a6fc     disasm.obj
 0002:00000700       ??_C@_02EINHKKLE@A?0?$AA@  0046a700     disasm.obj
 0002:00000704       ??_C@_02EOBMGIFP@D?0?$AA@  0046a704     disasm.obj
 0002:00000708       ??_C@_03OPOHCDAO@PCR?$AA@  0046a708     disasm.obj
 0002:0000070c       ??_C@_04ICIPGINM@SWI2?$AA@ 0046a70c     disasm.obj
 0002:00000714       ??_C@_03OJHMOMON@LDS?$AA@  0046a714     disasm.obj
 0002:00000718       ??_C@_03PNCAAIFE@STS?$AA@  0046a718     disasm.obj
 0002:0000071c       ??_C@_04LHFJAOCK@CMPD?$AA@ 0046a71c     disasm.obj
 0002:00000724       ??_C@_04EIDFGCDG@CMPY?$AA@ 0046a724     disasm.obj
 0002:0000072c       ??_C@_03BDJDAEGH@LDY?$AA@  0046a72c     disasm.obj
 0002:00000730       ??_C@_03HMPOANO@STY?$AA@   0046a730     disasm.obj
 0002:00000734       ??_C@_04JLJEFJJN@SWI3?$AA@ 0046a734     disasm.obj
 0002:0000073c       ??_C@_04OEIACNDK@CMPU?$AA@ 0046a73c     disasm.obj
 0002:00000744       ??_C@_04LCNKIKLM@CMPS?$AA@ 0046a744     disasm.obj
 0002:0000074c       ??_C@_04PBMMHMLL@FLAG?$AA@ 0046a74c     disasm.obj
 0002:00000754       ??_C@_03JNBBPGK@BSR?$AA@   0046a754     disasm.obj
 0002:00000758       ??_C@_01CLKCMJKC@?5?$AA@   0046a758     disasm.obj
 0002:00000770       _truecolorbrightness       0046a770     display.obj
 0002:000007c0       __xmm@4e4e4e4e4e4e4e4e4e4e4e4e4e4e4e4e 0046a7c0     fdc.obj
 0002:000007d0       ??_C@_0L@EADLHCLG@DICROM?4ROM?$AA@ 0046a7d0     jcard.obj
 0002:000007dc       ??_C@_0M@NFBJKPGK@USERDIC?4DAT?$AA@ 0046a7dc     jcard.obj
 0002:000007e8       ??_C@_0L@HPCKBJND@EXTSUB?4ROM?$AA@ 0046a7e8     jcard.obj
 0002:00000928       ??_C@_09GGBJHACP@KANJI?4ROM?$AA@ 0046a928     kanji.obj
 0002:00000934       ??_C@_0L@IBDFPDMN@KANJI1?4ROM?$AA@ 0046a934     kanji.obj
 0002:00000940       ??_C@_0L@HKBIBGD@KANJI2?4ROM?$AA@ 0046a940     kanji.obj
 0002:00000a98       ??_C@_0N@BNGIEAMJ@FBASIC30?4ROM?$AA@ 0046aa98     mainmem.obj
 0002:00000aa8       ??_C@_0N@DANGMLCF@INITIATE?4ROM?$AA@ 0046aaa8     mainmem.obj
 0002:00000ab8       ??_C@_0N@MAOPDHCA@BOOT_MMR?4ROM?$AA@ 0046aab8     mainmem.obj
 0002:00000ad8       __real@3fee147b            0046aad8     schedule.obj
 0002:00000adc       ??_C@_0N@EEPJBNNG@SUBSYS_C?4ROM?$AA@ 0046aadc     submem.obj
 0002:00000aec       ??_C@_0N@JDBLMNN@SUBSYS_A?4ROM?$AA@ 0046aaec     submem.obj
 0002:00000afc       ??_C@_0N@IPKFMOHD@SUBSYS_B?4ROM?$AA@ 0046aafc     submem.obj
 0002:00000b0c       ??_C@_0N@HPBGKJHK@SUBSYSCG?4ROM?$AA@ 0046ab0c     submem.obj
 0002:00000b1c       ??_C@_0BB@BLCLBJNK@XM7?5VM?5STATE?5921?$AA@ 0046ab1c     system.obj
 0002:00000b30       ??_C@_0O@DDALJFN@XM7?5VM?5STATE?5?$AA@ 0046ab30     system.obj
 0002:00000b40       ??_C@_0M@KICDGNMA@xm7_lpr?4$$$?$AA@ 0046ab40     tapelp.obj
 0002:00000b4c       ??_C@_0BB@LBNAKCAN@XM7?5TAPE?5IMAGE?50?$AA@ 0046ab4c     tapelp.obj
 0002:00000b6c       ??_C@_07MCAEODGB@Default?$AA@ 0046ab6c     tools.obj
 0002:00000b78       __real@3fe5930b9707ea0f    0046ab78     tools.obj
 0002:00000b80       __real@3fea466cad9d15b0    0046ab80     tools.obj
 0002:00000b88       __real@3ff0000000000000    0046ab88     tools.obj
 0002:00000b90       __real@403f000000000000    0046ab90     tools.obj
 0002:00000b98       __real@406fe00000000000    0046ab98     tools.obj
 0002:00000ba0       ??_C@_03JMPJGNJD@CAP?$AA@  0046aba0     w32_bar.obj
 0002:00000ba4       ??_C@_04CDAKCPDH@?$IC?$KJ?$IC?H?$AA@ 0046aba4     w32_bar.obj
 0002:00000bac       ??_C@_03NDDFJJAJ@INS?$AA@  0046abac     w32_bar.obj
 0002:00000bb0       ??_C@_00CNPNBAHC@?$AA@     0046abb0     w32_bar.obj
 0002:00000bb4       ??_C@_08KHHCPDOO@?$CI?$CF3d?$CF?$CF?$CJ?5?$AA@ 0046abb4     w32_bar.obj
 0002:00000bc0       ??_C@_07IKNPMNLA@?9?5?$CFs?$CFs?5?$AA@ 0046abc0     w32_bar.obj
 0002:00000bc8       ??_C@_09MMDEHLDG@?9?5?$CI?$CFs?$CFs?$CJ?5?$AA@ 0046abc8     w32_bar.obj
 0002:00000bd4       ??_C@_07HCMOMGOK@?$CI?$CFs?$CFs?$CJ?5?$AA@ 0046abd4     w32_bar.obj
 0002:00000bdc       ??_C@_08GCLODDEC@?$CFs?5?$CD?$CF02d?$AA@ 0046abdc     w32_bar.obj
 0002:00000be8       ??_C@_04OCCELDNI@?$CF04d?$AA@ 0046abe8     w32_bar.obj
 0002:00000bf0       ??_C@_0M@MFIIAFB@uxtheme?4dll?$AA@ 0046abf0     w32_bar.obj
 0002:00000bfc       ??_C@_0M@IHIFIOMA@IsAppThemed?$AA@ 0046abfc     w32_bar.obj
 0002:00000c08       ??_C@_0N@GIMHHLKF@DiskImageDir?$AA@ 0046ac08     w32_cfg.obj
 0002:00000c18       ??_C@_0N@FNOHPNDD@TapeImageDir?$AA@ 0046ac18     w32_cfg.obj
 0002:00000c28       ??_C@_0N@IKMKCBEJ@StateFileDir?$AA@ 0046ac28     w32_cfg.obj
 0002:00000c38       ??_C@_0L@JCALPCKK@BMPFileDir?$AA@ 0046ac38     w32_cfg.obj
 0002:00000c44       ??_C@_0L@CEIMADCH@WAVFileDir?$AA@ 0046ac44     w32_cfg.obj
 0002:00000c50       ??_C@_0O@INENMPKC@LptLogFileDir?$AA@ 0046ac50     w32_cfg.obj
 0002:00000c60       ??_C@_01ICJEACDI@?$DL?$AA@ 0046ac60     w32_cfg.obj
 0002:00000df8       ??_C@_0L@BOHNMBC@DIK_ESCAPE?$AA@ 0046adf8     w32_cfg.obj
 0002:00000e04       ??_C@_05GCLPJNBN@DIK_1?$AA@ 0046ae04     w32_cfg.obj
 0002:00000e0c       ??_C@_05EJJCMONO@DIK_2?$AA@ 0046ae0c     w32_cfg.obj
 0002:00000e14       ??_C@_05FAIJPPJP@DIK_3?$AA@ 0046ae14     w32_cfg.obj
 0002:00000e1c       ??_C@_05BPMIGJFI@DIK_4?$AA@ 0046ae1c     w32_cfg.obj
 0002:00000e24       ??_C@_05GNDFIBJ@DIK_5?$AA@ 0046ae24     w32_cfg.obj
 0002:00000e2c       ??_C@_05CNPOALNK@DIK_6?$AA@ 0046ae2c     w32_cfg.obj
 0002:00000e34       ??_C@_05DEOFDKJL@DIK_7?$AA@ 0046ae34     w32_cfg.obj
 0002:00000e3c       ??_C@_05LDHNCGFE@DIK_8?$AA@ 0046ae3c     w32_cfg.obj
 0002:00000e44       ??_C@_05KKGGBHBF@DIK_9?$AA@ 0046ae44     w32_cfg.obj
 0002:00000e4c       ??_C@_05HLKEKMFM@DIK_0?$AA@ 0046ae4c     w32_cfg.obj
 0002:00000e54       ??_C@_09DOHACMKC@DIK_MINUS?$AA@ 0046ae54     w32_cfg.obj
 0002:00000e60       ??_C@_0L@KKCLPAPI@DIK_EQUALS?$AA@ 0046ae60     w32_cfg.obj
 0002:00000e6c       ??_C@_08HHEEGKBL@DIK_BACK?$AA@ 0046ae6c     w32_cfg.obj
 0002:00000e78       ??_C@_07MODNCMBL@DIK_TAB?$AA@ 0046ae78     w32_cfg.obj
 0002:00000e80       ??_C@_05HECPGLK@DIK_Q?$AA@ 0046ae80     w32_cfg.obj
 0002:00000e88       ??_C@_05FBBIFBDM@DIK_W?$AA@ 0046ae88     w32_cfg.obj
 0002:00000e90       ??_C@_05CJOMCBOP@DIK_E?$AA@ 0046ae90     w32_cfg.obj
 0002:00000e98       ??_C@_05CMGPKFHJ@DIK_R?$AA@ 0046ae98     w32_cfg.obj
 0002:00000ea0       ??_C@_05HKDFACPP@DIK_T?$AA@ 0046aea0     w32_cfg.obj
 0002:00000ea8       ??_C@_05MPJLHMLC@DIK_Y?$AA@ 0046aea8     w32_cfg.obj
 0002:00000eb0       ??_C@_05GDCODDLO@DIK_U?$AA@ 0046aeb0     w32_cfg.obj
 0002:00000eb8       ??_C@_05IFFJGOOD@DIK_I?$AA@ 0046aeb8     w32_cfg.obj
 0002:00000ec0       ??_C@_05NDADMJGF@DIK_O?$AA@ 0046aec0     w32_cfg.obj
 0002:00000ec8       ??_C@_05BOFJMHPL@DIK_P?$AA@ 0046aec8     w32_cfg.obj
 0002:00000ed0       ??_C@_0N@EFJDLCEF@DIK_LBRACKET?$AA@ 0046aed0     w32_cfg.obj
 0002:00000ee0       ??_C@_0N@CBJBCLKG@DIK_RBRACKET?$AA@ 0046aee0     w32_cfg.obj
 0002:00000ef0       ??_C@_0L@JLNKBJCL@DIK_RETURN?$AA@ 0046aef0     w32_cfg.obj
 0002:00000efc       ??_C@_0N@ODLLDAI@DIK_LCONTROL?$AA@ 0046aefc     w32_cfg.obj
 0002:00000f0c       ??_C@_05ENIAOEOL@DIK_A?$AA@ 0046af0c     w32_cfg.obj
 0002:00000f14       ??_C@_05DFHEJEDI@DIK_S?$AA@ 0046af14     w32_cfg.obj
 0002:00000f1c       ??_C@_05DAPHBAKO@DIK_D?$AA@ 0046af1c     w32_cfg.obj
 0002:00000f24       ??_C@_05CMBHCCM@DIK_F?$AA@ 0046af24     w32_cfg.obj
 0002:00000f2c       ??_C@_05BLNKEDGN@DIK_G?$AA@ 0046af2c     w32_cfg.obj
 0002:00000f34       ??_C@_05JMECFPKC@DIK_H?$AA@ 0046af34     w32_cfg.obj
 0002:00000f3c       ??_C@_05KOHEDNCA@DIK_J?$AA@ 0046af3c     w32_cfg.obj
 0002:00000f44       ??_C@_05LHGPAMGB@DIK_K?$AA@ 0046af44     w32_cfg.obj
 0002:00000f4c       ??_C@_05PICOJKKG@DIK_L?$AA@ 0046af4c     w32_cfg.obj
 0002:00000f54       ??_C@_0O@NEECDLLB@DIK_SEMICOLON?$AA@ 0046af54     w32_cfg.obj
 0002:00000f64       ??_C@_0P@JDEKLKAM@DIK_APOSTROPHE?$AA@ 0046af64     w32_cfg.obj
 0002:00000f74       ??_C@_09MOGGLCIP@DIK_GRAVE?$AA@ 0046af74     w32_cfg.obj
 0002:00000f80       ??_C@_0L@GNGJHMON@DIK_LSHIFT?$AA@ 0046af80     w32_cfg.obj
 0002:00000f8c       ??_C@_0O@DGKNNOHE@DIK_BACKSLASH?$AA@ 0046af8c     w32_cfg.obj
 0002:00000f9c       ??_C@_05OELGCPHB@DIK_Z?$AA@ 0046af9c     w32_cfg.obj
 0002:00000fa4       ??_C@_05NGIAENPD@DIK_X?$AA@ 0046afa4     w32_cfg.obj
 0002:00000fac       ??_C@_05HPLGIGGJ@DIK_C?$AA@ 0046afac     w32_cfg.obj
 0002:00000fb4       ??_C@_05EIADGAHN@DIK_V?$AA@ 0046afb4     w32_cfg.obj
 0002:00000fbc       ??_C@_05GGKNLHCI@DIK_B?$AA@ 0046afbc     w32_cfg.obj
 0002:00000fc4       ??_C@_05MKBIPICE@DIK_N?$AA@ 0046afc4     w32_cfg.obj
 0002:00000fcc       ??_C@_05OBDFKLOH@DIK_M?$AA@ 0046afcc     w32_cfg.obj
 0002:00000fd4       ??_C@_09PDEOJFIH@DIK_COMMA?$AA@ 0046afd4     w32_cfg.obj
 0002:00000fe0       ??_C@_0L@HHNLMNCM@DIK_PERIOD?$AA@ 0046afe0     w32_cfg.obj
 0002:00000fec       ??_C@_09DKJEGHEH@DIK_SLASH?$AA@ 0046afec     w32_cfg.obj
 0002:00000ff8       ??_C@_0L@FKIIJLHO@DIK_RSHIFT?$AA@ 0046aff8     w32_cfg.obj
 0002:00001004       ??_C@_0N@DHLLGHHC@DIK_MULTIPLY?$AA@ 0046b004     w32_cfg.obj
 0002:00001014       ??_C@_09JBIEDFNB@DIK_LMENU?$AA@ 0046b014     w32_cfg.obj
 0002:00001020       ??_C@_09DGAMMAPJ@DIK_SPACE?$AA@ 0046b020     w32_cfg.obj
 0002:0000102c       ??_C@_0M@KEADBGIC@DIK_CAPITAL?$AA@ 0046b02c     w32_cfg.obj
 0002:00001038       ??_C@_06PEIHKKCD@DIK_F1?$AA@ 0046b038     w32_cfg.obj
 0002:00001040       ??_C@_06NPKKPJOA@DIK_F2?$AA@ 0046b040     w32_cfg.obj
 0002:00001048       ??_C@_06MGLBMIKB@DIK_F3?$AA@ 0046b048     w32_cfg.obj
 0002:00001050       ??_C@_06IJPAFOGG@DIK_F4?$AA@ 0046b050     w32_cfg.obj
 0002:00001058       ??_C@_06JAOLGPCH@DIK_F5?$AA@ 0046b058     w32_cfg.obj
 0002:00001060       ??_C@_06LLMGDMOE@DIK_F6?$AA@ 0046b060     w32_cfg.obj
 0002:00001068       ??_C@_06KCNNANKF@DIK_F7?$AA@ 0046b068     w32_cfg.obj
 0002:00001070       ??_C@_06CFEFBBGK@DIK_F8?$AA@ 0046b070     w32_cfg.obj
 0002:00001078       ??_C@_06DMFOCACL@DIK_F9?$AA@ 0046b078     w32_cfg.obj
 0002:00001080       ??_C@_07HNNFMACL@DIK_F10?$AA@ 0046b080     w32_cfg.obj
 0002:00001088       ??_C@_0M@BAOCLHIM@DIK_NUMLOCK?$AA@ 0046b088     w32_cfg.obj
 0002:00001094       ??_C@_0L@HPJOFPCB@DIK_SCROLL?$AA@ 0046b094     w32_cfg.obj
 0002:000010a0       ??_C@_0M@NDOIJKED@DIK_NUMPAD7?$AA@ 0046b0a0     w32_cfg.obj
 0002:000010ac       ??_C@_0M@FEHAIGIM@DIK_NUMPAD8?$AA@ 0046b0ac     w32_cfg.obj
 0002:000010b8       ??_C@_0M@ENGLLHMN@DIK_NUMPAD9?$AA@ 0046b0b8     w32_cfg.obj
 0002:000010c4       ??_C@_0N@ECOBCKNF@DIK_SUBTRACT?$AA@ 0046b0c4     w32_cfg.obj
 0002:000010d4       ??_C@_0M@PIMFMJIA@DIK_NUMPAD4?$AA@ 0046b0d4     w32_cfg.obj
 0002:000010e0       ??_C@_0M@OBNOPIMB@DIK_NUMPAD5?$AA@ 0046b0e0     w32_cfg.obj
 0002:000010ec       ??_C@_0M@MKPDKLAC@DIK_NUMPAD6?$AA@ 0046b0ec     w32_cfg.obj
 0002:000010f8       ??_C@_07PJGLOONL@DIK_ADD?$AA@ 0046b0f8     w32_cfg.obj
 0002:00001100       ??_C@_0M@IFLCDNMF@DIK_NUMPAD1?$AA@ 0046b100     w32_cfg.obj
 0002:0000110c       ??_C@_0M@KOJPGOAG@DIK_NUMPAD2?$AA@ 0046b10c     w32_cfg.obj
 0002:00001118       ??_C@_0M@LHIEFPEH@DIK_NUMPAD3?$AA@ 0046b118     w32_cfg.obj
 0002:00001124       ??_C@_0M@JMKJAMIE@DIK_NUMPAD0?$AA@ 0046b124     w32_cfg.obj
 0002:00001130       ??_C@_0M@PCNKFDKI@DIK_DECIMAL?$AA@ 0046b130     w32_cfg.obj
 0002:0000113c       ??_C@_0M@LPHMAFJH@DIK_OEM_102?$AA@ 0046b13c     w32_cfg.obj
 0002:00001148       ??_C@_07GEMOPBGK@DIK_F11?$AA@ 0046b148     w32_cfg.obj
 0002:00001150       ??_C@_07EPODKCKJ@DIK_F12?$AA@ 0046b150     w32_cfg.obj
 0002:00001158       ??_C@_07FGPIJDOI@DIK_F13?$AA@ 0046b158     w32_cfg.obj
 0002:00001160       ??_C@_07BJLJAFCP@DIK_F14?$AA@ 0046b160     w32_cfg.obj
 0002:00001168       ??_C@_07KCDEGO@DIK_F15?$AA@ 0046b168     w32_cfg.obj
 0002:00001170       ??_C@_08IIGDHDLD@DIK_KANA?$AA@ 0046b170     w32_cfg.obj
 0002:0000117c       ??_C@_0M@DIHGGPGO@DIK_ABNT_C1?$AA@ 0046b17c     w32_cfg.obj
 0002:00001188       ??_C@_0M@FLIOLLON@DIK_CONVERT?$AA@ 0046b188     w32_cfg.obj
 0002:00001194       ??_C@_0O@ONNDPPCA@DIK_NOCONVERT?$AA@ 0046b194     w32_cfg.obj
 0002:000011a4       ??_C@_07JHOLBDBG@DIK_YEN?$AA@ 0046b1a4     w32_cfg.obj
 0002:000011ac       ??_C@_0M@BDFLDMKN@DIK_ABNT_C2?$AA@ 0046b1ac     w32_cfg.obj
 0002:000011b8       ??_C@_0BB@EHCCCLBN@DIK_NUMPADEQUALS?$AA@ 0046b1b8     w32_cfg.obj
 0002:000011cc       ??_C@_0O@LFADOMHE@DIK_PREVTRACK?$AA@ 0046b1cc     w32_cfg.obj
 0002:000011dc       ??_C@_06OJECCDEE@DIK_AT?$AA@ 0046b1dc     w32_cfg.obj
 0002:000011e4       ??_C@_09MPOODKED@DIK_COLON?$AA@ 0046b1e4     w32_cfg.obj
 0002:000011f0       ??_C@_0O@NJCEEMFE@DIK_UNDERLINE?$AA@ 0046b1f0     w32_cfg.obj
 0002:00001200       ??_C@_09HPAOJKOI@DIK_KANJI?$AA@ 0046b200     w32_cfg.obj
 0002:0000120c       ??_C@_08ONCPEBHK@DIK_STOP?$AA@ 0046b20c     w32_cfg.obj
 0002:00001218       ??_C@_06EFPHGMEI@DIK_AX?$AA@ 0046b218     w32_cfg.obj
 0002:00001220       ??_C@_0O@NCNIDNIK@DIK_UNLABELED?$AA@ 0046b220     w32_cfg.obj
 0002:00001230       ??_C@_0O@DEOEEHEE@DIK_NEXTTRACK?$AA@ 0046b230     w32_cfg.obj
 0002:00001240       ??_C@_0BA@OLMCJCJF@DIK_NUMPADENTER?$AA@ 0046b240     w32_cfg.obj
 0002:00001250       ??_C@_0N@GKDJCKOL@DIK_RCONTROL?$AA@ 0046b250     w32_cfg.obj
 0002:00001260       ??_C@_08KNIFKFHJ@DIK_MUTE?$AA@ 0046b260     w32_cfg.obj
 0002:0000126c       ??_C@_0P@OJEJDHIP@DIK_CALCULATOR?$AA@ 0046b26c     w32_cfg.obj
 0002:0000127c       ??_C@_0O@ECAMOKPG@DIK_PLAYPAUSE?$AA@ 0046b27c     w32_cfg.obj
 0002:0000128c       ??_C@_0O@FLFOAKOG@DIK_MEDIASTOP?$AA@ 0046b28c     w32_cfg.obj
 0002:0000129c       ??_C@_0P@FKHBCEAD@DIK_VOLUMEDOWN?$AA@ 0046b29c     w32_cfg.obj
 0002:000012ac       ??_C@_0N@GPHLGHED@DIK_VOLUMEUP?$AA@ 0046b2ac     w32_cfg.obj
 0002:000012bc       ??_C@_0M@IEADBFND@DIK_WEBHOME?$AA@ 0046b2bc     w32_cfg.obj
 0002:000012c8       ??_C@_0BA@ECBGFAAH@DIK_NUMPADCOMMA?$AA@ 0046b2c8     w32_cfg.obj
 0002:000012d8       ??_C@_0L@HDEGMNOK@DIK_DIVIDE?$AA@ 0046b2d8     w32_cfg.obj
 0002:000012e4       ??_C@_09PCEGCDIO@DIK_SYSRQ?$AA@ 0046b2e4     w32_cfg.obj
 0002:000012f0       ??_C@_09KIFIFGDK@DIK_RMENU?$AA@ 0046b2f0     w32_cfg.obj
 0002:000012fc       ??_C@_09COEFGPNN@DIK_PAUSE?$AA@ 0046b2fc     w32_cfg.obj
 0002:00001308       ??_C@_08EJDGAFAN@DIK_HOME?$AA@ 0046b308     w32_cfg.obj
 0002:00001314       ??_C@_06JGABONOM@DIK_UP?$AA@ 0046b314     w32_cfg.obj
 0002:0000131c       ??_C@_09DHFLECK@DIK_PRIOR?$AA@ 0046b31c     w32_cfg.obj
 0002:00001328       ??_C@_08IMIHIPFI@DIK_LEFT?$AA@ 0046b328     w32_cfg.obj
 0002:00001334       ??_C@_09OKEHHFIC@DIK_RIGHT?$AA@ 0046b334     w32_cfg.obj
 0002:00001340       ??_C@_07HLJOPMFK@DIK_END?$AA@ 0046b340     w32_cfg.obj
 0002:00001348       ??_C@_08HOIDBHGB@DIK_DOWN?$AA@ 0046b348     w32_cfg.obj
 0002:00001354       ??_C@_08OAPPFCEC@DIK_NEXT?$AA@ 0046b354     w32_cfg.obj
 0002:00001360       ??_C@_0L@MGNAFAII@DIK_INSERT?$AA@ 0046b360     w32_cfg.obj
 0002:0000136c       ??_C@_0L@HICEJOHK@DIK_DELETE?$AA@ 0046b36c     w32_cfg.obj
 0002:00001378       ??_C@_08MNOGKNKK@DIK_LWIN?$AA@ 0046b378     w32_cfg.obj
 0002:00001384       ??_C@_08BCDGIEEJ@DIK_RWIN?$AA@ 0046b384     w32_cfg.obj
 0002:00001390       ??_C@_08EEDKKFEB@DIK_APPS?$AA@ 0046b390     w32_cfg.obj
 0002:0000139c       ??_C@_09CGFEECGD@DIK_POWER?$AA@ 0046b39c     w32_cfg.obj
 0002:000013a8       ??_C@_09CPEGLHIL@DIK_SLEEP?$AA@ 0046b3a8     w32_cfg.obj
 0002:000013b4       ??_C@_08EPNEAONP@DIK_WAKE?$AA@ 0046b3b4     w32_cfg.obj
 0002:000013c0       ??_C@_0O@EBMIGJNF@DIK_WEBSEARCH?$AA@ 0046b3c0     w32_cfg.obj
 0002:000013d0       ??_C@_0BB@BAJMJCKN@DIK_WEBFAVORITES?$AA@ 0046b3d0     w32_cfg.obj
 0002:000013e4       ??_C@_0P@CKOPAIFE@DIK_WEBREFRESH?$AA@ 0046b3e4     w32_cfg.obj
 0002:000013f4       ??_C@_0M@CABKFBKE@DIK_WEBSTOP?$AA@ 0046b3f4     w32_cfg.obj
 0002:00001400       ??_C@_0P@ENMBFFK@DIK_WEBFORWARD?$AA@ 0046b400     w32_cfg.obj
 0002:00001410       ??_C@_0M@LKHBHKMF@DIK_WEBBACK?$AA@ 0046b410     w32_cfg.obj
 0002:0000141c       ??_C@_0P@LPICKDNG@DIK_MYCOMPUTER?$AA@ 0046b41c     w32_cfg.obj
 0002:0000142c       ??_C@_08LHMCOONL@DIK_MAIL?$AA@ 0046b42c     w32_cfg.obj
 0002:00001438       ??_C@_0BA@KMBHEBKA@DIK_MEDIASELECT?$AA@ 0046b438     w32_cfg.obj
 0002:00001448       ??_C@_03MHNPAEMD@ESC?$AA@  0046b448     w32_cfg.obj
 0002:0000144c       ??_C@_01HIHLOKLC@1?$AA@    0046b44c     w32_cfg.obj
 0002:00001450       ??_C@_02NDBKNGMH@?$IC?J?$AA@ 0046b450     w32_cfg.obj
 0002:00001454       ??_C@_01FDFGLJHB@2?$AA@    0046b454     w32_cfg.obj
 0002:00001458       ??_C@_02EIBKHPNP@?$IC?S?$AA@ 0046b458     w32_cfg.obj
 0002:0000145c       ??_C@_01EKENIIDA@3?$AA@    0046b45c     w32_cfg.obj
 0002:00001460       ??_C@_02EMAIFFOK@?$IC?$KA?$AA@ 0046b460     w32_cfg.obj
 0002:00001464       ??_C@_01FAMBOPH@4?$AA@     0046b464     w32_cfg.obj
 0002:00001468       ??_C@_02CIGEJAOO@?$IC?$KE?$AA@ 0046b468     w32_cfg.obj
 0002:0000146c       ??_C@_01BMBHCPLG@5?$AA@    0046b46c     w32_cfg.obj
 0002:00001470       ??_C@_02BKFCPCGM@?$IC?$KG?$AA@ 0046b470     w32_cfg.obj
 0002:00001474       ??_C@_01DHDKHMHF@6?$AA@    0046b474     w32_cfg.obj
 0002:00001478       ??_C@_02IENBNPOC@?$IC?$KI?$AA@ 0046b478     w32_cfg.obj
 0002:0000147c       ??_C@_01COCBENDE@7?$AA@    0046b47c     w32_cfg.obj
 0002:00001480       ??_C@_02IOEHHIGN@?$IC?b?$AA@ 0046b480     w32_cfg.obj
 0002:00001484       ??_C@_01KJLJFBPL@8?$AA@    0046b484     w32_cfg.obj
 0002:00001488       ??_C@_02NIBNNPOL@?$IC?d?$AA@ 0046b488     w32_cfg.obj
 0002:0000148c       ??_C@_01LAKCGALK@9?$AA@    0046b48c     w32_cfg.obj
 0002:00001490       ??_C@_02OKCLLNGJ@?$IC?f?$AA@ 0046b490     w32_cfg.obj
 0002:00001494       ??_C@_01GBGANLPD@0?$AA@    0046b494     w32_cfg.obj
 0002:00001498       ??_C@_02JNPGEKC@?$IC?m?$AA@ 0046b498     w32_cfg.obj
 0002:0000149c       ??_C@_02LCPFJHFF@?$IC?Y?$AA@ 0046b49c     w32_cfg.obj
 0002:000014a0       ??_C@_01JKBOJNNK@?$FO?$AA@ 0046b4a0     w32_cfg.obj
 0002:000014a4       ??_C@_02DFGNILJK@?$IC?V?$AA@ 0046b4a4     w32_cfg.obj
 0002:000014a8       ??_C@_01KICIPPFI@?2?$AA@   0046b4a8     w32_cfg.obj
 0002:000014ac       ??_C@_02LJAGNDMF@?$IB?$FL?$AA@ 0046b4ac     w32_cfg.obj
 0002:000014b0       ??_C@_02OCDGHBNE@BS?$AA@   0046b4b0     w32_cfg.obj
 0002:000014b4       ??_C@_03CJMDHCGG@TAB?$AA@  0046b4b4     w32_cfg.obj
 0002:000014b8       ??_C@_01BNIGIBBF@Q?$AA@    0046b4b8     w32_cfg.obj
 0002:000014bc       ??_C@_02LDGEDJPG@?$IC?$LN?$AA@ 0046b4bc     w32_cfg.obj
 0002:000014c0       ??_C@_01ELNMCGJD@W?$AA@    0046b4c0     w32_cfg.obj
 0002:000014c4       ??_C@_02ENJJPLEJ@?$IC?D?$AA@ 0046b4c4     w32_cfg.obj
 0002:000014c8       ??_C@_01DDCIFGEA@E?$AA@    0046b4c8     w32_cfg.obj
 0002:000014cc       ??_C@_02HODODHGI@?$IC?$KC?$AA@ 0046b4cc     w32_cfg.obj
 0002:000014d0       ??_C@_01DGKLNCNG@R?$AA@    0046b4d0     w32_cfg.obj
 0002:000014d4       ??_C@_02EJILNBHM@?$IC?$LH?$AA@ 0046b4d4     w32_cfg.obj
 0002:000014d8       ??_C@_01GAPBHFFA@T?$AA@    0046b4d8     w32_cfg.obj
 0002:000014dc       ??_C@_02JNMKOOKD@?$IC?$KJ?$AA@ 0046b4dc     w32_cfg.obj
 0002:000014e0       ??_C@_02OPKIDJPP@?$IC?q?$AA@ 0046b4e0     w32_cfg.obj
 0002:000014e4       ??_C@_02OBCMLEEF@?$IC?H?$AA@ 0046b4e4     w32_cfg.obj
 0002:000014e8       ??_C@_01JPJNBJEM@I?$AA@    0046b4e8     w32_cfg.obj
 0002:000014ec       ??_C@_02PIDHIFAE@?$IC?I?$AA@ 0046b4ec     w32_cfg.obj
 0002:000014f0       ??_C@_01MJMHLOMK@O?$AA@    0046b4f0     w32_cfg.obj
 0002:000014f4       ??_C@_02PDDAIMCI@?$IC?g?$AA@ 0046b4f4     w32_cfg.obj
 0002:000014f8       ??_C@_01EJNLAFE@P?$AA@     0046b4f8     w32_cfg.obj
 0002:000014fc       ??_C@_02NHAIPMPC@?$IC?$LJ?$AA@ 0046b4fc     w32_cfg.obj
 0002:00001500       ??_C@_01EOFPKCAF@?$EA?$AA@ 0046b500     w32_cfg.obj
 0002:00001504       ??_C@_02OKNPPANF@?$IBJ?$AA@ 0046b504     w32_cfg.obj
 0002:00001508       ??_C@_02PDMEMBJE@?$IBK?$AA@ 0046b508     w32_cfg.obj
 0002:0000150c       ??_C@_06LJMOENAO@RETURN?$AA@ 0046b50c     w32_cfg.obj
 0002:00001514       ??_C@_02IBFCFLHE@?$IC?$LP?$AA@ 0046b514     w32_cfg.obj
 0002:00001518       ??_C@_02HPKPJJML@?$IC?F?$AA@ 0046b518     w32_cfg.obj
 0002:0000151c       ??_C@_02HLLNLDPO@?$IC?$LF?$AA@ 0046b51c     w32_cfg.obj
 0002:00001520       ??_C@_01BIAFAFID@F?$AA@    0046b520     w32_cfg.obj
 0002:00001524       ??_C@_02JMFLEAAA@?$IC?M?$AA@ 0046b524     w32_cfg.obj
 0002:00001528       ??_C@_01BBODEMC@G?$AA@     0046b528     w32_cfg.obj
 0002:0000152c       ??_C@_02KPPMIMCB@?$IC?$KL?$AA@ 0046b52c     w32_cfg.obj
 0002:00001530       ??_C@_01IGIGCIAN@H?$AA@    0046b530     w32_cfg.obj
 0002:00001534       ??_C@_02PJKGCLKH@?$IC?$KN?$AA@ 0046b534     w32_cfg.obj
 0002:00001538       ??_C@_01LELAEKIP@J?$AA@    0046b538     w32_cfg.obj
 0002:0000153c       ??_C@_02MPICGDBA@?$IC?$NM?$AA@ 0046b53c     w32_cfg.obj
 0002:00001540       ??_C@_01KNKLHLMO@K?$AA@    0046b540     w32_cfg.obj
 0002:00001544       ??_C@_02IFEAHBEB@?$IC?L?$AA@ 0046b544     w32_cfg.obj
 0002:00001548       ??_C@_01OCOKONAJ@L?$AA@    0046b548     w32_cfg.obj
 0002:0000154c       ??_C@_02HEKIJAOH@?$IC?h?$AA@ 0046b54c     w32_cfg.obj
 0002:00001550       ??_C@_02EGJOPCGF@?$IC?j?$AA@ 0046b550     w32_cfg.obj
 0002:00001554       ??_C@_01JLIPDDHJ@?3?$AA@   0046b554     w32_cfg.obj
 0002:00001558       ??_C@_02MLJAEJCF@?$IC?$KP?$AA@ 0046b558     w32_cfg.obj
 0002:0000155c       ??_C@_02PNLEABJC@?$IC?$NO?$AA@ 0046b55c     w32_cfg.obj
 0002:00001560       ??_C@_01POHCFINO@Z?$AA@    0046b560     w32_cfg.obj
 0002:00001564       ??_C@_02BLMDFMMP@?$IC?B?$AA@ 0046b564     w32_cfg.obj
 0002:00001568       ??_C@_02CNOHBEHI@?$IC?$LD?$AA@ 0046b568     w32_cfg.obj
 0002:0000156c       ??_C@_01GFHCPBMG@C?$AA@    0046b56c     w32_cfg.obj
 0002:00001570       ??_C@_02OFDOJOHA@?$IC?$LL?$AA@ 0046b570     w32_cfg.obj
 0002:00001574       ??_C@_01FCMHBHNC@V?$AA@    0046b574     w32_cfg.obj
 0002:00001578       ??_C@_02GDDHCMBM@?$IC?P?$AA@ 0046b578     w32_cfg.obj
 0002:0000157c       ??_C@_02BPNBHGPK@?$IC?$LB?$AA@ 0046b57c     w32_cfg.obj
 0002:00001580       ??_C@_01NANMIPIL@N?$AA@    0046b580     w32_cfg.obj
 0002:00001584       ??_C@_02NGJJFCFB@?$IC?$NN?$AA@ 0046b584     w32_cfg.obj
 0002:00001588       ??_C@_01PLPBNMEI@M?$AA@    0046b588     w32_cfg.obj
 0002:0000158c       ??_C@_02LMHBBKOP@?$IC?$OA?$AA@ 0046b58c     w32_cfg.obj
 0002:00001590       ??_C@_02MKABOHIG@?$IC?K?$AA@ 0046b590     w32_cfg.obj
 0002:00001594       ??_C@_01LFCBOECM@?4?$AA@   0046b594     w32_cfg.obj
 0002:00001598       ??_C@_02GNLDKBKG@?$IC?i?$AA@ 0046b598     w32_cfg.obj
 0002:0000159c       ??_C@_01KMDKNFGN@?1?$AA@   0046b59c     w32_cfg.obj
 0002:000015a0       ??_C@_02OEKPDAND@?$IC?$NP?$AA@ 0046b5a0     w32_cfg.obj
 0002:000015a4       ??_C@_01IDAFKMJL@_?$AA@    0046b5a4     w32_cfg.obj
 0002:000015a8       ??_C@_02FPIFMDCE@?$IC?k?$AA@ 0046b5a8     w32_cfg.obj
 0002:000015ac       ??_C@_09KALCJAEI@SPACE?$CI?$IJE?$CJ?$AA@ 0046b5ac     w32_cfg.obj
 0002:000015b8       ??_C@_01NBENCBCI@?$CK?$AA@ 0046b5b8     w32_cfg.obj
 0002:000015bc       ??_C@_08GCBFDFGJ@?$IDe?$ID?$JD?$IDL?$IB?$FL?$AA@ 0046b5bc     w32_cfg.obj
 0002:000015c8       ??_C@_01NEMOKFLO@?$DN?$AA@ 0046b5c8     w32_cfg.obj
 0002:000015cc       ??_C@_02CKCDGJMP@EL?$AA@   0046b5cc     w32_cfg.obj
 0002:000015d0       ??_C@_03LPAMKNAD@CLS?$AA@  0046b5d0     w32_cfg.obj
 0002:000015d4       ??_C@_03OAFAKAKL@DEL?$AA@  0046b5d4     w32_cfg.obj
 0002:000015d8       ??_C@_03BKABFOIG@DUP?$AA@  0046b5d8     w32_cfg.obj
 0002:000015dc       ??_C@_02LEKBADDJ@?$IB?$KK?$AA@ 0046b5dc     w32_cfg.obj
 0002:000015e0       ??_C@_04GHGFPGNC@HOME?$AA@ 0046b5e0     w32_cfg.obj
 0002:000015e8       ??_C@_02JPIMFAPK@?$IB?$KJ?$AA@ 0046b5e8     w32_cfg.obj
 0002:000015ec       ??_C@_02KNLKDCHI@?$IB?$KL?$AA@ 0046b5ec     w32_cfg.obj
 0002:000015f0       ??_C@_02IGJHGBLL@?$IB?$KI?$AA@ 0046b5f0     w32_cfg.obj
 0002:000015f4       ??_C@_04FBBFEIFJ@CTRL?$AA@ 0046b5f4     w32_cfg.obj
 0002:000015fc       ??_C@_09MGBNMPND@SHIFT?$CI?$IN?$LG?$CJ?$AA@ 0046b5fc     w32_cfg.obj
 0002:00001608       ??_C@_09POPNJFAN@SHIFT?$CI?$IJE?$CJ?$AA@ 0046b608     w32_cfg.obj
 0002:00001614       ??_C@_05GJAHCMMG@GRAPH?$AA@ 0046b614     w32_cfg.obj
 0002:0000161c       ??_C@_09JIFCMKJG@SPACE?$CI?$IN?$LG?$CJ?$AA@ 0046b61c     w32_cfg.obj
 0002:00001628       ??_C@_09LEEDGIMP@SPACE?$CI?$JC?$IG?$CJ?$AA@ 0046b628     w32_cfg.obj
 0002:00001634       ??_C@_05IAGBLAKG@BREAK?$AA@ 0046b634     w32_cfg.obj
 0002:0000163c       ??_C@_03KHPMNJIB@PF1?$AA@  0046b63c     w32_cfg.obj
 0002:00001640       ??_C@_03IMNBIKEC@PF2?$AA@  0046b640     w32_cfg.obj
 0002:00001644       ??_C@_03JFMKLLAD@PF3?$AA@  0046b644     w32_cfg.obj
 0002:00001648       ??_C@_03NKILCNME@PF4?$AA@  0046b648     w32_cfg.obj
 0002:0000164c       ??_C@_03MDJABMIF@PF5?$AA@  0046b64c     w32_cfg.obj
 0002:00001650       ??_C@_03OILNEPEG@PF6?$AA@  0046b650     w32_cfg.obj
 0002:00001654       ??_C@_03PBKGHOAH@PF7?$AA@  0046b654     w32_cfg.obj
 0002:00001658       ??_C@_03HGDOGCMI@PF8?$AA@  0046b658     w32_cfg.obj
 0002:0000165c       ??_C@_03GPCFFDIJ@PF9?$AA@  0046b65c     w32_cfg.obj
 0002:00001660       ??_C@_04EFFOHJJM@PF10?$AA@ 0046b660     w32_cfg.obj
 0002:00001668       ??_C@_04PKIPNKLG@?4INI?$AA@ 0046b668     w32_cfg.obj
 0002:00001670       ??_C@_07ECEMPDJM@General?$AA@ 0046b670     w32_cfg.obj
 0002:00001678       ??_C@_09EOAFACM@Directory?$AA@ 0046b678     w32_cfg.obj
 0002:00001684       ??_C@_07NGFJPNPN@Version?$AA@ 0046b684     w32_cfg.obj
 0002:0000168c       ??_C@_08JJGGIGKP@BootMode?$AA@ 0046b68c     w32_cfg.obj
 0002:00001698       ??_C@_0L@OHEOOCHP@CycleSteel?$AA@ 0046b698     w32_cfg.obj
 0002:000016a4       ??_C@_0L@OAEHEKKD@CycleSteal?$AA@ 0046b6a4     w32_cfg.obj
 0002:000016b0       ??_C@_0N@HKJEGJIJ@SubClockMode?$AA@ 0046b6b0     w32_cfg.obj
 0002:000016c0       ??_C@_09BILJDIJJ@MainSpeed?$AA@ 0046b6c0     w32_cfg.obj
 0002:000016cc       ??_C@_08EEBKGM@MMRSpeed?$AA@ 0046b6cc     w32_cfg.obj
 0002:000016d8       ??_C@_0N@NPMEDHEB@FastMMRSpeed?$AA@ 0046b6d8     w32_cfg.obj
 0002:000016e8       ??_C@_08JKANGOBF@SubSpeed?$AA@ 0046b6e8     w32_cfg.obj
 0002:000016f4       ??_C@_0O@BEDACCDM@TapeFullSpeed?$AA@ 0046b6f4     w32_cfg.obj
 0002:00001704       ??_C@_09MOAKMPFO@FullSpeed?$AA@ 0046b704     w32_cfg.obj
 0002:00001710       ??_C@_0BA@FPALJNHK@AutoSpeedAdjust?$AA@ 0046b710     w32_cfg.obj
 0002:00001720       ??_C@_0BC@NANKLAKK@TapeFullSpeedMode?$AA@ 0046b720     w32_cfg.obj
 0002:00001734       ??_C@_07FEFODNAM@FDDWait?$AA@ 0046b734     w32_cfg.obj
 0002:0000173c       ??_C@_0L@DMFFHFMH@WindowPosX?$AA@ 0046b73c     w32_cfg.obj
 0002:00001748       ??_C@_0L@CFEOEEIG@WindowPosY?$AA@ 0046b748     w32_cfg.obj
 0002:00001754       ??_C@_0N@KLDAACK@HighPriority?$AA@ 0046b754     w32_cfg.obj
 0002:00001764       ??_C@_0BA@OJGDIDBG@TimerResolution?$AA@ 0046b764     w32_cfg.obj
 0002:00001774       ??_C@_05MAHMNMLO@Sound?$AA@ 0046b774     w32_cfg.obj
 0002:0000177c       ??_C@_0L@NEGJIGMA@SampleRate?$AA@ 0046b77c     w32_cfg.obj
 0002:00001788       ??_C@_0M@PNCKJJG@SoundBuffer?$AA@ 0046b788     w32_cfg.obj
 0002:00001794       ??_C@_08MNIIIEAO@BeepFreq?$AA@ 0046b794     w32_cfg.obj
 0002:000017a0       ??_C@_08ODGDAOBL@FMHQmode?$AA@ 0046b7a0     w32_cfg.obj
 0002:000017ac       ??_C@_09JJKAHHJB@StereoOut?$AA@ 0046b7ac     w32_cfg.obj
 0002:000017b8       ??_C@_07ONALCFND@TapeMon?$AA@ 0046b7b8     w32_cfg.obj
 0002:000017c0       ??_C@_0BC@FCCNFBAH@ForceStereoOutput?$AA@ 0046b7c0     w32_cfg.obj
 0002:000017d4       ??_C@_08CJEJOADM@UseROMEO?$AA@ 0046b7d4     w32_cfg.obj
 0002:000017e0       ??_C@_08CHKMIOED@FDDSound?$AA@ 0046b7e0     w32_cfg.obj
 0002:000017ec       ??_C@_0BC@GMBKGIGD@ChannelSeparation?$AA@ 0046b7ec     w32_cfg.obj
 0002:00001800       ??_C@_08OHOHCKJB@FMVolume?$AA@ 0046b800     w32_cfg.obj
 0002:0000180c       ??_C@_09CMOHMLPH@PSGVolume?$AA@ 0046b80c     w32_cfg.obj
 0002:00001818       ??_C@_0L@HGDHBIAD@BeepVolume?$AA@ 0046b818     w32_cfg.obj
 0002:00001824       ??_C@_09HGEIFODH@CMTVolume?$AA@ 0046b824     w32_cfg.obj
 0002:00001830       ??_C@_0L@BGLJBAL@WaveVolume?$AA@ 0046b830     w32_cfg.obj
 0002:0000183c       ??_C@_08CPOKIBJK@Keyboard?$AA@ 0046b83c     w32_cfg.obj
 0002:00001848       ??_C@_0BA@OLIJMGOC@RealTimeKeyScan?$AA@ 0046b848     w32_cfg.obj
 0002:00001858       ??_C@_0BB@FLCPKPKG@UseArrowFor10Key?$AA@ 0046b858     w32_cfg.obj
 0002:0000186c       ??_C@_09OJNMFACK@Arrow8Dir?$AA@ 0046b86c     w32_cfg.obj
 0002:00001878       ??_C@_05FDFAJJHA@Key?$CFd?$AA@ 0046b878     w32_cfg.obj
 0002:00001880       ??_C@_09IJEELHGE@PasteWait?$AA@ 0046b880     w32_cfg.obj
 0002:0000188c       ??_C@_0O@CKDOHPMK@PasteWaitCntl?$AA@ 0046b88c     w32_cfg.obj
 0002:0000189c       ??_C@_0BC@PBNDKCAL@KeyStrokeModeless?$AA@ 0046b89c     w32_cfg.obj
 0002:000018b0       ??_C@_08COIPAGON@JoyStick?$AA@ 0046b8b0     w32_cfg.obj
 0002:000018bc       ??_C@_06FDBJHMHK@Type?$CFd?$AA@ 0046b8bc     w32_cfg.obj
 0002:000018c4       ??_C@_07LEEMMBHN@Rapid?$CFd?$AA@ 0046b8c4     w32_cfg.obj
 0002:000018cc       ??_C@_06LBIPAOPO@Code?$CFd?$AA@ 0046b8cc     w32_cfg.obj
 0002:000018d4       ??_C@_06MEEGFFCD@Screen?$AA@ 0046b8d4     w32_cfg.obj
 0002:000018dc       ??_C@_09BHMFKHEO@DD480Line?$AA@ 0046b8dc     w32_cfg.obj
 0002:000018e8       ??_C@_0N@IMFDKGEI@DDResolution?$AA@ 0046b8e8     w32_cfg.obj
 0002:000018f8       ??_C@_08IHKFONFA@FullScan?$AA@ 0046b8f8     w32_cfg.obj
 0002:00001904       ??_C@_0L@IBIBLLNB@FullScanFS?$AA@ 0046b904     w32_cfg.obj
 0002:00001910       ??_C@_0L@CBCDGBIF@FullScreen?$AA@ 0046b910     w32_cfg.obj
 0002:0000191c       ??_C@_0L@JGKBJNFB@DoubleSize?$AA@ 0046b91c     w32_cfg.obj
 0002:00001928       ??_C@_0M@DEELJJMC@DD480Status?$AA@ 0046b928     w32_cfg.obj
 0002:00001934       ??_C@_0N@GHGJIFIG@RasterRender?$AA@ 0046b934     w32_cfg.obj
 0002:00001944       ??_C@_0P@NHKABDIH@DrawAfterVSYNC?$AA@ 0046b944     w32_cfg.obj
 0002:00001954       ??_C@_0M@DPJGKJCJ@DDTrueColor?$AA@ 0046b954     w32_cfg.obj
 0002:00001960       ??_C@_0O@KEIDAFHD@HideStatusBar?$AA@ 0046b960     w32_cfg.obj
 0002:00001970       ??_C@_0O@EGFDNJEI@Pseudo400Line?$AA@ 0046b970     w32_cfg.obj
 0002:00001980       ??_C@_06CJHLBMGC@Option?$AA@ 0046b980     w32_cfg.obj
 0002:00001988       ??_C@_09HFHGKCCK@OPNEnable?$AA@ 0046b988     w32_cfg.obj
 0002:00001994       ??_C@_09EJFIJIHE@WHGEnable?$AA@ 0046b994     w32_cfg.obj
 0002:000019a0       ??_C@_09KCGPCDHH@THGEnable?$AA@ 0046b9a0     w32_cfg.obj
 0002:000019ac       ??_C@_0P@FKCDAJII@DigitizeEnable?$AA@ 0046b9ac     w32_cfg.obj
 0002:000019bc       ??_C@_0M@ONPCMLJE@JCardEnable?$AA@ 0046b9bc     w32_cfg.obj
 0002:000019c8       ??_C@_0N@LCPDCDJE@ExtRAMEnable?$AA@ 0046b9c8     w32_cfg.obj
 0002:000019d8       ??_C@_0L@KJHNLIHM@ExtRAMMode?$AA@ 0046b9d8     w32_cfg.obj
 0002:000019e4       ??_C@_0P@FNCEJDGA@MouseEmulation?$AA@ 0046b9e4     w32_cfg.obj
 0002:000019f4       ??_C@_09NCJCLGBF@MousePort?$AA@ 0046b9f4     w32_cfg.obj
 0002:00001a00       ??_C@_0L@HAMKDNNI@MidBtnMode?$AA@ 0046ba00     w32_cfg.obj
 0002:00001a0c       ??_C@_05MPANDEJJ@Ports?$AA@ 0046ba0c     w32_cfg.obj
 0002:00001a14       ??_C@_0P@DACLAPMC@CommPortEnable?$AA@ 0046ba14     w32_cfg.obj
 0002:00001a24       ??_C@_0M@IKFACAIB@CommPortBps?$AA@ 0046ba24     w32_cfg.obj
 0002:00001a30       ??_C@_08OOFJHPHH@CommPort?$AA@ 0046ba30     w32_cfg.obj
 0002:00001a3c       ??_C@_08OOPNKKKH@MidiPort?$AA@ 0046ba3c     w32_cfg.obj
 0002:00001a48       ??_C@_09MOHNBAEF@MidiDelay?$AA@ 0046ba48     w32_cfg.obj
 0002:00001a54       ??_C@_0O@MCNDGEMA@MidiDelayMode?$AA@ 0046ba54     w32_cfg.obj
 0002:00001a64       ??_C@_07KLNKAJI@Printer?$AA@ 0046ba64     w32_cfg.obj
 0002:00001a6c       ??_C@_0O@CLGKOAAO@PrinterEnable?$AA@ 0046ba6c     w32_cfg.obj
 0002:00001a7c       ??_C@_0N@NJLJINLD@LprUseOsFont?$AA@ 0046ba7c     w32_cfg.obj
 0002:00001a8c       ??_C@_0P@ECLKLFLK@LprOutputKanji?$AA@ 0046ba8c     w32_cfg.obj
 0002:00001a9c       ??_C@_0L@PLDNLFGE@LprOutPath?$AA@ 0046ba9c     w32_cfg.obj
 0002:00001aa8       ??_C@_01LOCGONAA@?$AA?$AA@ 0046baa8     w32_cfg.obj
 0002:00001aac       ??_C@_04MHPHMCPO@Misc?$AA@ 0046baac     w32_cfg.obj
 0002:00001ab4       ??_C@_09PFBKFJNO@PopupSwnd?$AA@ 0046bab4     w32_cfg.obj
 0002:00001ac0       ??_C@_0L@EJPEIDJ@SubModeFix?$AA@ 0046bac0     w32_cfg.obj
 0002:00001acc       ??_C@_0N@HKNJGNGG@OFNCentering?$AA@ 0046bacc     w32_cfg.obj
 0002:00001adc       ??_C@_0L@BNIHDJIN@MagusPatch?$AA@ 0046badc     w32_cfg.obj
 0002:00001ae8       ??_C@_0M@IGBOJIMK@RomRamWrite?$AA@ 0046bae8     w32_cfg.obj
 0002:00001af4       ??_C@_09JIMNGPLJ@FdcEnable?$AA@ 0046baf4     w32_cfg.obj
 0002:00001b00       ??_C@_0L@BIJNPLBK@Unofficial?$AA@ 0046bb00     w32_cfg.obj
 0002:00001b0c       ??_C@_09JDCLODHI@KanjiAsIs?$AA@ 0046bb0c     w32_cfg.obj
 0002:00001b18       ??_C@_09FDIPFAMG@LineBoost?$AA@ 0046bb18     w32_cfg.obj
 0002:00001b24       ??_C@_0L@NJHMNOJF@Gravestone?$AA@ 0046bb24     w32_cfg.obj
 0002:00001b30       ??_C@_0O@MFHMEFMO@400LineTiming?$AA@ 0046bb30     w32_cfg.obj
 0002:00001b40       ??_C@_0O@ICIAELNL@ExtDetDisable?$AA@ 0046bb40     w32_cfg.obj
 0002:00001b50       ??_C@_02DPKJAMEF@?$CFd?$AA@ 0046bb50     w32_cfg.obj
 0002:00001b54       ??_C@_0L@FKMAPPLM@DrawTiming?$AA@ 0046bb54     w32_cfg.obj
 0002:00001b60       ??_C@_0N@IIMNPCAH@SubBusyDelay?$AA@ 0046bb60     w32_cfg.obj
 0002:00001b70       ??_C@_03DIEHLJAJ@XM7?$AA@  0046bb70     w32_cfg.obj
 0002:00001b74       ??_C@_02GMHACPFF@?$CFu?$AA@ 0046bb74     w32_cfg.obj
 0002:00001b78       ??_C@_04JFFKLGJF@?$CF02X?$AA@ 0046bb78     w32_cfg.obj
 0002:00001b80       ??_C@_05ELDLEDEO@COM?$CFd?$AA@ 0046bb80     w32_cfg.obj
 0002:00001b88       ??_C@_03CNFPPDJC@BMP?$AA@  0046bb88     w32_cmd.obj
 0002:00001b8c       ??_C@_03BFNIAKNN@WAV?$AA@  0046bb8c     w32_cmd.obj
 0002:00001b90       ??_C@_03HLOOLMKI@D77?$AA@  0046bb90     w32_cmd.obj
 0002:00001b94       ??_C@_03CLPHOLDH@T77?$AA@  0046bb94     w32_cmd.obj
 0002:00001b98       ??_C@_03NANPALOO@VFD?$AA@  0046bb98     w32_cmd.obj
 0002:00001b9c       ??_C@_02LDEEJNBC@2D?$AA@   0046bb9c     w32_cmd.obj
 0002:00001ba0       ??_C@_03OBNDKLKF@VTP?$AA@  0046bba0     w32_cmd.obj
 0002:00001ba4       ??_C@_04OCHJAFMM@?4D77?$AA@ 0046bba4     w32_cmd.obj
 0002:00001bac       ??_C@_03CNKMEDBB@?42D?$AA@ 0046bbac     w32_cmd.obj
 0002:00001bb0       ??_C@_04POIIAGLA@?42DD?$AA@ 0046bbb0     w32_cmd.obj
 0002:00001bb8       ??_C@_04EJEILCIK@?4VFD?$AA@ 0046bbb8     w32_cmd.obj
 0002:00001bc0       ??_C@_04LCGAFCFD@?4T77?$AA@ 0046bbc0     w32_cmd.obj
 0002:00001bc8       ??_C@_04KBNAAAGN@?4XM7?$AA@ 0046bbc8     w32_cmd.obj
 0002:00001c10       ??_C@_0L@GMPLCCII@user32?4dll?$AA@ 0046bc10     w32_main.obj
 0002:00001c1c       ??_C@_0BA@FCPPHINE@WINNLSEnableIME?$AA@ 0046bc1c     w32_main.obj
 0002:00001c2c       ??_C@_09EGIAKDCM@MS?5Gothic?$AA@ 0046bc2c     w32_main.obj
 0002:00001c38       ??_C@_08LHNGCGEF@XM7_Draw?$AA@ 0046bc38     w32_main.obj
 0002:00001c44       ??_C@_04OMGANLLP@XM7?5?$AA@ 0046bc44     w32_main.obj
 0002:00001c4c       ??_C@_0L@NEPJKLOD@Main?5Timer?$AA@ 0046bc4c     w32_sub1.obj
 0002:00001c58       ??_C@_0L@LIHOCLLO@Sub?5?5Timer?$AA@ 0046bc58     w32_sub1.obj
 0002:00001c64       ??_C@_0M@IGACDJIF@OPN?5Timer?5A?$AA@ 0046bc64     w32_sub1.obj
 0002:00001c70       ??_C@_0M@KNCPGKEG@OPN?5Timer?5B?$AA@ 0046bc70     w32_sub1.obj
 0002:00001c7c       ??_C@_0L@OILGJEDI@Key?5Repeat?$AA@ 0046bc7c     w32_sub1.obj
 0002:00001c88       ??_C@_04HLMOLJLL@BEEP?$AA@ 0046bc88     w32_sub1.obj
 0002:00001c90       ??_C@_06PBECKDNL@V?9SYNC?$AA@ 0046bc90     w32_sub1.obj
 0002:00001c98       ??_C@_09DEJHLKID@V?1H?9BLANK?$AA@ 0046bc98     w32_sub1.obj
 0002:00001ca4       ??_C@_08DCAGKFKH@Line?5LSI?$AA@ 0046bca4     w32_sub1.obj
 0002:00001cb0       ??_C@_09JMFGOPNK@RTC?5Clock?$AA@ 0046bcb0     w32_sub1.obj
 0002:00001cbc       ??_C@_0M@GEDGKMMD@WHG?5Timer?5A?$AA@ 0046bcbc     w32_sub1.obj
 0002:00001cc8       ??_C@_0M@EPBLPPAA@WHG?5Timer?5B?$AA@ 0046bcc8     w32_sub1.obj
 0002:00001cd4       ??_C@_0M@BDKIHODD@THG?5Timer?5A?$AA@ 0046bcd4     w32_sub1.obj
 0002:00001ce0       ??_C@_0M@DIIFCNPA@THG?5Timer?5B?$AA@ 0046bce0     w32_sub1.obj
 0002:00001cec       ??_C@_0M@IFOMCOEJ@FDC?5?$CIM?4Sec?$CJ?$AA@ 0046bcec     w32_sub1.obj
 0002:00001cf8       ??_C@_0L@NCCDGKJE@FDC?5?$CILost?$CJ?$AA@ 0046bcf8     w32_sub1.obj
 0002:00001d04       ??_C@_0L@GMHKEDLM@FDD?5?$CISeek?$CJ?$AA@ 0046bd04     w32_sub1.obj
 0002:00001d10       ??_C@_0L@ELGOFJIP@Tape?5Sound?$AA@ 0046bd10     w32_sub1.obj
 0002:00001d1c       ??_C@_0L@MCDALHN@Mouse?5Lost?$AA@ 0046bd1c     w32_sub1.obj
 0002:00001d28       ??_C@_09JHIHIDBA@DMA?5Start?$AA@ 0046bd28     w32_sub1.obj
 0002:00001d34       ??_C@_0L@LNHDFJMM@KeyEnc?5ACK?$AA@ 0046bd34     w32_sub1.obj
 0002:00001d40       ??_C@_0M@BNHIFMKA@RS?5TxTiming?$AA@ 0046bd40     w32_sub1.obj
 0002:00001d4c       ??_C@_0M@GOGCCFCK@RS?5RxTiming?$AA@ 0046bd4c     w32_sub1.obj
 0002:00001d58       ??_C@_0M@EAIBKIJA@KeyEnc?5BEEP?$AA@ 0046bd58     w32_sub1.obj
 0002:00001d64       ??_C@_0L@EHDGAKAI@KeyEnc?5MSG?$AA@ 0046bd64     w32_sub1.obj
 0002:00001d70       ??_C@_09GOJOINKH@PTM?5Timer?$AA@ 0046bd70     w32_sub1.obj
 0002:00001d7c       ??_C@_0L@MPHLAFKN@?$CIReserved?$CJ?$AA@ 0046bd7c     w32_sub1.obj
 0002:00001d88       ??_C@_02PHHIKPHE@IR?$AA@   0046bd88     w32_sub1.obj
 0002:00001d8c       ??_C@_04JABFKABA@?$CF05X?$AA@ 0046bd8c     w32_sub1.obj
 0002:00001d94       ??_C@_04JBNHMKCH@?$CF04X?$AA@ 0046bd94     w32_sub1.obj
 0002:00001d9c       ??_C@_0BH@BJLKDIDC@?$CF2d?5?9?9?9?9?9?9?9?9?9?9?9?9?9?9?9?9?9?9?$AA@ 0046bd9c     w32_sub1.obj
 0002:00001db4       ??_C@_04KGFMLCPK@Main?$AA@ 0046bdb4     w32_sub1.obj
 0002:00001dbc       ??_C@_04MEFINGLL@Sub?5?$AA@ 0046bdbc     w32_sub1.obj
 0002:00001dc4       ??_C@_0N@FCLOHPDG@?$CF2d?5?$CFs?5?$CF04X?5?$AA@ 0046bdc4     w32_sub1.obj
 0002:00001dd4       ??_C@_08DPNEIFMC@?5Enabled?$AA@ 0046bdd4     w32_sub1.obj
 0002:00001de0       ??_C@_08JGILNPHN@Disabled?$AA@ 0046bde0     w32_sub1.obj
 0002:00001dec       ??_C@_0P@MNOPOGN@XM7_BreakPoint?$AA@ 0046bdec     w32_sub1.obj
 0002:00001dfc       ??_C@_0BF@MGOBNEBO@Execute?5Time?5?$CF12d?5ms?$AA@ 0046bdfc     w32_sub1.obj
 0002:00001e14       ??_C@_0CA@LJHFJNGL@Frame?5Rate?5?$CITotal?$CJ?5?$CF3d?4?$CF02d?5fps?$AA@ 0046be14     w32_sub1.obj
 0002:00001e34       ??_C@_0CA@JHBBOBHP@Frame?5Rate?5?$CILatest?$CJ?$CF3d?4?$CF02d?5fps?$AA@ 0046be34     w32_sub1.obj
 0002:00001e54       ??_C@_0L@GAPPCONK@?$CF4d?4?$CF03dms?$AA@ 0046be54     w32_sub1.obj
 0002:00001e60       ??_C@_0N@LPPMEDHK@?$CI?$CF4d?4?$CF03dms?$CJ?$AA@ 0046be60     w32_sub1.obj
 0002:00001e70       ??_C@_0O@MBJAEIAG@?$HM?5?5Over?5Cycle?$AA@ 0046be70     w32_sub1.obj
 0002:00001e80       ??_C@_0L@EGMJIDCA@?$HM?5Main?5?$CF7d?$AA@ 0046be80     w32_sub1.obj
 0002:00001e8c       ??_C@_0L@ONGPBKPE@?$HM?5Sub?5?5?$CF7d?$AA@ 0046be8c     w32_sub1.obj
 0002:00001e98       ??_C@_0O@CGLPHELO@XM7_Scheduler?$AA@ 0046be98     w32_sub1.obj
 0002:00001ea8       ??_C@_0BA@PDPLLHNE@?$CFs?$ID?$IM?$IDW?$IDX?$ID?$FO?5?$CI?$CFs?$CJ?$AA@ 0046bea8     w32_sub1.obj
 0002:00001eb8       ??_C@_0BE@NBLKBH@CC?5?5?5?$CF02X?5?5?5X?5?5?$CF04X?$AA@ 0046beb8     w32_sub1.obj
 0002:00001ecc       ??_C@_0BE@MOGPNAJA@A?5?5?5?5?$CF02X?5?5?5Y?5?5?$CF04X?$AA@ 0046becc     w32_sub1.obj
 0002:00001ee0       ??_C@_0BO@HOBDCLAM@B?5?5?5?5?$CF02X?5?5?5U?5?5?$CF04X?5?5?5IR?5?$CF04X?$AA@ 0046bee0     w32_sub1.obj
 0002:00001f00       ??_C@_0BO@HNOJMPFK@DP?5?5?5?$CF02X?5?5?5S?5?5?$CF04X?5?5?5PC?5?$CF04X?$AA@ 0046bf00     w32_sub1.obj
 0002:00001f20       ??_C@_0BE@JKNOMHPH@XM7_CPURegisterMain?$AA@ 0046bf20     w32_sub1.obj
 0002:00001f34       ??_C@_0BD@IDGDPPBF@XM7_CPURegisterSub?$AA@ 0046bf34     w32_sub1.obj
 0002:00001f48       ??_C@_0N@JHFLHDGO@?$CFd?0S?5?$CI$?$CF04X?$CJ?$AA@ 0046bf48     w32_sub1.obj
 0002:00001f58       ??_C@_0L@NGMJLIOD@?$CFd?5?3?5$?$CF04X?$AA@ 0046bf58     w32_sub1.obj
 0002:00001f64       ??_C@_0BC@BLJCAJMO@$?$CF1X0000?9$?$CF1XFFFF?$AA@ 0046bf64     w32_sub1.obj
 0002:00001f78       ??_C@_03GPCJOALC@?$CF2d?$AA@ 0046bf78     w32_sub1.obj
 0002:00001f7c       ??_C@_0P@DKILGJJD@XM7_DisAsmMain?$AA@ 0046bf7c     w32_sub1.obj
 0002:00001f8c       ??_C@_0O@NMCPODPF@XM7_DisAsmSub?$AA@ 0046bf8c     w32_sub1.obj
 0002:00001f9c       ??_C@_0L@ILGPDHNE@$?$CF05X?5?$CI?$CFs?$CJ?$AA@ 0046bf9c     w32_sub1.obj
 0002:00001fa8       ??_C@_0L@EHMFDHEK@$?$CF04X?5?$CI?$CFs?$CJ?$AA@ 0046bfa8     w32_sub1.obj
 0002:00001fb4       ??_C@_06BDMHMINI@Addr?5?5?$AA@ 0046bfb4     w32_sub1.obj
 0002:00001fbc       ??_C@_06GOIEOMMG@?5?$CL?$CF01X?$AA@ 0046bfbc     w32_sub1.obj
 0002:00001fc4       ??_C@_04KDMNDIPL@?5Sum?$AA@ 0046bfc4     w32_sub1.obj
 0002:00001fcc       ??_C@_05DIIONLLN@?$CF05X?3?$AA@ 0046bfcc     w32_sub1.obj
 0002:00001fd4       ??_C@_06LMJAJAIF@?$CF04X?5?3?$AA@ 0046bfd4     w32_sub1.obj
 0002:00001fdc       ??_C@_05OFBGOFBN@?5?$CF02X?$AA@ 0046bfdc     w32_sub1.obj
 0002:00001fe4       ??_C@_0BJ@JKEOMEIP@?5?3?$CF02X?5?5?4?4?4?4?4?4?4?4?4?4?4?4?4?4?4?4?$AA@ 0046bfe4     w32_sub1.obj
 0002:00002000       ??_C@_06PHDFMLIC@Sum?5?5?3?$AA@ 0046c000     w32_sub1.obj
 0002:00002008       ??_C@_06KEEIIDKB@?5?3?$CF02X?$AA@ 0046c008     w32_sub1.obj
 0002:00002010       ??_C@_0P@ONDEBFCG@XM7_MemoryMain?$AA@ 0046c010     w32_sub1.obj
 0002:00002020       ??_C@_0O@GOIBLIBE@XM7_MemorySub?$AA@ 0046c020     w32_sub1.obj
 0002:000023d8       ??_C@_04HAPALABO@PSET?$AA@ 0046c3d8     w32_sub2.obj
 0002:000023e0       ??_C@_04ECGLBLOI@?9?9?9?9?$AA@ 0046c3e0     w32_sub2.obj
 0002:000023e8       ??_C@_04MBNHLBPB@?5OR?5?$AA@ 0046c3e8     w32_sub2.obj
 0002:000023f0       ??_C@_04DFKFDCHF@?5AND?$AA@ 0046c3f0     w32_sub2.obj
 0002:000023f8       ??_C@_04FOOPFIA@?5XOR?$AA@ 0046c3f8     w32_sub2.obj
 0002:00002400       ??_C@_04CGMGFKEF@?5NOT?$AA@ 0046c400     w32_sub2.obj
 0002:00002408       ??_C@_04OGNMLJLK@TILE?$AA@ 0046c408     w32_sub2.obj
 0002:00002410       ??_C@_04LDEEJDPC@?5CMP?$AA@ 0046c410     w32_sub2.obj
 0002:00002418       ??_C@_0M@BJGGOCAK@Shared?5RAM?3?$AA@ 0046c418     w32_sub2.obj
 0002:00002424       ??_C@_06EEENPALP@?$CL?$CF02X?3?$AA@ 0046c424     w32_sub2.obj
 0002:0000242c       ??_C@_03PODBADAJ@?5On?$AA@ 0046c42c     w32_sub2.obj
 0002:00002430       ??_C@_03GCDBBDDL@Off?$AA@  0046c430     w32_sub2.obj
 0002:00002434       ??_C@_08EMJLFMLE@Sub?5Halt?$AA@ 0046c434     w32_sub2.obj
 0002:00002440       ??_C@_09KFGHHJBG@Busy?5Flag?$AA@ 0046c440     w32_sub2.obj
 0002:0000244c       ??_C@_0M@NAIOONHG@CRT?5Display?$AA@ 0046c44c     w32_sub2.obj
 0002:00002458       ??_C@_0L@GCMPKBMG@Cancel?5IRQ?$AA@ 0046c458     w32_sub2.obj
 0002:00002464       ??_C@_0P@EHEKGOPG@Attention?5FIRQ?$AA@ 0046c464     w32_sub2.obj
 0002:00002474       ??_C@_0BB@NBDKFEOG@VRAM?5Access?5Flag?$AA@ 0046c474     w32_sub2.obj
 0002:00002488       ??_C@_0M@MEDMCJLH@Sub?5Monitor?$AA@ 0046c488     w32_sub2.obj
 0002:00002494       ??_C@_06IHMPJPKH@Type?9C?$AA@ 0046c494     w32_sub2.obj
 0002:0000249c       ??_C@_06LFPJPNCF@Type?9A?$AA@ 0046c49c     w32_sub2.obj
 0002:000024a4       ??_C@_06JONEKOOG@Type?9B?$AA@ 0046c4a4     w32_sub2.obj
 0002:000024ac       ??_C@_06JLPJGGCJ@CG?5ROM?$AA@ 0046c4ac     w32_sub2.obj
 0002:000024b4       ??_C@_06DOMICCLJ@?5?5?5RAM?$AA@ 0046c4b4     w32_sub2.obj
 0002:000024bc       ??_C@_06MIIOAJGA@Type?9D?$AA@ 0046c4bc     w32_sub2.obj
 0002:000024c4       ??_C@_06NBJFDICB@Type?9E?$AA@ 0046c4c4     w32_sub2.obj
 0002:000024cc       ??_C@_0N@OFPFGAFL@Display?5Mode?$AA@ 0046c4cc     w32_sub2.obj
 0002:000024dc       ??_C@_07MMOPOLBL@640x400?$AA@ 0046c4dc     w32_sub2.obj
 0002:000024e4       ??_C@_07LNKKBCC@262?0144?$AA@ 0046c4e4     w32_sub2.obj
 0002:000024ec       ??_C@_07MCLEIPJJ@320x200?$AA@ 0046c4ec     w32_sub2.obj
 0002:000024f4       ??_C@_07OJIELEMH@640x200?$AA@ 0046c4f4     w32_sub2.obj
 0002:000024fc       ??_C@_06JBGHELCD@CG?5RAM?$AA@ 0046c4fc     w32_sub2.obj
 0002:00002504       ??_C@_08DOHMPJNI@Bank?5?$CF1d?$AA@ 0046c504     w32_sub2.obj
 0002:00002510       ??_C@_09MFEAFJII@Sub?5Reset?$AA@ 0046c510     w32_sub2.obj
 0002:0000251c       ??_C@_08KEKAJNJI@Software?$AA@ 0046c51c     w32_sub2.obj
 0002:00002528       ??_C@_08PPIOJEA@Hardware?$AA@ 0046c528     w32_sub2.obj
 0002:00002534       ??_C@_0O@EBOHPEDB@VRAM?5Offset?50?$AA@ 0046c534     w32_sub2.obj
 0002:00002544       ??_C@_05HKAKNLLJ@$?$CF04X?$AA@ 0046c544     w32_sub2.obj
 0002:0000254c       ??_C@_0O@FIPMMFHA@VRAM?5Offset?51?$AA@ 0046c54c     w32_sub2.obj
 0002:0000255c       ??_C@_0M@LDDOMDKC@Active?5Page?$AA@ 0046c55c     w32_sub2.obj
 0002:00002568       ??_C@_08BDNILHIM@Page?5?$CF1d?$AA@ 0046c568     w32_sub2.obj
 0002:00002574       ??_C@_0N@JPBMPKAC@Display?5Page?$AA@ 0046c574     w32_sub2.obj
 0002:00002584       ??_C@_0M@IPFFMBEA@Console?5RAM?$AA@ 0046c584     w32_sub2.obj
 0002:00002590       ??_C@_06FPIBFBBD@Bank?50?$AA@ 0046c590     w32_sub2.obj
 0002:00002598       ??_C@_0M@MBECBOMN@Sub?5Protect?$AA@ 0046c598     w32_sub2.obj
 0002:000025a4       ??_C@_07CLFMLKOH@?5Enable?$AA@ 0046c5a4     w32_sub2.obj
 0002:000025ac       ??_C@_07MIKIFGAL@Disable?$AA@ 0046c5ac     w32_sub2.obj
 0002:000025b4       ??_C@_0N@MJNFHNBH@Active?5Block?$AA@ 0046c5b4     w32_sub2.obj
 0002:000025c4       ??_C@_09JPNOHIFO@Block?5?$CF1d?$AA@ 0046c5c4     w32_sub2.obj
 0002:000025d0       ??_C@_0O@BPCPPMMG@Display?5Block?$AA@ 0046c5d0     w32_sub2.obj
 0002:000025e0       ??_C@_0N@BICBIEGF@Window?5Start?$AA@ 0046c5e0     w32_sub2.obj
 0002:000025f0       ??_C@_0L@GNAFJDIO@Window?5End?$AA@ 0046c5f0     w32_sub2.obj
 0002:000025fc       ??_C@_09GMGLOBEI@?$CI?$CF3d?0?$CF3d?$CJ?$AA@ 0046c5fc     w32_sub2.obj
 0002:00002608       ??_C@_09OCKLKOAG@?$CI?5?50?0?5?50?$CJ?$AA@ 0046c608     w32_sub2.obj
 0002:00002614       ??_C@_0M@MBLDHOFD@XM7_SubCtrl?$AA@ 0046c614     w32_sub2.obj
 0002:00002620       ??_C@_03EDFPMCAO@ALU?$AA@  0046c620     w32_sub2.obj
 0002:00002624       ??_C@_04EEJGBEDO@?5Off?$AA@ 0046c624     w32_sub2.obj
 0002:0000262c       ??_C@_0L@KFMLJKED@Write?5Mode?$AA@ 0046c62c     w32_sub2.obj
 0002:00002638       ??_C@_06GDBAHNIH@Not?5Eq?$AA@ 0046c638     w32_sub2.obj
 0002:00002640       ??_C@_06OKLFJOKP@?5Equal?$AA@ 0046c640     w32_sub2.obj
 0002:00002648       ??_C@_06GIIDEEDO@Always?$AA@ 0046c648     w32_sub2.obj
 0002:00002650       ??_C@_0BJ@OHEONOFH@Color?5?5?5?5?5?5?5?5?5?5?5?5?5?5?5?$CF01d?$AA@ 0046c650     w32_sub2.obj
 0002:0000266c       ??_C@_0BI@FDJHKNKF@Mask?5?5?5?5?5?5?5?5?5?5?5?5?5?5?5?$CF02X?$AA@ 0046c66c     w32_sub2.obj
 0002:00002684       ??_C@_0BG@MJECBFAM@Compare?5?5?5?5?5?5?9?9?9?9?9?9?9?9?$AA@ 0046c684     w32_sub2.obj
 0002:0000269c       ??_C@_0BG@DHKCMGCP@Disable?5?5?5?5?5?5?5?5?5?5?5BRG?$AA@ 0046c69c     w32_sub2.obj
 0002:000026b4       ??_C@_0BM@KECOEKBE@TILE?5?5?5B?3?$CF02X?5R?3?$CF02X?5G?3?$CF02X?$AA@ 0046c6b4     w32_sub2.obj
 0002:000026d0       ??_C@_05JPAJBEFL@?5Busy?$AA@ 0046c6d0     w32_sub2.obj
 0002:000026d8       ??_C@_05GMBADOLI@Ready?$AA@ 0046c6d8     w32_sub2.obj
 0002:000026e0       ??_C@_0BG@JLKICNIA@Offset?5?5?5?5?5?5?5?5?5?5?5?$CF04X?$AA@ 0046c6e0     w32_sub2.obj
 0002:000026f8       ??_C@_0BG@ICKLIFKJ@Line?5Style?5?5?5?5?5?5?5?$CF04X?$AA@ 0046c6f8     w32_sub2.obj
 0002:00002710       ??_C@_0BG@CHPANLFA@Line?5X0?5?5?5?5?5?5?5?5?5?5?5?$CF3d?$AA@ 0046c710     w32_sub2.obj
 0002:00002728       ??_C@_0BG@KAFGBABD@Line?5Y0?5?5?5?5?5?5?5?5?5?5?5?$CF3d?$AA@ 0046c728     w32_sub2.obj
 0002:00002740       ??_C@_0BG@IJJIEKMB@Line?5X1?5?5?5?5?5?5?5?5?5?5?5?$CF3d?$AA@ 0046c740     w32_sub2.obj
 0002:00002758       ??_C@_0BG@ODOIBIC@Line?5Y1?5?5?5?5?5?5?5?5?5?5?5?$CF3d?$AA@ 0046c758     w32_sub2.obj
 0002:00002770       ??_C@_0M@DPHEGGFP@XM7_ALULine?$AA@ 0046c770     w32_sub2.obj
 0002:0000277c       ??_C@_06JCFLEJDO@PSG?$CF1d?$AA@ 0046c77c     w32_sub2.obj
 0002:00002784       ??_C@_06IIEJLFMG@OPN?$CF1d?$AA@ 0046c784     w32_sub2.obj
 0002:0000278c       ??_C@_06DOONIFOI@WHG?$CF1d?$AA@ 0046c78c     w32_sub2.obj
 0002:00002794       ??_C@_06PAFJPHF@THG?$CF1d?$AA@ 0046c794     w32_sub2.obj
 0002:0000279c       ??_C@_07ENALJEAF@F?3$?$CF04X?$AA@ 0046c79c     w32_sub2.obj
 0002:000027a4       ??_C@_07PHNPKMKJ@P?3$?$CF04X?$AA@ 0046c7a4     w32_sub2.obj
 0002:000027ac       ??_C@_0P@GKOPHPLO@MUTE?5?5?5?5?5?5?5?5?5?5?$AA@ 0046c7ac     w32_sub2.obj
 0002:000027bc       ??_C@_06FJMBHFHI@V?3?$CF03d?$AA@ 0046c7bc     w32_sub2.obj
 0002:000027c4       ??_C@_08IGDHIFIL@KEYON?5?5?5?$AA@ 0046c7c4     w32_sub2.obj
 0002:000027d0       ??_C@_08GGFKNFHG@?5?5?5?5?5?5?5?5?$AA@ 0046c7d0     w32_sub2.obj
 0002:000027dc       ??_C@_09CKILHPOO@T?5?$CL?5N?3?$CF2d?$AA@ 0046c7dc     w32_sub2.obj
 0002:000027e8       ??_C@_09LMFELNAJ@NOISE?3?$CF2d?$AA@ 0046c7e8     w32_sub2.obj
 0002:000027f4       ??_C@_08EBGOFMOJ@TONE?5?5?5?5?$AA@ 0046c7f4     w32_sub2.obj
 0002:00002800       ??_C@_0M@PAKKONHJ@XM7_OPNDisp?$AA@ 0046c800     w32_sub2.obj
 0002:0000280c       ??_C@_0CB@NALJPAOB@?$CL0?$CL1?$CL2?$CL3?$CL4?$CL5?$CL6?$CL7?$CL8?$CL9?$CLA?$CLB?$CLC?$CLD?$CLE?$CLF@ 0046c80c     w32_sub2.obj
 0002:00002830       ??_C@_02BAABKJLB@?9?9?$AA@ 0046c830     w32_sub2.obj
 0002:00002834       ??_C@_0CB@FFDHOKHP@Prescaler?5?5?5FM?5?3?5?9?1?9?5?5?5PSG?5?3?51?12@ 0046c834     w32_sub2.obj
 0002:00002858       ??_C@_0CD@OGLCAGHF@Prescaler?5?5?5FM?5?3?51?1?$CFd?5?5?5PSG?5?3?51?1@ 0046c858     w32_sub2.obj
 0002:0000287c       ??_C@_05IPNBBFNO@?$CL?$CF02X?$AA@ 0046c87c     w32_sub2.obj
 0002:00002884       ??_C@_0BH@NCGLEMCO@PSG?5?$CIStandard?5?1?5fmgen?$CJ?$AA@ 0046c884     w32_sub2.obj
 0002:0000289c       ??_C@_0BH@CCMNKHHC@OPN?5?$CIStandard?5?1?5ROMEO?$CJ?$AA@ 0046c89c     w32_sub2.obj
 0002:000028b4       ??_C@_0BH@CGEJDGEC@OPN?5?$CIStandard?5?1?5fmgen?$CJ?$AA@ 0046c8b4     w32_sub2.obj
 0002:000028cc       ??_C@_0BO@LMEFCMBA@WHG?5?$CIExtension?5?1?5ROMEO?$CLfmgen?$CJ?$AA@ 0046c8cc     w32_sub2.obj
 0002:000028ec       ??_C@_0BI@JEOEINA@WHG?5?$CIExtension?5?1?5fmgen?$CJ?$AA@ 0046c8ec     w32_sub2.obj
 0002:00002904       ??_C@_0BI@FBFAOBPI@THG?5?$CIExtension?5?1?5fmgen?$CJ?$AA@ 0046c904     w32_sub2.obj
 0002:0000291c       ??_C@_0L@KHLNGKNO@XM7_OPNReg?$AA@ 0046c91c     w32_sub2.obj
 0002:00002928       ??_C@_07MMIDIINJ@DISABLE?$AA@ 0046c928     w32_sub2.obj
 0002:00002930       ??_C@_08JHHMBMPN@2DD?5Mode?$AA@ 0046c930     w32_sub2.obj
 0002:0000293c       ??_C@_08GFMKNHFI@DMA?5?$CF04X?$AA@ 0046c93c     w32_sub2.obj
 0002:00002948       ??_C@_0L@DGELPCDD@NO?5COMMAND?$AA@ 0046c948     w32_sub2.obj
 0002:00002954       ??_C@_07PNCFJEFE@RESTORE?$AA@ 0046c954     w32_sub2.obj
 0002:0000295c       ??_C@_04IPHIMMBD@SEEK?$AA@ 0046c95c     w32_sub2.obj
 0002:00002964       ??_C@_04MOOLDHHD@STEP?$AA@ 0046c964     w32_sub2.obj
 0002:0000296c       ??_C@_07EAOLDGPJ@STEP?5IN?$AA@ 0046c96c     w32_sub2.obj
 0002:00002974       ??_C@_08CPOOCKJD@STEP?5OUT?$AA@ 0046c974     w32_sub2.obj
 0002:00002980       ??_C@_08EAFMMDOG@?$CITYPE?5I?$CJ?$AA@ 0046c980     w32_sub2.obj
 0002:0000298c       ??_C@_0BE@JHPCJMAP@Step?5Rate?5?5?5?5?5?$CF2dms?$AA@ 0046c98c     w32_sub2.obj
 0002:000029a0       ??_C@_06NDEBMOO@Verify?$AA@ 0046c9a0     w32_sub2.obj
 0002:000029a8       ??_C@_0N@JBAODDHG@Head?5?5?5?5?5?5?5?5?$AA@ 0046c9a8     w32_sub2.obj
 0002:000029b8       ??_C@_06BMEAEBIC@?5?5Load?$AA@ 0046c9b8     w32_sub2.obj
 0002:000029c0       ??_C@_06FGIDPKBG@Unload?$AA@ 0046c9c0     w32_sub2.obj
 0002:000029c8       ??_C@_0N@LPLKJNLI@Update?5Track?$AA@ 0046c9c8     w32_sub2.obj
 0002:000029d8       ??_C@_0BA@OGCLABAM@FORCE?5INTERRUPT?$AA@ 0046c9d8     w32_sub2.obj
 0002:000029e8       ??_C@_09FCMCKLAI@?$CITYPE?5IV?$CJ?$AA@ 0046c9e8     w32_sub2.obj
 0002:000029f4       ??_C@_09KOKFDNMO@READY?5?5In?$AA@ 0046c9f4     w32_sub2.obj
 0002:00002a00       ??_C@_09FALMDMLE@READY?5Out?$AA@ 0046ca00     w32_sub2.obj
 0002:00002a0c       ??_C@_05JBOMLEMN@INDEX?$AA@ 0046ca0c     w32_sub2.obj
 0002:00002a14       ??_C@_08IKGHKJGC@One?5Shot?$AA@ 0046ca14     w32_sub2.obj
 0002:00002a20       ??_C@_09GLECCIGC@READ?5DATA?$AA@ 0046ca20     w32_sub2.obj
 0002:00002a2c       ??_C@_0L@MGNCPOLA@WRITE?5DATA?$AA@ 0046ca2c     w32_sub2.obj
 0002:00002a38       ??_C@_0N@ODDEGJEI@READ?5ADDRESS?$AA@ 0046ca38     w32_sub2.obj
 0002:00002a48       ??_C@_0L@PAIPEIJI@READ?5TRACK?$AA@ 0046ca48     w32_sub2.obj
 0002:00002a54       ??_C@_0M@JIPPGLLG@WRITE?5TRACK?$AA@ 0046ca54     w32_sub2.obj
 0002:00002a60       ??_C@_09EFLIEPEF@?$CITYPE?5II?$CJ?$AA@ 0046ca60     w32_sub2.obj
 0002:00002a6c       ??_C@_0N@DEFAAKAE@Multi?5Sector?$AA@ 0046ca6c     w32_sub2.obj
 0002:00002a7c       ??_C@_0BA@CJNKPAPG@Compare?5Side?5?5?5?$AA@ 0046ca7c     w32_sub2.obj
 0002:00002a8c       ??_C@_03JJICPPMO@?5?50?$AA@ 0046ca8c     w32_sub2.obj
 0002:00002a90       ??_C@_03IAJJMOIP@?5?51?$AA@ 0046ca90     w32_sub2.obj
 0002:00002a94       ??_C@_0M@ONFNAOCP@Addr?4?5Mark?5?$AA@ 0046ca94     w32_sub2.obj
 0002:00002aa0       ??_C@_07GLLACIHM@Deleted?$AA@ 0046caa0     w32_sub2.obj
 0002:00002aa8       ??_C@_07EEDOOIKG@?5Normal?$AA@ 0046caa8     w32_sub2.obj
 0002:00002ab0       ??_C@_0L@KGCFJJL@?$CITYPE?5III?$CJ?$AA@ 0046cab0     w32_sub2.obj
 0002:00002abc       ??_C@_0BD@IEBPPDPE@Total?5Bytes?5?5?5?$CF04X?$AA@ 0046cabc     w32_sub2.obj
 0002:00002ad0       ??_C@_0BD@KBLAOJMA@Xfer?4?5Bytes?5?5?5?$CF04X?$AA@ 0046cad0     w32_sub2.obj
 0002:00002ae4       ??_C@_0O@GGAIPNOG@Drive?5?$CF1d?1?$CF1d?$AA@ 0046cae4     w32_sub2.obj
 0002:00002af4       ??_C@_05KBHLMHKJ@?$CI?5On?$CJ?$AA@ 0046caf4     w32_sub2.obj
 0002:00002afc       ??_C@_05GJDAJGDJ@?$CIOff?$CJ?$AA@ 0046cafc     w32_sub2.obj
 0002:00002b04       ??_C@_0BB@HLGLCHKN@Track?5?5?5?5?5?5?5?$CF02X?$AA@ 0046cb04     w32_sub2.obj
 0002:00002b18       ??_C@_0BB@GOLFIEOJ@Track?5?5Reg?4?5?$CF02X?$AA@ 0046cb18     w32_sub2.obj
 0002:00002b2c       ??_C@_0BB@OOPJLHHB@Sector?5Reg?4?5?$CF02X?$AA@ 0046cb2c     w32_sub2.obj
 0002:00002b40       ??_C@_0BB@GDNKDGLE@Side?5?5?5Reg?4?5?$CF02X?$AA@ 0046cb40     w32_sub2.obj
 0002:00002b54       ??_C@_0BB@HKMEFMJJ@Data?5?5?5Reg?4?5?$CF02X?$AA@ 0046cb54     w32_sub2.obj
 0002:00002b68       ??_C@_03GFFHJEC@DRQ?$AA@   0046cb68     w32_sub2.obj
 0002:00002b6c       ??_C@_03PEDPKBJP@IRQ?$AA@  0046cb6c     w32_sub2.obj
 0002:00002b70       ??_C@_06BAKFHNIC@bit?$CFd?5?$AA@ 0046cb70     w32_sub2.obj
 0002:00002b78       ??_C@_04OCLOIKKP@BUSY?$AA@ 0046cb78     w32_sub2.obj
 0002:00002b80       ??_C@_0N@DHGBGMHO@DATA?5REQUEST?$AA@ 0046cb80     w32_sub2.obj
 0002:00002b90       ??_C@_07JDJENCDL@TRACK00?$AA@ 0046cb90     w32_sub2.obj
 0002:00002b98       ??_C@_09JOELLJDP@LOST?5DATA?$AA@ 0046cb98     w32_sub2.obj
 0002:00002ba4       ??_C@_09NCPKILDO@CRC?5ERROR?$AA@ 0046cba4     w32_sub2.obj
 0002:00002bb0       ??_C@_0L@KNPBKNML@SEEK?5ERROR?$AA@ 0046cbb0     w32_sub2.obj
 0002:00002bbc       ??_C@_0BB@GCHBFGFG@RECORD?5NOT?5FOUND?$AA@ 0046cbbc     w32_sub2.obj
 0002:00002bd0       ??_C@_0N@FLKDPECD@HEAD?5ENGAGED?$AA@ 0046cbd0     w32_sub2.obj
 0002:00002be0       ??_C@_0M@LNBMCEOP@RECORD?5TYPE?$AA@ 0046cbe0     w32_sub2.obj
 0002:00002bec       ??_C@_0M@OINMKMBP@WRITE?5FAULT?$AA@ 0046cbec     w32_sub2.obj
 0002:00002bf8       ??_C@_0O@EIKLNBPD@WRITE?5PROTECT?$AA@ 0046cbf8     w32_sub2.obj
 0002:00002c08       ??_C@_09GNOLCKHA@NOT?5READY?$AA@ 0046cc08     w32_sub2.obj
 0002:00002c14       ??_C@_0BB@OAGJBGHP@?9?9?9?9?9?9?9?9?9?9?9?9?9?9?9?9?$AA@ 0046cc14     w32_sub2.obj
 0002:00002c28       ??_C@_07IIEGINGI@XM7_FDC?$AA@ 0046cc28     w32_sub2.obj
 0002:00002c30       __real@4010000000000000    0046cc30     w32_sub2.obj
 0002:00002c38       __real@4020000000000000    0046cc38     w32_sub2.obj
 0002:00002c40       __real@403fc5a1cac08312    0046cc40     w32_sub2.obj
 0002:00002c48       __real@40bfc5ae56041893    0046cc48     w32_sub2.obj
 0002:00002c50       __real@4132c00000000000    0046cc50     w32_sub2.obj
 0002:00002c58       __real@4168000000000000    0046cc58     w32_sub2.obj
 0002:00002c60       __xmm@00000003000000020000000100000000 0046cc60     w32_sub2.obj
 0002:00002c70       __xmm@20202020202020202020202020202020 0046cc70     w32_sub2.obj
 0002:00002c80       __xmm@fffffffefffffffefffffffefffffffe 0046cc80     w32_sub2.obj
 0002:00002c90       __xmm@ffffffffffffffffffffffffffffffff 0046cc90     w32_sub2.obj
 0002:00002cc0       ??_C@_08GFPEJPCC@MMR?5Map?3?$AA@ 0046ccc0     w32_sub3.obj
 0002:00002ccc       ??_C@_0M@JKLDGNEH@Segment?5?$CFd?9?$AA@ 0046cccc     w32_sub3.obj
 0002:00002cd8       ??_C@_0BF@DAAPOGBO@Physical?5Memory?5Map?3?$AA@ 0046ccd8     w32_sub3.obj
 0002:00002cf0       ??_C@_0L@DHHCMNMH@Extend?50?5?5?$AA@ 0046ccf0     w32_sub3.obj
 0002:00002cfc       ??_C@_0L@GKMCJKEK@Sub?5CPU?5?5?5?$AA@ 0046ccfc     w32_sub3.obj
 0002:00002d08       ??_C@_0L@OOKLFFPL@Japanese?5?5?$AA@ 0046cd08     w32_sub3.obj
 0002:00002d14       ??_C@_0M@JGDIJBPN@Extend?5?$CFX?5?5?$AA@ 0046cd14     w32_sub3.obj
 0002:00002d20       ??_C@_0L@CCDBPCAK@Standard?5?5?$AA@ 0046cd20     w32_sub3.obj
 0002:00002d2c       ??_C@_0BF@JODFGNPI@MMR?5?5Enable?$CISeg?3?$CF1d?$CJ?$AA@ 0046cd2c     w32_sub3.obj
 0002:00002d44       ??_C@_0BD@GIENEMEN@MMR?5?5?5?5?5?5?5?5Disable?$AA@ 0046cd44     w32_sub3.obj
 0002:00002d58       ??_C@_0BF@LNBPACDF@TWR?5?5Enable?$CI$?$CF02X00?$CJ?$AA@ 0046cd58     w32_sub3.obj
 0002:00002d70       ??_C@_0BD@JJGKHDAN@TWR?5?5?5?5?5?5?5?5Disable?$AA@ 0046cd70     w32_sub3.obj
 0002:00002d84       ??_C@_0BD@CNFBFEKI@DIC?5?5?5?5?5?5?5?5Disable?$AA@ 0046cd84     w32_sub3.obj
 0002:00002d98       ??_C@_0BG@OLGFBCGJ@DIC?5?5ExtROM?$CIBank?5?$CF2d?$CJ?$AA@ 0046cd98     w32_sub3.obj
 0002:00002db0       ??_C@_0BG@JCGJKKFO@DIC?5?5Enable?$CIBank?5?$CF2d?$CJ?$AA@ 0046cdb0     w32_sub3.obj
 0002:00002dc8       ??_C@_0BE@EIIBDLDL@Boot?5RAM?5?5?5?5?5?5?5?5?5R?1?$AA@ 0046cdc8     w32_sub3.obj
 0002:00002ddc       ??_C@_0O@DCAOICDN@Initiate?5ROM?5?$AA@ 0046cddc     w32_sub3.obj
 0002:00002dec       ??_C@_0O@ODIDOKFN@Extend?5MMR?5?5?5?$AA@ 0046cdec     w32_sub3.obj
 0002:00002dfc       ??_C@_07DEPBCPG@XM7_MMR?$AA@ 0046cdfc     w32_sub3.obj
 0002:00002e04       ??_C@_0BG@IJCMCKBI@Logical?5Code?5?5?5?5?5?$CF04X?$AA@ 0046ce04     w32_sub3.obj
 0002:00002e1c       ??_C@_0BI@FHJPMKDB@Scan?5Code?5?5?5?5?5?5?5?5?5?5?$CF02X?$AA@ 0046ce1c     w32_sub3.obj
 0002:00002e34       ??_C@_0N@PJKIDFE@Code?5Format?5?$AA@ 0046ce34     w32_sub3.obj
 0002:00002e44       ??_C@_09POOBBAII@?5?5?5?5?5FM?97?$AA@ 0046ce44     w32_sub3.obj
 0002:00002e50       ??_C@_09BPJNKPJN@FM?916Beta?$AA@ 0046ce50     w32_sub3.obj
 0002:00002e5c       ??_C@_09EPFECMO@?5?5?5?5?5Scan?$AA@ 0046ce5c     w32_sub3.obj
 0002:00002e68       ??_C@_0BF@HOGAMGCM@Repeat?5Time?51?5?5?$CF4dms?$AA@ 0046ce68     w32_sub3.obj
 0002:00002e80       ??_C@_0BF@EHONPKOJ@Repeat?5Time?52?5?5?$CF4dms?$AA@ 0046ce80     w32_sub3.obj
 0002:00002e98       ??_C@_08MNOAPHMK@CAP?5?5LED?$AA@ 0046ce98     w32_sub3.obj
 0002:00002ea4       ??_C@_08ICHBGOLO@KANA?5LED?$AA@ 0046cea4     w32_sub3.obj
 0002:00002eb0       ??_C@_08LAAGHFGF@INS?5?5LED?$AA@ 0046ceb0     w32_sub3.obj
 0002:00002ebc       ??_C@_05OAHIEJBI@SHIFT?$AA@ 0046cebc     w32_sub3.obj
 0002:00002ec4       ??_C@_0BM@JMADHELB@RTC?5Date?5?5?5?5?5?$CF02d?1?$CF02d?1?$CF02d?$AA@ 0046cec4     w32_sub3.obj
 0002:00002ee0       ??_C@_0BM@GIPHLLIK@RTC?5Time?5?5?5?5?5?$CF02d?3?$CF02d?3?$CF02d?$AA@ 0046cee0     w32_sub3.obj
 0002:00002efc       ??_C@_0M@GOLICDBG@RTC?512h?124h?$AA@ 0046cefc     w32_sub3.obj
 0002:00002f08       ??_C@_03KNPLMCK@24h?$AA@   0046cf08     w32_sub3.obj
 0002:00002f0c       ??_C@_03BMOHGPHG@12h?$AA@  0046cf0c     w32_sub3.obj
 0002:00002f10       ??_C@_09FDNIMILF@RTC?5AM?1PM?$AA@ 0046cf10     w32_sub3.obj
 0002:00002f1c       ??_C@_02CJNFDJBF@PM?$AA@   0046cf1c     w32_sub3.obj
 0002:00002f20       ??_C@_02DEDBPAFC@AM?$AA@   0046cf20     w32_sub3.obj
 0002:00002f24       ??_C@_0O@BBPGOPHG@RTC?5Leap?5Mode?$AA@ 0046cf24     w32_sub3.obj
 0002:00002f34       ??_C@_03GNGPFOOL@?$CF1d?$AA@ 0046cf34     w32_sub3.obj
 0002:00002f38       ??_C@_0BA@LPOCELIE@Super?5Impose?5?5?5?$AA@ 0046cf38     w32_sub3.obj
 0002:00002f48       ??_C@_02IAAGKKDJ@On?$AA@   0046cf48     w32_sub3.obj
 0002:00002f4c       ??_C@_02IHOKFKFD@TV?$AA@   0046cf4c     w32_sub3.obj
 0002:00002f50       ??_C@_0O@NFIAIGBD@Brightness?5?5?5?$AA@ 0046cf50     w32_sub3.obj
 0002:00002f60       ??_C@_04KAKOHFGJ@Half?$AA@ 0046cf60     w32_sub3.obj
 0002:00002f68       ??_C@_04DKAKODEK@Full?$AA@ 0046cf68     w32_sub3.obj
 0002:00002f70       ??_C@_0L@NDCGLIO@Digitize?5?5?$AA@ 0046cf70     w32_sub3.obj
 0002:00002f7c       ??_C@_0N@JINJMLMI@Key?5Wait?5?5?5?5?$AA@ 0046cf7c     w32_sub3.obj
 0002:00002f8c       ??_C@_05EMGNJEIK@?5Wait?$AA@ 0046cf8c     w32_sub3.obj
 0002:00002f94       ??_C@_0N@HCJMACOO@XM7_Keyboard?$AA@ 0046cf94     w32_sub3.obj
 0002:00002fa4       ??_C@_06PGDKHFME@Status?$AA@ 0046cfa4     w32_sub3.obj
 0002:00002fac       ??_C@_0N@LJLCMHJF@Request?5Mode?$AA@ 0046cfac     w32_sub3.obj
 0002:00002fbc       ??_C@_0M@EOJAHBDC@?5?5?5?5?5?5Burst?$AA@ 0046cfbc     w32_sub3.obj
 0002:00002fc8       ??_C@_0M@JLGENELN@Cycle?5Steal?$AA@ 0046cfc8     w32_sub3.obj
 0002:00002fd4       ??_C@_09DAPGLLEF@Direction?$AA@ 0046cfd4     w32_sub3.obj
 0002:00002fe0       ??_C@_0P@MAIPLEFB@Memory?9?$DODevice?$AA@ 0046cfe0     w32_sub3.obj
 0002:00002ff0       ??_C@_0P@ELEENEM@Device?9?$DOMemory?$AA@ 0046cff0     w32_sub3.obj
 0002:00003000       ??_C@_0BA@GIGHHMPE@Address?5Inc?1Dec?$AA@ 0046d000     w32_sub3.obj
 0002:00003010       ??_C@_09IEDKOCBO@Decrement?$AA@ 0046d010     w32_sub3.obj
 0002:0000301c       ??_C@_09PDJBPHHD@Increment?$AA@ 0046d01c     w32_sub3.obj
 0002:00003028       ??_C@_0BP@FDMIDCFG@Address?5?5?5?5?5?5?5?5?5?5?5?5?5?5?5?5?5?5$?$CF04X?$AA@ 0046d028     w32_sub3.obj
 0002:00003048       ??_C@_0BP@DNHKILGI@Byte?5Count?5?5?5?5?5?5?5?5?5?5?5?5?5?5?5$?$CF04X?$AA@ 0046d048     w32_sub3.obj
 0002:00003068       ??_C@_04NGHFHEKP@DEND?$AA@ 0046d068     w32_sub3.obj
 0002:00003070       ??_C@_04JGFNHPFB@TxRQ?$AA@ 0046d070     w32_sub3.obj
 0002:00003078       ??_C@_07FIPNBGJB@?5?5?5Mask?$AA@ 0046d078     w32_sub3.obj
 0002:00003080       ??_C@_08JMPJHLKF@XM7_DMAC?$AA@ 0046d080     w32_sub3.obj
 0002:0000308c       ??_C@_0M@MDDOFLLA@ACTIVE?5PAGE?$AA@ 0046d08c     w32_sub3.obj
 0002:00003098       ??_C@_03JMFMNIFM@?9?9?9?$AA@ 0046d098     w32_sub3.obj
 0002:0000309c       ??_C@_0N@PHCNLJOI@DISPLAY?5PAGE?$AA@ 0046d09c     w32_sub3.obj
 0002:000030ac       ??_C@_0M@IIEAKGDE@TTL?5PALETTE?$AA@ 0046d0ac     w32_sub3.obj
 0002:000030b8       ??_C@_0P@MCFMAKAM@ANALOG?5PALETTE?$AA@ 0046d0b8     w32_sub3.obj
 0002:000030c8       ??_C@_0M@HNGJLNEC@XM7_Palette?$AA@ 0046d0c8     w32_sub3.obj
 0002:000030d4       ??_C@_0BI@PEABDOHI@V3?44?5L77SX?5?$CI2017?112?123?$CJ?$AA@ 0046d0d4     w32_ver.obj
 0002:000030f0       ?notetable@Operator@FM@@0QBEB 0046d0f0     fmgen.obj
 0002:00003170       ?dttable@Operator@FM@@0QBCB 0046d170     fmgen.obj
 0002:00003270       ?decaytable1@Operator@FM@@0QAY07$$CBCA 0046d270     fmgen.obj
 0002:00003470       ?decaytable2@Operator@FM@@0QBHB 0046d470     fmgen.obj
 0002:000034b0       ?attacktable@Operator@FM@@0QAY07$$CBCA 0046d4b0     fmgen.obj
 0002:000036b0       ?fbtable@Channel4@FM@@0QBEB 0046d6b0     fmgen.obj
 0002:00003780       __real@3f50000000000000    0046d780     fmgen.obj
 0002:00003788       __real@3f70000000000000    0046d788     fmgen.obj
 0002:00003790       __real@3fe0000000000000    0046d790     fmgen.obj
 0002:00003798       __real@3fe3333333333333    0046d798     fmgen.obj
 0002:000037a0       __real@4000000000000000    0046d7a0     fmgen.obj
 0002:000037a8       __real@400921fb54442d18    0046d7a8     fmgen.obj
 0002:000037b0       __real@402a000000000000    0046d7b0     fmgen.obj
 0002:000037b8       __real@40f0000000000000    0046d7b8     fmgen.obj
 0002:000037c0       __real@c070000000000000    0046d7c0     fmgen.obj
 0002:000037d0       __xmm@40000000000000004000000000000000 0046d7d0     fmgen.obj
 0002:000037e0       __xmm@40880000000000004088000000000000 0046d7e0     fmgen.obj
 0002:000037f0       __xmm@40f000000000000040f0000000000000 0046d7f0     fmgen.obj
 0002:00003800       __xmm@41f00000000000000000000000000000 0046d800     fmgen.obj
 0002:00003814       ??_7OPNBase@FM@@6B@        0046d814     opna.obj
 0002:0000381c       ??_7OPN@FM@@6B@            0046d81c     opna.obj
 0002:00003850       __real@4024000000000000    0046d850     opna.obj
 0002:00003858       __real@4044000000000000    0046d858     opna.obj
 0002:00003860       __real@40d0000000000000    0046d860     opna.obj
 0002:00003868       __real@3ff306fe0a318737    0046d868     psg.obj
 0002:00003870       __real@40b0000000000000    0046d870     psg.obj
 0002:00003878       __real@40b5555555555555    0046d878     psg.obj
 0002:00003880       __real@4130000000000000    0046d880     psg.obj
 0002:00003888       __real@4150000000000000    0046d888     psg.obj
 0002:00003890       ??_C@_0BC@CHFENAPF@MonitorFromWindow?$AA@ 0046d890     w32_dd.obj
 0002:000038a4       ??_C@_0BA@KIAMMEPJ@GetMonitorInfoA?$AA@ 0046d8a4     w32_dd.obj
 0002:000038b4       ??_C@_09FCFFOIDA@ddraw?4dll?$AA@ 0046d8b4     w32_dd.obj
 0002:000038c0       ??_C@_0BH@GFMHGGLD@DirectDrawEnumerateExA?$AA@ 0046d8c0     w32_dd.obj
 0002:00003928       __real@4096800000000000    0046d928     w32_lpr.obj
 0002:00003930       __real@40c3b00000000000    0046d930     w32_lpr.obj
 0002:00003938       ??_C@_0N@PMMDNPIB@RELAY_ON?4WAV?$AA@ 0046d938     w32_snd.obj
 0002:00003948       ??_C@_0N@PJLDCJBE@RELAYOFF?4WAV?$AA@ 0046d948     w32_snd.obj
 0002:00003958       ??_C@_0M@EGCIEMCH@FDDSEEK?4WAV?$AA@ 0046d958     w32_snd.obj
 0002:00003970       ??_C@_04EPCGJKAP@RIFF?$AA@ 0046d970     w32_snd.obj
 0002:00003978       ??_C@_08OMCAALNC@WAVEfmt?5?$AA@ 0046d978     w32_snd.obj
 0002:00003984       ??_C@_04PJOLNDGD@data?$AA@ 0046d984     w32_snd.obj
 0002:0000398c       ??_C@_0BB@NOBJEIAO@RIFF?$JG?E?$IOEWAVEfmt?5?$AA@ 0046d98c     w32_snd.obj
 0002:000039a0       ??_C@_08KGMHPCFF@data?$JG?E?$IOE?$AA@ 0046d9a0     w32_snd.obj
 0002:000039b0       __real@3f60000000000000    0046d9b0     w32_snd.obj
 0002:000039b8       __real@4034000000000000    0046d9b8     w32_snd.obj
 0002:000039c0       __real@404e000000000000    0046d9c0     w32_snd.obj
 0002:000039c8       __real@40dfffc000000000    0046d9c8     w32_snd.obj
 0002:00003a18       ??_C@_0BC@DCDDCDDC@_pciFindPciDevice?$AA@ 0046da18     juliet.obj
 0002:00003a2c       ??_C@_0BD@PDKAGKOL@_pciConfigReadLong?$AA@ 0046da2c     juliet.obj
 0002:00003a40       ??_C@_0O@DBDBCIJE@_MemWriteChar?$AA@ 0046da40     juliet.obj
 0002:00003a50       ??_C@_0P@FPAJKPCP@_MemWriteShort?$AA@ 0046da50     juliet.obj
 0002:00003a60       ??_C@_0O@BCFPCGNF@_MemWriteLong?$AA@ 0046da60     juliet.obj
 0002:00003a70       ??_C@_0N@LKPBNCLJ@_MemReadChar?$AA@ 0046da70     juliet.obj
 0002:00003a80       ??_C@_0O@BKFNDDKA@_MemReadShort?$AA@ 0046da80     juliet.obj
 0002:00003a90       ??_C@_0N@JJJPNMPI@_MemReadLong?$AA@ 0046da90     juliet.obj
 0002:00003aa0       ??_C@_0N@ILINDDCL@pcidebug?4dll?$AA@ 0046daa0     juliet.obj
 0002:00003ab0       __real@3fea0aaaaaaaaaab    0046dab0     juliet.obj
 0002:00003ab8       __real@3fed7dbf487fcb92    0046dab8     juliet.obj
 0002:00003ac0       __xmm@7f7f7f7f7f7f7f7f7f7f7f7f7f7f7f7f 0046dac0     juliet.obj
 0002:00003ad0       _c_dfDIMouse               0046dad0     dinput:dilib1.obj
 0002:00003ae8       _c_dfDIKeyboard            0046dae8     dinput:dilib2.obj
 0002:00003b00       _GUID_SysKeyboard          0046db00     dxguid:dxguid.obj
 0002:00003b10       _GUID_SysMouse             0046db10     dxguid:dxguid.obj
 0002:00003b20       _GUID_Key                  0046db20     dxguid:dxguid.obj
 0002:00003b30       _GUID_ZAxis                0046db30     dxguid:dxguid.obj
 0002:00003b40       _GUID_YAxis                0046db40     dxguid:dxguid.obj
 0002:00003b50       _GUID_XAxis                0046db50     dxguid:dxguid.obj
 0002:00003b60       _IID_IDirectDraw2          0046db60     dxguid:dxguid.obj
 0002:00003b70       _IID_IDirectDraw           0046db70     dxguid:dxguid.obj
 0002:00003b80       _CLSID_DirectDraw          0046db80     dxguid:dxguid.obj
 0002:00003c28       ??_7type_info@@6B@         0046dc28     LIBCMT:std_type_info_static.obj
 0002:0000a6d0       ??_7exception@std@@6B@     004746d0     LIBCMT:throw_bad_alloc.obj
 0002:0000a6d8       ??_C@_0BC@EOODALEL@Unknown?5exception?$AA@ 004746d8     LIBCMT:throw_bad_alloc.obj
 0002:0000a6f0       ??_7bad_alloc@std@@6B@     004746f0     LIBCMT:throw_bad_alloc.obj
 0002:0000a6f8       ??_C@_0P@GHFPNOJB@bad?5allocation?$AA@ 004746f8     LIBCMT:throw_bad_alloc.obj
 0002:0000a70c       ??_7bad_array_new_length@std@@6B@ 0047470c     LIBCMT:throw_bad_alloc.obj
 0002:0000a714       ??_C@_0BF@KINCDENJ@bad?5array?5new?5length?$AA@ 00474714     LIBCMT:throw_bad_alloc.obj
 0002:0000a758       ??_C@_1DM@KHCHBNEB@?$AAa?$AAp?$AAi?$AA?9?$AAm?$AAs?$AA?9?$AAw?$AAi?$AAn?$AA?9?$AAc?$AAo?$AAr?$AAe?$AA?9?$AAf?$AAi?$AAb?$AAe?$AAr?$AAs?$AA?9?$AAl?$AA1?$AA?9?$AA1?$AA?9?$AA1?$AA?$AA@ 00474758     libvcruntime:winapi_downlevel.obj
 0002:0000a794       ??_C@_1DK@LPPGFMPP@?$AAa?$AAp?$AAi?$AA?9?$AAm?$AAs?$AA?9?$AAw?$AAi?$AAn?$AA?9?$AAc?$AAo?$AAr?$AAe?$AA?9?$AAs?$AAy?$AAn?$AAc?$AAh?$AA?9?$AAl?$AA1?$AA?9?$AA2?$AA?9?$AA0?$AA?$AA@ 00474794     libvcruntime:winapi_downlevel.obj
 0002:0000a7d0       ??_C@_1BC@GDMECMAK@?$AAk?$AAe?$AAr?$AAn?$AAe?$AAl?$AA3?$AA2?$AA?$AA@ 004747d0     libvcruntime:winapi_downlevel.obj
 0002:0000a7e4       ??_C@_1BA@PFFKHIOG@?$AAa?$AAp?$AAi?$AA?9?$AAm?$AAs?$AA?9?$AA?$AA@ 004747e4     libvcruntime:winapi_downlevel.obj
 0002:0000a7f4       ??_C@_1BA@IAIFMGEF@?$AAe?$AAx?$AAt?$AA?9?$AAm?$AAs?$AA?9?$AA?$AA@ 004747f4     libvcruntime:winapi_downlevel.obj
 0002:0000a80c       ??_C@_08KNHFBNJ@FlsAlloc?$AA@ 0047480c     libvcruntime:winapi_downlevel.obj
 0002:0000a820       ??_C@_07PEJMOBNF@FlsFree?$AA@ 00474820     libvcruntime:winapi_downlevel.obj
 0002:0000a828       ??_C@_0M@GDNOONDI@FlsGetValue?$AA@ 00474828     libvcruntime:winapi_downlevel.obj
 0002:0000a83c       ??_C@_0M@JCPCPOEF@FlsSetValue?$AA@ 0047483c     libvcruntime:winapi_downlevel.obj
 0002:0000a850       ??_C@_0BM@HCFOFFN@InitializeCriticalSectionEx?$AA@ 00474850     libvcruntime:winapi_downlevel.obj
 0002:0000aa04       ??_C@_08EHJDFFNH@__based?$CI?$AA@ 00474a04     libvcruntime:undname.obj
 0002:0000aa10       ??_C@_07KOLFKCDI@__cdecl?$AA@ 00474a10     libvcruntime:undname.obj
 0002:0000aa18       ??_C@_08GHMPAG@__pascal?$AA@ 00474a18     libvcruntime:undname.obj
 0002:0000aa24       ??_C@_09IFJBGAPI@__stdcall?$AA@ 00474a24     libvcruntime:undname.obj
 0002:0000aa30       ??_C@_0L@NPHFGOKO@__thiscall?$AA@ 00474a30     libvcruntime:undname.obj
 0002:0000aa3c       ??_C@_0L@JMKHOMEK@__fastcall?$AA@ 00474a3c     libvcruntime:undname.obj
 0002:0000aa48       ??_C@_0N@BCKKPABJ@__vectorcall?$AA@ 00474a48     libvcruntime:undname.obj
 0002:0000aa58       ??_C@_09HIJEGCPM@__clrcall?$AA@ 00474a58     libvcruntime:undname.obj
 0002:0000aa64       ??_C@_06GHPCKEAG@__eabi?$AA@ 00474a64     libvcruntime:undname.obj
 0002:0000aa6c       ??_C@_07JOMMBBKO@__ptr64?$AA@ 00474a6c     libvcruntime:undname.obj
 0002:0000aa74       ??_C@_0L@PILCLIHE@__restrict?$AA@ 00474a74     libvcruntime:undname.obj
 0002:0000aa80       ??_C@_0M@GFIIJFMG@__unaligned?$AA@ 00474a80     libvcruntime:undname.obj
 0002:0000aa8c       ??_C@_09DHDLOLLB@restrict?$CI?$AA@ 00474a8c     libvcruntime:undname.obj
 0002:0000aa98       ??_C@_04NIHEBCM@?5new?$AA@ 00474a98     libvcruntime:undname.obj
 0002:0000aaa0       ??_C@_07FPCDHGMM@?5delete?$AA@ 00474aa0     libvcruntime:undname.obj
 0002:0000aaa8       ??_C@_02GPIOPFAK@?$DO?$DO?$AA@ 00474aa8     libvcruntime:undname.obj
 0002:0000aaac       ??_C@_02FODMEDOG@?$DM?$DM?$AA@ 00474aac     libvcruntime:undname.obj
 0002:0000aab0       ??_C@_01DCLJPIOD@?$CB?$AA@ 00474ab0     libvcruntime:undname.obj
 0002:0000aab4       ??_C@_02EGOFBIJA@?$DN?$DN?$AA@ 00474ab4     libvcruntime:undname.obj
 0002:0000aab8       ??_C@_02FDNJECIE@?$CB?$DN?$AA@ 00474ab8     libvcruntime:undname.obj
 0002:0000aabc       ??_C@_02GPECMEKF@?$FL?$FN?$AA@ 00474abc     libvcruntime:undname.obj
 0002:0000aac0       ??_C@_08LHJFAFGD@operator?$AA@ 00474ac0     libvcruntime:undname.obj
 0002:0000aacc       ??_C@_02HBOOOICD@?9?$DO?$AA@ 00474acc     libvcruntime:undname.obj
 0002:0000aad0       ??_C@_02ECNGHCIF@?$CL?$CL?$AA@ 00474ad0     libvcruntime:undname.obj
 0002:0000aad4       ??_C@_01HNPIGOCE@?$CG?$AA@ 00474ad4     libvcruntime:undname.obj
 0002:0000aad8       ??_C@_03MNHNFDLC@?9?$DO?$CK?$AA@ 00474ad8     libvcruntime:undname.obj
 0002:0000aadc       ??_C@_01FGNFDNOH@?$CF?$AA@ 00474adc     libvcruntime:undname.obj
 0002:0000aae0       ??_C@_02EHCHHCKH@?$DM?$DN?$AA@ 00474ae0     libvcruntime:undname.obj
 0002:0000aae4       ??_C@_01PPODPGHN@?$DO?$AA@ 00474ae4     libvcruntime:undname.obj
 0002:0000aae8       ??_C@_02EEKDKGMJ@?$DO?$DN?$AA@ 00474ae8     libvcruntime:undname.obj
 0002:0000aaec       ??_C@_02HCKGKOFO@?$CI?$CJ?$AA@ 00474aec     libvcruntime:undname.obj
 0002:0000aaf0       ??_C@_01PJKLJHI@?$HO?$AA@  00474af0     libvcruntime:undname.obj
 0002:0000aaf4       ??_C@_01DNKMNLPK@?$HM?$AA@ 00474af4     libvcruntime:undname.obj
 0002:0000aaf8       ??_C@_02PPKAJPJL@?$CG?$CG?$AA@ 00474af8     libvcruntime:undname.obj
 0002:0000aafc       ??_C@_02NONPIBCD@?$HM?$HM?$AA@ 00474afc     libvcruntime:undname.obj
 0002:0000ab00       ??_C@_02FPIMKNGF@?$CK?$DN?$AA@ 00474b00     libvcruntime:undname.obj
 0002:0000ab04       ??_C@_02FOEOMHFC@?$CL?$DN?$AA@ 00474b04     libvcruntime:undname.obj
 0002:0000ab08       ??_C@_02FKMDLLOA@?9?$DN?$AA@ 00474b08     libvcruntime:undname.obj
 0002:0000ab0c       ??_C@_02FJEHGPIO@?1?$DN?$AA@ 00474b0c     libvcruntime:undname.obj
 0002:0000ab10       ??_C@_02FENAOKFI@?$CF?$DN?$AA@ 00474b10     libvcruntime:undname.obj
 0002:0000ab14       ??_C@_03IKFCCPFF@?$DO?$DO?$DN?$AA@ 00474b14     libvcruntime:undname.obj
 0002:0000ab18       ??_C@_03CDNPDDLA@?$DM?$DM?$DN?$AA@ 00474b18     libvcruntime:undname.obj
 0002:0000ab1c       ??_C@_02FGJGFEAB@?$CG?$DN?$AA@ 00474b1c     libvcruntime:undname.obj
 0002:0000ab20       ??_C@_02DHLNPPGH@?$HM?$DN?$AA@ 00474b20     libvcruntime:undname.obj
 0002:0000ab24       ??_C@_02MHEGNOJ@?$FO?$DN?$AA@ 00474b24     libvcruntime:undname.obj
 0002:0000ab28       ??_C@_09IFPLHPGF@?$GAvftable?8?$AA@ 00474b28     libvcruntime:undname.obj
 0002:0000ab34       ??_C@_09BLBHBJP@?$GAvbtable?8?$AA@ 00474b34     libvcruntime:undname.obj
 0002:0000ab40       ??_C@_07FEEIOKP@?$GAvcall?8?$AA@ 00474b40     libvcruntime:undname.obj
 0002:0000ab48       ??_C@_08LLFFHHDJ@?$GAtypeof?8?$AA@ 00474b48     libvcruntime:undname.obj
 0002:0000ab54       ??_C@_0BF@KDPPACIK@?$GAlocal?5static?5guard?8?$AA@ 00474b54     libvcruntime:undname.obj
 0002:0000ab6c       ??_C@_08OBABFOLI@?$GAstring?8?$AA@ 00474b6c     libvcruntime:undname.obj
 0002:0000ab78       ??_C@_0BD@JDLKDPAB@?$GAvbase?5destructor?8?$AA@ 00474b78     libvcruntime:undname.obj
 0002:0000ab8c       ??_C@_0BN@DEGPLNFK@?$GAvector?5deleting?5destructor?8?$AA@ 00474b8c     libvcruntime:undname.obj
 0002:0000abac       ??_C@_0BO@OBMKPJIG@?$GAdefault?5constructor?5closure?8?$AA@ 00474bac     libvcruntime:undname.obj
 0002:0000abcc       ??_C@_0BN@IMDCHIKM@?$GAscalar?5deleting?5destructor?8?$AA@ 00474bcc     libvcruntime:undname.obj
 0002:0000abec       ??_C@_0BO@PFGOCPJJ@?$GAvector?5constructor?5iterator?8?$AA@ 00474bec     libvcruntime:undname.obj
 0002:0000ac0c       ??_C@_0BN@LFPFMEDL@?$GAvector?5destructor?5iterator?8?$AA@ 00474c0c     libvcruntime:undname.obj
 0002:0000ac2c       ??_C@_0CE@IKBNEHA@?$GAvector?5vbase?5constructor?5iterat@ 00474c2c     libvcruntime:undname.obj
 0002:0000ac50       ??_C@_0BL@NILFHHPC@?$GAvirtual?5displacement?5map?8?$AA@ 00474c50     libvcruntime:undname.obj
 0002:0000ac6c       ??_C@_0CB@JONCMFFK@?$GAeh?5vector?5constructor?5iterator?8@ 00474c6c     libvcruntime:undname.obj
 0002:0000ac90       ??_C@_0CA@GCEOPDGL@?$GAeh?5vector?5destructor?5iterator?8?$AA@ 00474c90     libvcruntime:undname.obj
 0002:0000acb0       ??_C@_0CH@OOJPLCPH@?$GAeh?5vector?5vbase?5constructor?5ite@ 00474cb0     libvcruntime:undname.obj
 0002:0000acd8       ??_C@_0BL@LLKPOHJI@?$GAcopy?5constructor?5closure?8?$AA@ 00474cd8     libvcruntime:undname.obj
 0002:0000acf4       ??_C@_0BA@KBCDOMBN@?$GAudt?5returning?8?$AA@ 00474cf4     libvcruntime:undname.obj
 0002:0000ad04       ??_C@_03KLGMFNMG@?$GAEH?$AA@ 00474d04     libvcruntime:undname.obj
 0002:0000ad08       ??_C@_05KHLCHHI@?$GARTTI?$AA@ 00474d08     libvcruntime:undname.obj
 0002:0000ad10       ??_C@_0BA@KKLDJDLB@?$GAlocal?5vftable?8?$AA@ 00474d10     libvcruntime:undname.obj
 0002:0000ad20       ??_C@_0CE@IIHCMGGL@?$GAlocal?5vftable?5constructor?5closu@ 00474d20     libvcruntime:undname.obj
 0002:0000ad44       ??_C@_06FHBGPFGH@?5new?$FL?$FN?$AA@ 00474d44     libvcruntime:undname.obj
 0002:0000ad4c       ??_C@_09LBNFPBCA@?5delete?$FL?$FN?$AA@ 00474d4c     libvcruntime:undname.obj
 0002:0000ad58       ??_C@_0P@HJKNJFNN@?$GAomni?5callsig?8?$AA@ 00474d58     libvcruntime:undname.obj
 0002:0000ad68       ??_C@_0BL@CNOONJFP@?$GAplacement?5delete?5closure?8?$AA@ 00474d68     libvcruntime:undname.obj
 0002:0000ad84       ??_C@_0BN@CKNJLHMB@?$GAplacement?5delete?$FL?$FN?5closure?8?$AA@ 00474d84     libvcruntime:undname.obj
 0002:0000ada4       ??_C@_0CG@CFDHKGGD@?$GAmanaged?5vector?5constructor?5iter@ 00474da4     libvcruntime:undname.obj
 0002:0000adcc       ??_C@_0CF@IMGKMJNO@?$GAmanaged?5vector?5destructor?5itera@ 00474dcc     libvcruntime:undname.obj
 0002:0000adf4       ??_C@_0CG@HLDDJMAG@?$GAeh?5vector?5copy?5constructor?5iter@ 00474df4     libvcruntime:undname.obj
 0002:0000ae1c       ??_C@_0CM@FCBBDIGB@?$GAeh?5vector?5vbase?5copy?5constructo@ 00474e1c     libvcruntime:undname.obj
 0002:0000ae48       ??_C@_0BL@CLIPGLGB@?$GAdynamic?5initializer?5for?5?8?$AA@ 00474e48     libvcruntime:undname.obj
 0002:0000ae64       ??_C@_0CB@PDBIFEP@?$GAdynamic?5atexit?5destructor?5for?5?8@ 00474e64     libvcruntime:undname.obj
 0002:0000ae88       ??_C@_0CD@CGAJBKEJ@?$GAvector?5copy?5constructor?5iterato@ 00474e88     libvcruntime:undname.obj
 0002:0000aeac       ??_C@_0CJ@GJELGAMM@?$GAvector?5vbase?5copy?5constructor?5i@ 00474eac     libvcruntime:undname.obj
 0002:0000aed8       ??_C@_0CL@FGIJHLCE@?$GAmanaged?5vector?5copy?5constructor@ 00474ed8     libvcruntime:undname.obj
 0002:0000af04       ??_C@_0BM@PMGGMLDN@?$GAlocal?5static?5thread?5guard?8?$AA@ 00474f04     libvcruntime:undname.obj
 0002:0000af20       ??_C@_0N@BDNMDMOL@operator?5?$CC?$CC?5?$AA@ 00474f20     libvcruntime:undname.obj
 0002:0000af30       ??_C@_0BC@GGEBGALA@operator?5co_await?$AA@ 00474f30     libvcruntime:undname.obj
 0002:0000af44       ??_C@_0BC@DAFEJGAK@?5Type?5Descriptor?8?$AA@ 00474f44     libvcruntime:undname.obj
 0002:0000af58       ??_C@_0BM@LDKODKLH@?5Base?5Class?5Descriptor?5at?5?$CI?$AA@ 00474f58     libvcruntime:undname.obj
 0002:0000af74       ??_C@_0BD@LGICGFMM@?5Base?5Class?5Array?8?$AA@ 00474f74     libvcruntime:undname.obj
 0002:0000af88       ??_C@_0BN@MECKDCOJ@?5Class?5Hierarchy?5Descriptor?8?$AA@ 00474f88     libvcruntime:undname.obj
 0002:0000afa8       ??_C@_0BK@CFCOFLF@?5Complete?5Object?5Locator?8?$AA@ 00474fa8     libvcruntime:undname.obj
 0002:0000b090       _standard_lookup_table     00475090     libucrt:output.obj
 0002:0000b0ec       ??_C@_1O@CEDCILHN@?$AA?$CI?$AAn?$AAu?$AAl?$AAl?$AA?$CJ?$AA?$AA@ 004750ec     libucrt:output.obj
 0002:0000b0fc       ??_C@_06OJHGLDPL@?$CInull?$CJ?$AA@ 004750fc     libucrt:output.obj
 0002:0000b4c8       ??_C@_03KHJOGHMM@exp?$AA@  004754c8     libucrt:fpexcept.obj
 0002:0000b4cc       ??_C@_03JGHBODFD@pow?$AA@  004754cc     libucrt:fpexcept.obj
 0002:0000b4d0       ??_C@_03MGHMBJCF@log?$AA@  004754d0     libucrt:fpexcept.obj
 0002:0000b4d4       ??_C@_05HGHHAHAP@log10?$AA@ 004754d4     libucrt:fpexcept.obj
 0002:0000b4dc       ??_C@_04COOMCNPB@sinh?$AA@ 004754dc     libucrt:fpexcept.obj
 0002:0000b4e4       ??_C@_04HPJJNFIM@cosh?$AA@ 004754e4     libucrt:fpexcept.obj
 0002:0000b4ec       ??_C@_04FJHINJAO@tanh?$AA@ 004754ec     libucrt:fpexcept.obj
 0002:0000b4f4       ??_C@_04FIHNOPOL@asin?$AA@ 004754f4     libucrt:fpexcept.obj
 0002:0000b4fc       ??_C@_04PDIFKINK@acos?$AA@ 004754fc     libucrt:fpexcept.obj
 0002:0000b504       ??_C@_04MLLJIGOK@atan?$AA@ 00475504     libucrt:fpexcept.obj
 0002:0000b50c       ??_C@_05KNGEOGJB@atan2?$AA@ 0047550c     libucrt:fpexcept.obj
 0002:0000b514       ??_C@_04EIAKFFMI@sqrt?$AA@ 00475514     libucrt:fpexcept.obj
 0002:0000b51c       ??_C@_03BLEJJJBH@sin?$AA@  0047551c     libucrt:fpexcept.obj
 0002:0000b520       ??_C@_03LALBNOCG@cos?$AA@  00475520     libucrt:fpexcept.obj
 0002:0000b524       ??_C@_03IIINPABG@tan?$AA@  00475524     libucrt:fpexcept.obj
 0002:0000b528       ??_C@_04GFPJNGEK@ceil?$AA@ 00475528     libucrt:fpexcept.obj
 0002:0000b530       ??_C@_05PBJFFIGL@floor?$AA@ 00475530     libucrt:fpexcept.obj
 0002:0000b538       ??_C@_04ODHECPBC@fabs?$AA@ 00475538     libucrt:fpexcept.obj
 0002:0000b540       ??_C@_04EHEDPDJG@modf?$AA@ 00475540     libucrt:fpexcept.obj
 0002:0000b548       ??_C@_05CEJMAHNP@ldexp?$AA@ 00475548     libucrt:fpexcept.obj
 0002:0000b550       ??_C@_05KBKMEMPO@_cabs?$AA@ 00475550     libucrt:fpexcept.obj
 0002:0000b558       ??_C@_06MEIMCGCF@_hypot?$AA@ 00475558     libucrt:fpexcept.obj
 0002:0000b560       ??_C@_04KEPJIHGP@fmod?$AA@ 00475560     libucrt:fpexcept.obj
 0002:0000b568       ??_C@_05GKKHEGJL@frexp?$AA@ 00475568     libucrt:fpexcept.obj
 0002:0000b570       ??_C@_03MJLDFKDL@_y0?$AA@  00475570     libucrt:fpexcept.obj
 0002:0000b574       ??_C@_03NAKIGLHK@_y1?$AA@  00475574     libucrt:fpexcept.obj
 0002:0000b578       ??_C@_03ONILCKOB@_yn?$AA@  00475578     libucrt:fpexcept.obj
 0002:0000b57c       ??_C@_05JGDBENOH@_logb?$AA@ 0047557c     libucrt:fpexcept.obj
 0002:0000b584       ??_C@_0L@KDOEJCKC@_nextafter?$AA@ 00475584     libucrt:fpexcept.obj
 0002:0000b590       ___acrt_exception_action_table 00475590     libucrt:exception_filter.obj
 0002:0000b620       ___acrt_signal_action_table_count 00475620     libucrt:exception_filter.obj
 0002:0000b624       ___acrt_signal_action_first_fpe_index 00475624     libucrt:exception_filter.obj
 0002:0000b628       ___acrt_signal_action_fpe_count 00475628     libucrt:exception_filter.obj
 0002:0000b62c       ??_C@_1BI@BGOHAHKC@?$AAm?$AAs?$AAc?$AAo?$AAr?$AAe?$AAe?$AA?4?$AAd?$AAl?$AAl?$AA?$AA@ 0047562c     libucrt:exit.obj
 0002:0000b644       ??_C@_0P@MIGLKIOC@CorExitProcess?$AA@ 00475644     libucrt:exit.obj
 0002:0000b838       ??_C@_02CLFPBFFP@TZ?$AA@   00475838     libucrt:tzset.obj
 0002:0000b890       ??_C@_1EA@JGEFHKEI@?$AAa?$AAp?$AAi?$AA?9?$AAm?$AAs?$AA?9?$AAw?$AAi?$AAn?$AA?9?$AAc?$AAo?$AAr?$AAe?$AA?9?$AAd?$AAa?$AAt?$AAe?$AAt?$AAi?$AAm?$AAe?$AA?9?$AAl?$AA1?$AA?9?$AA1?$AA?9?$AA1?$AA?$AA@ 00475890     libucrt:winapi_thunks.obj
 0002:0000b8d0       ??_C@_1DI@IJCEHOCB@?$AAa?$AAp?$AAi?$AA?9?$AAm?$AAs?$AA?9?$AAw?$AAi?$AAn?$AA?9?$AAc?$AAo?$AAr?$AAe?$AA?9?$AAf?$AAi?$AAl?$AAe?$AA?9?$AAl?$AA1?$AA?9?$AA2?$AA?9?$AA2?$AA?$AA@ 004758d0     libucrt:winapi_thunks.obj
 0002:0000b908       ??_C@_1EI@MPIAOHOC@?$AAa?$AAp?$AAi?$AA?9?$AAm?$AAs?$AA?9?$AAw?$AAi?$AAn?$AA?9?$AAc?$AAo?$AAr?$AAe?$AA?9?$AAl?$AAo?$AAc?$AAa?$AAl?$AAi?$AAz?$AAa?$AAt?$AAi?$AAo?$AAn?$AA?9?$AAl?$AA1?$AA?9@ 00475908     libucrt:winapi_thunks.obj
 0002:0000b950       ??_C@_1FK@FPHCKFIE@?$AAa?$AAp?$AAi?$AA?9?$AAm?$AAs?$AA?9?$AAw?$AAi?$AAn?$AA?9?$AAc?$AAo?$AAr?$AAe?$AA?9?$AAl?$AAo?$AAc?$AAa?$AAl?$AAi?$AAz?$AAa?$AAt?$AAi?$AAo?$AAn?$AA?9?$AAo?$AAb?$AAs@ 00475950     libucrt:winapi_thunks.obj
 0002:0000b9b0       ??_C@_1EM@DILCGIIO@?$AAa?$AAp?$AAi?$AA?9?$AAm?$AAs?$AA?9?$AAw?$AAi?$AAn?$AA?9?$AAc?$AAo?$AAr?$AAe?$AA?9?$AAp?$AAr?$AAo?$AAc?$AAe?$AAs?$AAs?$AAt?$AAh?$AAr?$AAe?$AAa?$AAd?$AAs?$AA?9?$AAl@ 004759b0     libucrt:winapi_thunks.obj
 0002:0000b9fc       ??_C@_1DM@LNCGDDPN@?$AAa?$AAp?$AAi?$AA?9?$AAm?$AAs?$AA?9?$AAw?$AAi?$AAn?$AA?9?$AAc?$AAo?$AAr?$AAe?$AA?9?$AAs?$AAt?$AAr?$AAi?$AAn?$AAg?$AA?9?$AAl?$AA1?$AA?9?$AA1?$AA?9?$AA0?$AA?$AA@ 004759fc     libucrt:winapi_thunks.obj
 0002:0000ba38       ??_C@_1DO@FPAPJEMD@?$AAa?$AAp?$AAi?$AA?9?$AAm?$AAs?$AA?9?$AAw?$AAi?$AAn?$AA?9?$AAc?$AAo?$AAr?$AAe?$AA?9?$AAs?$AAy?$AAs?$AAi?$AAn?$AAf?$AAo?$AA?9?$AAl?$AA1?$AA?9?$AA2?$AA?9?$AA1?$AA?$AA@ 00475a38     libucrt:winapi_thunks.obj
 0002:0000ba78       ??_C@_1DK@NDHNAHIO@?$AAa?$AAp?$AAi?$AA?9?$AAm?$AAs?$AA?9?$AAw?$AAi?$AAn?$AA?9?$AAc?$AAo?$AAr?$AAe?$AA?9?$AAw?$AAi?$AAn?$AAr?$AAt?$AA?9?$AAl?$AA1?$AA?9?$AA1?$AA?9?$AA0?$AA?$AA@ 00475a78     libucrt:winapi_thunks.obj
 0002:0000bab4       ??_C@_1DM@KGHDGBCM@?$AAa?$AAp?$AAi?$AA?9?$AAm?$AAs?$AA?9?$AAw?$AAi?$AAn?$AA?9?$AAc?$AAo?$AAr?$AAe?$AA?9?$AAx?$AAs?$AAt?$AAa?$AAt?$AAe?$AA?9?$AAl?$AA2?$AA?9?$AA1?$AA?9?$AA0?$AA?$AA@ 00475ab4     libucrt:winapi_thunks.obj
 0002:0000baf0       ??_C@_1EO@IJIOEFOH@?$AAa?$AAp?$AAi?$AA?9?$AAm?$AAs?$AA?9?$AAw?$AAi?$AAn?$AA?9?$AAr?$AAt?$AAc?$AAo?$AAr?$AAe?$AA?9?$AAn?$AAt?$AAu?$AAs?$AAe?$AAr?$AA?9?$AAw?$AAi?$AAn?$AAd?$AAo?$AAw?$AA?9@ 00475af0     libucrt:winapi_thunks.obj
 0002:0000bb40       ??_C@_1FG@HHGEKANL@?$AAa?$AAp?$AAi?$AA?9?$AAm?$AAs?$AA?9?$AAw?$AAi?$AAn?$AA?9?$AAs?$AAe?$AAc?$AAu?$AAr?$AAi?$AAt?$AAy?$AA?9?$AAs?$AAy?$AAs?$AAt?$AAe?$AAm?$AAf?$AAu?$AAn?$AAc?$AAt?$AAi@ 00475b40     libucrt:winapi_thunks.obj
 0002:0000bb98       ??_C@_1EG@DBIOJECG@?$AAe?$AAx?$AAt?$AA?9?$AAm?$AAs?$AA?9?$AAw?$AAi?$AAn?$AA?9?$AAn?$AAt?$AAu?$AAs?$AAe?$AAr?$AA?9?$AAd?$AAi?$AAa?$AAl?$AAo?$AAg?$AAb?$AAo?$AAx?$AA?9?$AAl?$AA1?$AA?9?$AA1@ 00475b98     libucrt:winapi_thunks.obj
 0002:0000bbe0       ??_C@_1EO@FIHMJCLF@?$AAe?$AAx?$AAt?$AA?9?$AAm?$AAs?$AA?9?$AAw?$AAi?$AAn?$AA?9?$AAn?$AAt?$AAu?$AAs?$AAe?$AAr?$AA?9?$AAw?$AAi?$AAn?$AAd?$AAo?$AAw?$AAs?$AAt?$AAa?$AAt?$AAi?$AAo?$AAn?$AA?9@ 00475be0     libucrt:winapi_thunks.obj
 0002:0000bc30       ??_C@_1BC@DNHGCMLG@?$AAa?$AAd?$AAv?$AAa?$AAp?$AAi?$AA3?$AA2?$AA?$AA@ 00475c30     libucrt:winapi_thunks.obj
 0002:0000bc44       ??_C@_1M@OAIMIKLP@?$AAn?$AAt?$AAd?$AAl?$AAl?$AA?$AA@ 00475c44     libucrt:winapi_thunks.obj
 0002:0000bc50       ??_C@_1EG@DPGNFKGC@?$AAa?$AAp?$AAi?$AA?9?$AAm?$AAs?$AA?9?$AAw?$AAi?$AAn?$AA?9?$AAa?$AAp?$AAp?$AAm?$AAo?$AAd?$AAe?$AAl?$AA?9?$AAr?$AAu?$AAn?$AAt?$AAi?$AAm?$AAe?$AA?9?$AAl?$AA1?$AA?9?$AA1@ 00475c50     libucrt:winapi_thunks.obj
 0002:0000bc98       ??_C@_1O@BCCLBEOE@?$AAu?$AAs?$AAe?$AAr?$AA3?$AA2?$AA?$AA@ 00475c98     libucrt:winapi_thunks.obj
 0002:0000bcac       ??_C@_0BA@FHFNEAED@AreFileApisANSI?$AA@ 00475cac     libucrt:winapi_thunks.obj
 0002:0000bcc4       ??_C@_0BA@IHGNDAEB@CompareStringEx?$AA@ 00475cc4     libucrt:winapi_thunks.obj
 0002:0000bcf8       ??_C@_0BP@FPNJPEJC@GetSystemTimePreciseAsFileTime?$AA@ 00475cf8     libucrt:winapi_thunks.obj
 0002:0000bd28       ??_C@_0O@KKBNKAPF@LCMapStringEx?$AA@ 00475d28     libucrt:winapi_thunks.obj
 0002:0000bd40       ??_C@_0BB@HBDEELFH@LocaleNameToLCID?$AA@ 00475d40     libucrt:winapi_thunks.obj
 0002:0000bd58       ??_C@_0N@PPOMPGGK@RoInitialize?$AA@ 00475d58     libucrt:winapi_thunks.obj
 0002:0000bd6c       ??_C@_0P@LLFHBIJD@RoUninitialize?$AA@ 00475d6c     libucrt:winapi_thunks.obj
 0002:0000bd80       ??_C@_0CF@OJOFEIGO@AppPolicyGetProcessTerminationMe@ 00475d80     libucrt:winapi_thunks.obj
 0002:0000bdac       ??_C@_0CF@NNDFDCOC@AppPolicyGetThreadInitialization@ 00475dac     libucrt:winapi_thunks.obj
 0002:0000bde4       __half                     00475de4     libucrt:pow_impl.obj
 0002:0000bdf0       ___acrt_pow_rcp_t1         00475df0     libucrt:pow_tables.obj
 0002:0000c200       ___acrt_pow_log2_t1        00476200     libucrt:pow_tables.obj
 0002:0000ca10       ___acrt_pow_rcp_t2         00476a10     libucrt:pow_tables.obj
 0002:0000ce20       ___acrt_pow_log2_t2        00476e20     libucrt:pow_tables.obj
 0002:0000d630       ___acrt_pow_rcp_t3         00477630     libucrt:pow_tables.obj
 0002:0000de40       ___acrt_pow_log2_t3        00477e40     libucrt:pow_tables.obj
 0002:0000ee50       ___acrt_pow_clv            00478e50     libucrt:pow_tables.obj
 0002:0000ee70       ___acrt_pow_exp2_tbl       00478e70     libucrt:pow_tables.obj
 0002:0000f670       ??_C@_03OEIAHPBN@INF?$AA@  00479670     libucrt:cvt.obj
 0002:0000f674       ??_C@_03OJHLLCGB@inf?$AA@  00479674     libucrt:cvt.obj
 0002:0000f678       ??_C@_03LKNCIKJB@NAN?$AA@  00479678     libucrt:cvt.obj
 0002:0000f67c       ??_C@_03LHCJEHON@nan?$AA@  0047967c     libucrt:cvt.obj
 0002:0000f680       ??_C@_09OFJJIMPC@NAN?$CISNAN?$CJ?$AA@ 00479680     libucrt:cvt.obj
 0002:0000f68c       ??_C@_09IPFBKMDL@nan?$CIsnan?$CJ?$AA@ 0047968c     libucrt:cvt.obj
 0002:0000f698       ??_C@_08IKHNHAJ@NAN?$CIIND?$CJ?$AA@ 00479698     libucrt:cvt.obj
 0002:0000f6a4       ??_C@_08OFCDMILK@nan?$CIind?$CJ?$AA@ 004796a4     libucrt:cvt.obj
 0002:0000f6b0       ??_C@_05KLBDPFGC@e?$CL000?$AA@ 004796b0     libucrt:cvt.obj
 0002:0000f6b8       ??_C@_03KOEHGMDN@Sun?$AA@  004796b8     libucrt:nlsdata.obj
 0002:0000f6bc       ??_C@_03PDAGKDH@Mon?$AA@   004796bc     libucrt:nlsdata.obj
 0002:0000f6c0       ??_C@_03NAGEINEP@Tue?$AA@  004796c0     libucrt:nlsdata.obj
 0002:0000f6c4       ??_C@_03MHOMLAJA@Wed?$AA@  004796c4     libucrt:nlsdata.obj
 0002:0000f6c8       ??_C@_03IOFIKPDN@Thu?$AA@  004796c8     libucrt:nlsdata.obj
 0002:0000f6cc       ??_C@_03IDIOELNC@Fri?$AA@  004796cc     libucrt:nlsdata.obj
 0002:0000f6d0       ??_C@_03FEFJNEK@Sat?$AA@   004796d0     libucrt:nlsdata.obj
 0002:0000f6d4       ??_C@_06OOPIFAJ@Sunday?$AA@ 004796d4     libucrt:nlsdata.obj
 0002:0000f6dc       ??_C@_06JLEDEDGH@Monday?$AA@ 004796dc     libucrt:nlsdata.obj
 0002:0000f6e4       ??_C@_07BAAGCFCM@Tuesday?$AA@ 004796e4     libucrt:nlsdata.obj
 0002:0000f6ec       ??_C@_09DLIGFAKA@Wednesday?$AA@ 004796ec     libucrt:nlsdata.obj
 0002:0000f6f8       ??_C@_08HACCIKIA@Thursday?$AA@ 004796f8     libucrt:nlsdata.obj
 0002:0000f704       ??_C@_06JECMNKMI@Friday?$AA@ 00479704     libucrt:nlsdata.obj
 0002:0000f70c       ??_C@_08INBOOONO@Saturday?$AA@ 0047970c     libucrt:nlsdata.obj
 0002:0000f718       ??_C@_03JIHJHPIE@Jan?$AA@  00479718     libucrt:nlsdata.obj
 0002:0000f71c       ??_C@_03HJBDCHOM@Feb?$AA@  0047971c     libucrt:nlsdata.obj
 0002:0000f720       ??_C@_03ODNJBKGA@Mar?$AA@  00479720     libucrt:nlsdata.obj
 0002:0000f724       ??_C@_03LEOLGMJP@Apr?$AA@  00479724     libucrt:nlsdata.obj
 0002:0000f728       ??_C@_03CNMDKL@May?$AA@    00479728     libucrt:nlsdata.obj
 0002:0000f72c       ??_C@_03IDFGHECI@Jun?$AA@  0047972c     libucrt:nlsdata.obj
 0002:0000f730       ??_C@_03LBGABGKK@Jul?$AA@  00479730     libucrt:nlsdata.obj
 0002:0000f734       ??_C@_03IFJFEIGA@Aug?$AA@  00479734     libucrt:nlsdata.obj
 0002:0000f738       ??_C@_03GGCAPAJC@Sep?$AA@  00479738     libucrt:nlsdata.obj
 0002:0000f73c       ??_C@_03BMAOKBAD@Oct?$AA@  0047973c     libucrt:nlsdata.obj
 0002:0000f740       ??_C@_03JPJOFNIA@Nov?$AA@  00479740     libucrt:nlsdata.obj
 0002:0000f744       ??_C@_03MKABNOCG@Dec?$AA@  00479744     libucrt:nlsdata.obj
 0002:0000f748       ??_C@_07CGJPFGJA@January?$AA@ 00479748     libucrt:nlsdata.obj
 0002:0000f750       ??_C@_08GNJGEPFN@February?$AA@ 00479750     libucrt:nlsdata.obj
 0002:0000f75c       ??_C@_05HPCKOFNC@March?$AA@ 0047975c     libucrt:nlsdata.obj
 0002:0000f764       ??_C@_05DMJDNLEJ@April?$AA@ 00479764     libucrt:nlsdata.obj
 0002:0000f76c       ??_C@_04CNLMGBGM@June?$AA@ 0047976c     libucrt:nlsdata.obj
 0002:0000f774       ??_C@_04MIEPOIFP@July?$AA@ 00479774     libucrt:nlsdata.obj
 0002:0000f77c       ??_C@_06LBBHFDDG@August?$AA@ 0047977c     libucrt:nlsdata.obj
 0002:0000f784       ??_C@_09BHHEALKD@September?$AA@ 00479784     libucrt:nlsdata.obj
 0002:0000f790       ??_C@_07JJNFCEND@October?$AA@ 00479790     libucrt:nlsdata.obj
 0002:0000f798       ??_C@_08HCHEGEOA@November?$AA@ 00479798     libucrt:nlsdata.obj
 0002:0000f7a4       ??_C@_08EDHMEBNP@December?$AA@ 004797a4     libucrt:nlsdata.obj
 0002:0000f7b0       ??_C@_08BPBNCDIB@MM?1dd?1yy?$AA@ 004797b0     libucrt:nlsdata.obj
 0002:0000f7bc       ??_C@_0BE@CKGJFCPC@dddd?0?5MMMM?5dd?0?5yyyy?$AA@ 004797bc     libucrt:nlsdata.obj
 0002:0000f7d0       ??_C@_08JCCMCCIL@HH?3mm?3ss?$AA@ 004797d0     libucrt:nlsdata.obj
 0002:0000f7dc       ??_C@_17MBGCMIPB@?$AAS?$AAu?$AAn?$AA?$AA@ 004797dc     libucrt:nlsdata.obj
 0002:0000f7e4       ??_C@_17KBOMKBF@?$AAM?$AAo?$AAn?$AA?$AA@ 004797e4     libucrt:nlsdata.obj
 0002:0000f7ec       ??_C@_17BMKGEGOJ@?$AAT?$AAu?$AAe?$AA?$AA@ 004797ec     libucrt:nlsdata.obj
 0002:0000f7f4       ??_C@_17CJEDCEPE@?$AAW?$AAe?$AAd?$AA?$AA@ 004797f4     libucrt:nlsdata.obj
 0002:0000f7fc       ??_C@_17PDPHAADD@?$AAT?$AAh?$AAu?$AA?$AA@ 004797fc     libucrt:nlsdata.obj
 0002:0000f804       ??_C@_17HFOLPPLP@?$AAF?$AAr?$AAi?$AA?$AA@ 00479804     libucrt:nlsdata.obj
 0002:0000f80c       ??_C@_17GGIBDPIH@?$AAS?$AAa?$AAt?$AA?$AA@ 0047980c     libucrt:nlsdata.obj
 0002:0000f814       ??_C@_1O@IHNHDHPB@?$AAS?$AAu?$AAn?$AAd?$AAa?$AAy?$AA?$AA@ 00479814     libucrt:nlsdata.obj
 0002:0000f824       ??_C@_1O@MMNBFLIA@?$AAM?$AAo?$AAn?$AAd?$AAa?$AAy?$AA?$AA@ 00479824     libucrt:nlsdata.obj
 0002:0000f834       ??_C@_1BA@ENFBFFEK@?$AAT?$AAu?$AAe?$AAs?$AAd?$AAa?$AAy?$AA?$AA@ 00479834     libucrt:nlsdata.obj
 0002:0000f844       ??_C@_1BE@EBOGMDOH@?$AAW?$AAe?$AAd?$AAn?$AAe?$AAs?$AAd?$AAa?$AAy?$AA?$AA@ 00479844     libucrt:nlsdata.obj
 0002:0000f858       ??_C@_1BC@HHMNLIHE@?$AAT?$AAh?$AAu?$AAr?$AAs?$AAd?$AAa?$AAy?$AA?$AA@ 00479858     libucrt:nlsdata.obj
 0002:0000f86c       ??_C@_1O@PDICJHAG@?$AAF?$AAr?$AAi?$AAd?$AAa?$AAy?$AA?$AA@ 0047986c     libucrt:nlsdata.obj
 0002:0000f87c       ??_C@_1BC@ENMNNPAJ@?$AAS?$AAa?$AAt?$AAu?$AAr?$AAd?$AAa?$AAy?$AA?$AA@ 0047987c     libucrt:nlsdata.obj
 0002:0000f890       ??_C@_17DKNBKCHM@?$AAJ?$AAa?$AAn?$AA?$AA@ 00479890     libucrt:nlsdata.obj
 0002:0000f898       ??_C@_17LMDJEKJN@?$AAF?$AAe?$AAb?$AA?$AA@ 00479898     libucrt:nlsdata.obj
 0002:0000f8a0       ??_C@_17CKNLEDEC@?$AAM?$AAa?$AAr?$AA?$AA@ 004798a0     libucrt:nlsdata.obj
 0002:0000f8a8       ??_C@_17LFPOIHDD@?$AAA?$AAp?$AAr?$AA?$AA@ 004798a8     libucrt:nlsdata.obj
 0002:0000f8b0       ??_C@_17PNNKMEED@?$AAM?$AAa?$AAy?$AA?$AA@ 004798b0     libucrt:nlsdata.obj
 0002:0000f8b8       ??_C@_17KCJGOCPB@?$AAJ?$AAu?$AAn?$AA?$AA@ 004798b8     libucrt:nlsdata.obj
 0002:0000f8c0       ??_C@_17IJPCKHK@?$AAJ?$AAu?$AAl?$AA?$AA@ 004798c0     libucrt:nlsdata.obj
 0002:0000f8c8       ??_C@_17ICPELBCN@?$AAA?$AAu?$AAg?$AA?$AA@ 004798c8     libucrt:nlsdata.obj
 0002:0000f8d0       ??_C@_17HCHCOKMG@?$AAS?$AAe?$AAp?$AA?$AA@ 004798d0     libucrt:nlsdata.obj
 0002:0000f8d8       ??_C@_17FNLKOI@?$AAO?$AAc?$AAt?$AA?$AA@ 004798d8     libucrt:nlsdata.obj
 0002:0000f8e0       ??_C@_17BBDMLCIG@?$AAN?$AAo?$AAv?$AA?$AA@ 004798e0     libucrt:nlsdata.obj
 0002:0000f8e8       ??_C@_17EGKACKIF@?$AAD?$AAe?$AAc?$AA?$AA@ 004798e8     libucrt:nlsdata.obj
 0002:0000f8f0       ??_C@_1BA@EFMEIEBA@?$AAJ?$AAa?$AAn?$AAu?$AAa?$AAr?$AAy?$AA?$AA@ 004798f0     libucrt:nlsdata.obj
 0002:0000f900       ??_C@_1BC@JGDDFFAM@?$AAF?$AAe?$AAb?$AAr?$AAu?$AAa?$AAr?$AAy?$AA?$AA@ 00479900     libucrt:nlsdata.obj
 0002:0000f914       ??_C@_1M@IKEENEDF@?$AAM?$AAa?$AAr?$AAc?$AAh?$AA?$AA@ 00479914     libucrt:nlsdata.obj
 0002:0000f920       ??_C@_1M@GJNLMHFD@?$AAA?$AAp?$AAr?$AAi?$AAl?$AA?$AA@ 00479920     libucrt:nlsdata.obj
 0002:0000f92c       ??_C@_19EPFLPGAP@?$AAJ?$AAu?$AAn?$AAe?$AA?$AA@ 0047992c     libucrt:nlsdata.obj
 0002:0000f938       ??_C@_19BIFMLPCD@?$AAJ?$AAu?$AAl?$AAy?$AA?$AA@ 00479938     libucrt:nlsdata.obj
 0002:0000f944       ??_C@_1O@PAHLKOAC@?$AAA?$AAu?$AAg?$AAu?$AAs?$AAt?$AA?$AA@ 00479944     libucrt:nlsdata.obj
 0002:0000f954       ??_C@_1BE@DKAAMBJL@?$AAS?$AAe?$AAp?$AAt?$AAe?$AAm?$AAb?$AAe?$AAr?$AA?$AA@ 00479954     libucrt:nlsdata.obj
 0002:0000f968       ??_C@_1BA@EPANDLNG@?$AAO?$AAc?$AAt?$AAo?$AAb?$AAe?$AAr?$AA?$AA@ 00479968     libucrt:nlsdata.obj
 0002:0000f978       ??_C@_1BC@BGLIFPF@?$AAN?$AAo?$AAv?$AAe?$AAm?$AAb?$AAe?$AAr?$AA?$AA@ 00479978     libucrt:nlsdata.obj
 0002:0000f98c       ??_C@_1BC@FEMKIFH@?$AAD?$AAe?$AAc?$AAe?$AAm?$AAb?$AAe?$AAr?$AA?$AA@ 0047998c     libucrt:nlsdata.obj
 0002:0000f9a0       ??_C@_15ODEHAHHF@?$AAA?$AAM?$AA?$AA@ 004799a0     libucrt:nlsdata.obj
 0002:0000f9a8       ??_C@_15CLMNNGEL@?$AAP?$AAM?$AA?$AA@ 004799a8     libucrt:nlsdata.obj
 0002:0000f9b0       ??_C@_1BC@IEBCMHCM@?$AAM?$AAM?$AA?1?$AAd?$AAd?$AA?1?$AAy?$AAy?$AA?$AA@ 004799b0     libucrt:nlsdata.obj
 0002:0000f9c4       ??_C@_1CI@KNAKOEBC@?$AAd?$AAd?$AAd?$AAd?$AA?0?$AA?5?$AAM?$AAM?$AAM?$AAM?$AA?5?$AAd?$AAd?$AA?0?$AA?5?$AAy?$AAy?$AAy?$AAy?$AA?$AA@ 004799c4     libucrt:nlsdata.obj
 0002:0000f9ec       ??_C@_1BC@GDGBMEMK@?$AAH?$AAH?$AA?3?$AAm?$AAm?$AA?3?$AAs?$AAs?$AA?$AA@ 004799ec     libucrt:nlsdata.obj
 0002:0000fa00       ??_C@_1M@BMHNFIME@?$AAe?$AAn?$AA?9?$AAU?$AAS?$AA?$AA@ 00479a00     libucrt:nlsdata.obj
 0002:0000fa10       ___lc_time_c               00479a10     libucrt:nlsdata.obj
 0002:0000fb78       ___newctype                00479b78     libucrt:ctype.obj
 0002:0000fe78       ___newclmap                00479e78     libucrt:ctype.obj
 0002:0000fff8       ___newcumap                00479ff8     libucrt:ctype.obj
 0002:00010190       ___acrt_log_table_b        0047a190     libucrt:log_tables.obj
 0002:000105a0       ___acrt_log_table_t        0047a5a0     libucrt:log_tables.obj
 0002:000109c0       ___acrt_cos_sin_ctable     0047a9c0     libucrt:cos_sin_ctable.obj
 0002:000111d0       ___acrt_log10_table_t      0047b1d0     libucrt:log10_tables.obj
 0002:000115e0       ___acrt_log10_table_cb     0047b5e0     libucrt:log10_tables.obj
 0002:000119f0       __d_inf                    0047b9f0     libucrt:util.obj
 0002:000119f8       __d_max                    0047b9f8     libucrt:util.obj
 0002:00011a00       __d_mzero                  0047ba00     libucrt:util.obj
 0002:00011a30       ??_C@_1M@HPNHIDJI@?$AAj?$AAa?$AA?9?$AAJ?$AAP?$AA?$AA@ 0047ba30     libucrt:mbctype.obj
 0002:00011a3c       ??_C@_1M@BIBDDEMK@?$AAz?$AAh?$AA?9?$AAC?$AAN?$AA?$AA@ 0047ba3c     libucrt:mbctype.obj
 0002:00011a48       ??_C@_1M@JLOOOEGK@?$AAk?$AAo?$AA?9?$AAK?$AAR?$AA?$AA@ 0047ba48     libucrt:mbctype.obj
 0002:00011a54       ??_C@_1M@CLNBBOPM@?$AAz?$AAh?$AA?9?$AAT?$AAW?$AA?$AA@ 0047ba54     libucrt:mbctype.obj
 0002:00011a60       ??_C@_15PJPFLCCM@?$AAu?$AAk?$AA?$AA@ 0047ba60     libucrt:get_qualified_locale.obj
 0002:00011a68       __days                     0047ba68     libucrt:days.obj
 0002:00011a9c       __lpdays                   0047ba9c     libucrt:days.obj
 0002:000121f0       ??_C@_15EMKDOKLE@?$AAa?$AAr?$AA?$AA@ 0047c1f0     libucrt:lcidtoname_downlevel.obj
 0002:000121f8       ??_C@_15KNPADPLH@?$AAb?$AAg?$AA?$AA@ 0047c1f8     libucrt:lcidtoname_downlevel.obj
 0002:00012200       ??_C@_15EDMHLDMO@?$AAc?$AAa?$AA?$AA@ 0047c200     libucrt:lcidtoname_downlevel.obj
 0002:00012208       ??_C@_1O@BPEAJADD@?$AAz?$AAh?$AA?9?$AAC?$AAH?$AAS?$AA?$AA@ 0047c208     libucrt:lcidtoname_downlevel.obj
 0002:00012218       ??_C@_15LJNHCMNK@?$AAc?$AAs?$AA?$AA@ 0047c218     libucrt:lcidtoname_downlevel.obj
 0002:00012220       ??_C@_15FOMCIDHG@?$AAd?$AAa?$AA?$AA@ 0047c220     libucrt:lcidtoname_downlevel.obj
 0002:00012228       ??_C@_15NBKABECB@?$AAd?$AAe?$AA?$AA@ 0047c228     libucrt:lcidtoname_downlevel.obj
 0002:00012230       ??_C@_15GHPEIIAO@?$AAe?$AAl?$AA?$AA@ 0047c230     libucrt:lcidtoname_downlevel.obj
 0002:00012238       ??_C@_15MNPNEAIF@?$AAe?$AAn?$AA?$AA@ 0047c238     libucrt:lcidtoname_downlevel.obj
 0002:00012240       ??_C@_15GPIOMPMH@?$AAe?$AAs?$AA?$AA@ 0047c240     libucrt:lcidtoname_downlevel.obj
 0002:00012248       ??_C@_15NGLOAKJC@?$AAf?$AAi?$AA?$AA@ 0047c248     libucrt:lcidtoname_downlevel.obj
 0002:00012250       ??_C@_15FBKGNKAM@?$AAf?$AAr?$AA?$AA@ 0047c250     libucrt:lcidtoname_downlevel.obj
 0002:00012258       ??_C@_15KGGCNEFK@?$AAh?$AAe?$AA?$AA@ 0047c258     libucrt:lcidtoname_downlevel.obj
 0002:00012260       ??_C@_15PGHLIDMF@?$AAh?$AAu?$AA?$AA@ 0047c260     libucrt:lcidtoname_downlevel.obj
 0002:00012268       ??_C@_15BIEMAPLM@?$AAi?$AAs?$AA?$AA@ 0047c268     libucrt:lcidtoname_downlevel.obj
 0002:00012270       ??_C@_15IFJLDHAF@?$AAi?$AAt?$AA?$AA@ 0047c270     libucrt:lcidtoname_downlevel.obj
 0002:00012278       ??_C@_15GEMIOCAG@?$AAj?$AAa?$AA?$AA@ 0047c278     libucrt:lcidtoname_downlevel.obj
 0002:00012280       ??_C@_15EPELEGJA@?$AAk?$AAo?$AA?$AA@ 0047c280     libucrt:lcidtoname_downlevel.obj
 0002:00012288       ??_C@_15NDDHIMN@?$AAn?$AAl?$AA?$AA@ 0047c288     libucrt:lcidtoname_downlevel.obj
 0002:00012290       ??_C@_15BPIGNHCD@?$AAn?$AAo?$AA?$AA@ 0047c290     libucrt:lcidtoname_downlevel.obj
 0002:00012298       ??_C@_15DEOPBLCG@?$AAp?$AAl?$AA?$AA@ 0047c298     libucrt:lcidtoname_downlevel.obj
 0002:000122a0       ??_C@_15KBECGEFG@?$AAp?$AAt?$AA?$AA@ 0047c2a0     libucrt:lcidtoname_downlevel.obj
 0002:000122a8       ??_C@_15GLJCBFMD@?$AAr?$AAo?$AA?$AA@ 0047c2a8     libucrt:lcidtoname_downlevel.obj
 0002:000122b0       ??_C@_15FEDGKCDI@?$AAr?$AAu?$AA?$AA@ 0047c2b0     libucrt:lcidtoname_downlevel.obj
 0002:000122b8       ??_C@_15GLKMLLHM@?$AAh?$AAr?$AA?$AA@ 0047c2b8     libucrt:lcidtoname_downlevel.obj
 0002:000122c0       ??_C@_15CPKMFBDB@?$AAs?$AAk?$AA?$AA@ 0047c2c0     libucrt:lcidtoname_downlevel.obj
 0002:000122c8       ??_C@_15BAAIOGMK@?$AAs?$AAq?$AA?$AA@ 0047c2c8     libucrt:lcidtoname_downlevel.obj
 0002:000122d0       ??_C@_15INNPNOHD@?$AAs?$AAv?$AA?$AA@ 0047c2d0     libucrt:lcidtoname_downlevel.obj
 0002:000122d8       ??_C@_15CABMMOGH@?$AAt?$AAh?$AA?$AA@ 0047c2d8     libucrt:lcidtoname_downlevel.obj
 0002:000122e0       ??_C@_15BPLIHJJM@?$AAt?$AAr?$AA?$AA@ 0047c2e0     libucrt:lcidtoname_downlevel.obj
 0002:000122e8       ??_C@_15NEOEKKDJ@?$AAu?$AAr?$AA?$AA@ 0047c2e8     libucrt:lcidtoname_downlevel.obj
 0002:000122f0       ??_C@_15NFICGAJK@?$AAi?$AAd?$AA?$AA@ 0047c2f0     libucrt:lcidtoname_downlevel.obj
 0002:000122f8       ??_C@_15HPJPHDM@?$AAb?$AAe?$AA?$AA@ 0047c2f8     libucrt:lcidtoname_downlevel.obj
 0002:00012300       ??_C@_15LCHLGJII@?$AAs?$AAl?$AA?$AA@ 0047c300     libucrt:lcidtoname_downlevel.obj
 0002:00012308       ??_C@_15PCFJPHHO@?$AAe?$AAt?$AA?$AA@ 0047c308     libucrt:lcidtoname_downlevel.obj
 0002:00012310       ??_C@_15HPFPGODN@?$AAl?$AAv?$AA?$AA@ 0047c310     libucrt:lcidtoname_downlevel.obj
 0002:00012318       ??_C@_15NFFGKGLG@?$AAl?$AAt?$AA?$AA@ 0047c318     libucrt:lcidtoname_downlevel.obj
 0002:00012320       ??_C@_15BDAKCCHN@?$AAf?$AAa?$AA?$AA@ 0047c320     libucrt:lcidtoname_downlevel.obj
 0002:00012328       ??_C@_15NFGIAIAJ@?$AAv?$AAi?$AA?$AA@ 0047c328     libucrt:lcidtoname_downlevel.obj
 0002:00012330       ??_C@_15LMKNDMHN@?$AAh?$AAy?$AA?$AA@ 0047c330     libucrt:lcidtoname_downlevel.obj
 0002:00012338       ??_C@_15IJBHMCFL@?$AAa?$AAz?$AA?$AA@ 0047c338     libucrt:lcidtoname_downlevel.obj
 0002:00012340       ??_C@_15EKOFJABL@?$AAe?$AAu?$AA?$AA@ 0047c340     libucrt:lcidtoname_downlevel.obj
 0002:00012348       ??_C@_15BGHADCNK@?$AAm?$AAk?$AA?$AA@ 0047c348     libucrt:lcidtoname_downlevel.obj
 0002:00012350       ??_C@_15JDNICKHM@?$AAa?$AAf?$AA?$AA@ 0047c350     libucrt:lcidtoname_downlevel.obj
 0002:00012358       ??_C@_15KPJEDBKD@?$AAk?$AAa?$AA?$AA@ 0047c358     libucrt:lcidtoname_downlevel.obj
 0002:00012360       ??_C@_15PDNFFFEO@?$AAf?$AAo?$AA?$AA@ 0047c360     libucrt:lcidtoname_downlevel.obj
 0002:00012368       ??_C@_15OMLEGLOC@?$AAh?$AAi?$AA?$AA@ 0047c368     libucrt:lcidtoname_downlevel.obj
 0002:00012370       ??_C@_15IDNNENKK@?$AAm?$AAs?$AA?$AA@ 0047c370     libucrt:lcidtoname_downlevel.obj
 0002:00012378       ??_C@_15MACJNBMH@?$AAk?$AAk?$AA?$AA@ 0047c378     libucrt:lcidtoname_downlevel.obj
 0002:00012380       ??_C@_15DKDJEOND@?$AAk?$AAy?$AA?$AA@ 0047c380     libucrt:lcidtoname_downlevel.obj
 0002:00012388       ??_C@_15DFGDLJBG@?$AAs?$AAw?$AA?$AA@ 0047c388     libucrt:lcidtoname_downlevel.obj
 0002:00012390       ??_C@_15BBFAICNG@?$AAu?$AAz?$AA?$AA@ 0047c390     libucrt:lcidtoname_downlevel.obj
 0002:00012398       ??_C@_15DKNDCGEA@?$AAt?$AAt?$AA?$AA@ 0047c398     libucrt:lcidtoname_downlevel.obj
 0002:000123a0       ??_C@_15MGIFMDPL@?$AAp?$AAa?$AA?$AA@ 0047c3a0     libucrt:lcidtoname_downlevel.obj
 0002:000123a8       ??_C@_15HCNDBBA@?$AAg?$AAu?$AA?$AA@ 0047c3a8     libucrt:lcidtoname_downlevel.obj
 0002:000123b0       ??_C@_15FNBEIBON@?$AAt?$AAa?$AA?$AA@ 0047c3b0     libucrt:lcidtoname_downlevel.obj
 0002:000123b8       ??_C@_15NCHGBGLK@?$AAt?$AAe?$AA?$AA@ 0047c3b8     libucrt:lcidtoname_downlevel.obj
 0002:000123c0       ??_C@_15PHPHCBPF@?$AAk?$AAn?$AA?$AA@ 0047c3c0     libucrt:lcidtoname_downlevel.obj
 0002:000123c8       ??_C@_15DLGBCKMP@?$AAm?$AAr?$AA?$AA@ 0047c3c8     libucrt:lcidtoname_downlevel.obj
 0002:000123d0       ??_C@_15EABBLBFF@?$AAs?$AAa?$AA?$AA@ 0047c3d0     libucrt:lcidtoname_downlevel.obj
 0002:000123d8       ??_C@_15CBKOMCOI@?$AAm?$AAn?$AA?$AA@ 0047c3d8     libucrt:lcidtoname_downlevel.obj
 0002:000123e0       ??_C@_15CKDMCJAF@?$AAg?$AAl?$AA?$AA@ 0047c3e0     libucrt:lcidtoname_downlevel.obj
 0002:000123e8       ??_C@_17CNJFBPG@?$AAk?$AAo?$AAk?$AA?$AA@ 0047c3e8     libucrt:lcidtoname_downlevel.obj
 0002:000123f0       ??_C@_17FFBJICPL@?$AAs?$AAy?$AAr?$AA?$AA@ 0047c3f0     libucrt:lcidtoname_downlevel.obj
 0002:000123f8       ??_C@_17KPNDCPAF@?$AAd?$AAi?$AAv?$AA?$AA@ 0047c3f8     libucrt:lcidtoname_downlevel.obj
 0002:00012400       ??_C@_11LOCGONAA@?$AA?$AA@ 0047c400     libucrt:lcidtoname_downlevel.obj
 0002:00012404       ??_C@_1M@OKAHONE@?$AAa?$AAr?$AA?9?$AAS?$AAA?$AA?$AA@ 0047c404     libucrt:lcidtoname_downlevel.obj
 0002:00012410       ??_C@_1M@FFFIGIGK@?$AAb?$AAg?$AA?9?$AAB?$AAG?$AA?$AA@ 0047c410     libucrt:lcidtoname_downlevel.obj
 0002:0001241c       ??_C@_1M@BJNKEDC@?$AAc?$AAa?$AA?9?$AAE?$AAS?$AA?$AA@ 0047c41c     libucrt:lcidtoname_downlevel.obj
 0002:00012428       ??_C@_1M@IJJHFJHA@?$AAc?$AAs?$AA?9?$AAC?$AAZ?$AA?$AA@ 0047c428     libucrt:lcidtoname_downlevel.obj
 0002:00012434       ??_C@_1M@CLPEOBGI@?$AAd?$AAa?$AA?9?$AAD?$AAK?$AA?$AA@ 0047c434     libucrt:lcidtoname_downlevel.obj
 0002:00012440       ??_C@_1M@MCMADGCB@?$AAd?$AAe?$AA?9?$AAD?$AAE?$AA?$AA@ 0047c440     libucrt:lcidtoname_downlevel.obj
 0002:0001244c       ??_C@_1M@OOCKEMAM@?$AAe?$AAl?$AA?9?$AAG?$AAR?$AA?$AA@ 0047c44c     libucrt:lcidtoname_downlevel.obj
 0002:00012458       ??_C@_1M@DDNJFGID@?$AAf?$AAi?$AA?9?$AAF?$AAI?$AA?$AA@ 0047c458     libucrt:lcidtoname_downlevel.obj
 0002:00012464       ??_C@_1M@GLIPPMAC@?$AAf?$AAr?$AA?9?$AAF?$AAR?$AA?$AA@ 0047c464     libucrt:lcidtoname_downlevel.obj
 0002:00012470       ??_C@_1M@GFMCHPE@?$AAh?$AAe?$AA?9?$AAI?$AAL?$AA?$AA@ 0047c470     libucrt:lcidtoname_downlevel.obj
 0002:0001247c       ??_C@_1M@MHLPGNKM@?$AAh?$AAu?$AA?9?$AAH?$AAU?$AA?$AA@ 0047c47c     libucrt:lcidtoname_downlevel.obj
 0002:00012488       ??_C@_1M@LPDDNNPN@?$AAi?$AAs?$AA?9?$AAI?$AAS?$AA?$AA@ 0047c488     libucrt:lcidtoname_downlevel.obj
 0002:00012494       ??_C@_1M@MADIPODN@?$AAi?$AAt?$AA?9?$AAI?$AAT?$AA?$AA@ 0047c494     libucrt:lcidtoname_downlevel.obj
 0002:000124a0       ??_C@_1M@IHBJJGG@?$AAn?$AAl?$AA?9?$AAN?$AAL?$AA?$AA@ 0047c4a0     libucrt:lcidtoname_downlevel.obj
 0002:000124ac       ??_C@_1M@EANAGDL@?$AAn?$AAb?$AA?9?$AAN?$AAO?$AA?$AA@ 0047c4ac     libucrt:lcidtoname_downlevel.obj
 0002:000124b8       ??_C@_1M@NEIEMEGP@?$AAp?$AAl?$AA?9?$AAP?$AAL?$AA?$AA@ 0047c4b8     libucrt:lcidtoname_downlevel.obj
 0002:000124c4       ??_C@_1M@BOCFIGEP@?$AAp?$AAt?$AA?9?$AAB?$AAR?$AA?$AA@ 0047c4c4     libucrt:lcidtoname_downlevel.obj
 0002:000124d0       ??_C@_1M@IMPFOPBG@?$AAr?$AAo?$AA?9?$AAR?$AAO?$AA?$AA@ 0047c4d0     libucrt:lcidtoname_downlevel.obj
 0002:000124dc       ??_C@_1M@IDNNEJMM@?$AAr?$AAu?$AA?9?$AAR?$AAU?$AA?$AA@ 0047c4dc     libucrt:lcidtoname_downlevel.obj
 0002:000124e8       ??_C@_1M@LILEEOGM@?$AAh?$AAr?$AA?9?$AAH?$AAR?$AA?$AA@ 0047c4e8     libucrt:lcidtoname_downlevel.obj
 0002:000124f4       ??_C@_1M@FKIFEHPB@?$AAs?$AAk?$AA?9?$AAS?$AAK?$AA?$AA@ 0047c4f4     libucrt:lcidtoname_downlevel.obj
 0002:00012500       ??_C@_1M@LJMAMNPJ@?$AAs?$AAq?$AA?9?$AAA?$AAL?$AA?$AA@ 0047c500     libucrt:lcidtoname_downlevel.obj
 0002:0001250c       ??_C@_1M@GIAKDKJK@?$AAs?$AAv?$AA?9?$AAS?$AAE?$AA?$AA@ 0047c50c     libucrt:lcidtoname_downlevel.obj
 0002:00012518       ??_C@_1M@MKJKIKCL@?$AAt?$AAh?$AA?9?$AAT?$AAH?$AA?$AA@ 0047c518     libucrt:lcidtoname_downlevel.obj
 0002:00012524       ??_C@_1M@MFLCCMPB@?$AAt?$AAr?$AA?9?$AAT?$AAR?$AA?$AA@ 0047c524     libucrt:lcidtoname_downlevel.obj
 0002:00012530       ??_C@_1M@OIJHDKJN@?$AAu?$AAr?$AA?9?$AAP?$AAK?$AA?$AA@ 0047c530     libucrt:lcidtoname_downlevel.obj
 0002:0001253c       ??_C@_1M@LHIPCIEK@?$AAi?$AAd?$AA?9?$AAI?$AAD?$AA?$AA@ 0047c53c     libucrt:lcidtoname_downlevel.obj
 0002:00012548       ??_C@_1M@MFMOBGI@?$AAu?$AAk?$AA?9?$AAU?$AAA?$AA?$AA@ 0047c548     libucrt:lcidtoname_downlevel.obj
 0002:00012554       ??_C@_1M@OBGLJIPL@?$AAb?$AAe?$AA?9?$AAB?$AAY?$AA?$AA@ 0047c554     libucrt:lcidtoname_downlevel.obj
 0002:00012560       ??_C@_1M@BCFAJEAD@?$AAs?$AAl?$AA?9?$AAS?$AAI?$AA?$AA@ 0047c560     libucrt:lcidtoname_downlevel.obj
 0002:0001256c       ??_C@_1M@FKFFEDDN@?$AAe?$AAt?$AA?9?$AAE?$AAE?$AA?$AA@ 0047c56c     libucrt:lcidtoname_downlevel.obj
 0002:00012578       ??_C@_1M@KGKKAACI@?$AAl?$AAv?$AA?9?$AAL?$AAV?$AA?$AA@ 0047c578     libucrt:lcidtoname_downlevel.obj
 0002:00012584       ??_C@_1M@IFGBIJO@?$AAl?$AAt?$AA?9?$AAL?$AAT?$AA?$AA@ 0047c584     libucrt:lcidtoname_downlevel.obj
 0002:00012590       ??_C@_1M@FGEAHEDM@?$AAf?$AAa?$AA?9?$AAI?$AAR?$AA?$AA@ 0047c590     libucrt:lcidtoname_downlevel.obj
 0002:0001259c       ??_C@_1M@KBMAIBFN@?$AAv?$AAi?$AA?9?$AAV?$AAN?$AA?$AA@ 0047c59c     libucrt:lcidtoname_downlevel.obj
 0002:000125a8       ??_C@_1M@GPCBKDJK@?$AAh?$AAy?$AA?9?$AAA?$AAM?$AA?$AA@ 0047c5a8     libucrt:lcidtoname_downlevel.obj
 0002:000125b4       ??_C@_1BG@BECMDDJB@?$AAa?$AAz?$AA?9?$AAA?$AAZ?$AA?9?$AAL?$AAa?$AAt?$AAn?$AA?$AA@ 0047c5b4     libucrt:lcidtoname_downlevel.obj
 0002:000125cc       ??_C@_1M@MAOFCAEA@?$AAe?$AAu?$AA?9?$AAE?$AAS?$AA?$AA@ 0047c5cc     libucrt:lcidtoname_downlevel.obj
 0002:000125d8       ??_C@_1M@IGHABKPI@?$AAm?$AAk?$AA?9?$AAM?$AAK?$AA?$AA@ 0047c5d8     libucrt:lcidtoname_downlevel.obj
 0002:000125e4       ??_C@_1M@IAIGNEJG@?$AAt?$AAn?$AA?9?$AAZ?$AAA?$AA?$AA@ 0047c5e4     libucrt:lcidtoname_downlevel.obj
 0002:000125f0       ??_C@_1M@IIJCOJFA@?$AAx?$AAh?$AA?9?$AAZ?$AAA?$AA?$AA@ 0047c5f0     libucrt:lcidtoname_downlevel.obj
 0002:000125fc       ??_C@_1M@LGPJHNJH@?$AAz?$AAu?$AA?9?$AAZ?$AAA?$AA?$AA@ 0047c5fc     libucrt:lcidtoname_downlevel.obj
 0002:00012608       ??_C@_1M@HOKAOIO@?$AAa?$AAf?$AA?9?$AAZ?$AAA?$AA?$AA@ 0047c608     libucrt:lcidtoname_downlevel.obj
 0002:00012614       ??_C@_1M@DPCLHLIE@?$AAk?$AAa?$AA?9?$AAG?$AAE?$AA?$AA@ 0047c614     libucrt:lcidtoname_downlevel.obj
 0002:00012620       ??_C@_1M@BLKMHJBI@?$AAf?$AAo?$AA?9?$AAF?$AAO?$AA?$AA@ 0047c620     libucrt:lcidtoname_downlevel.obj
 0002:0001262c       ??_C@_1M@LGGJAPPB@?$AAh?$AAi?$AA?9?$AAI?$AAN?$AA?$AA@ 0047c62c     libucrt:lcidtoname_downlevel.obj
 0002:00012638       ??_C@_1M@FIKPIHFE@?$AAm?$AAt?$AA?9?$AAM?$AAT?$AA?$AA@ 0047c638     libucrt:lcidtoname_downlevel.obj
 0002:00012644       ??_C@_1M@HEGGPBFA@?$AAs?$AAe?$AA?9?$AAN?$AAO?$AA?$AA@ 0047c644     libucrt:lcidtoname_downlevel.obj
 0002:00012650       ??_C@_1M@EIBJEEPA@?$AAm?$AAs?$AA?9?$AAM?$AAY?$AA?$AA@ 0047c650     libucrt:lcidtoname_downlevel.obj
 0002:0001265c       ??_C@_1M@FHLBGMPP@?$AAk?$AAk?$AA?9?$AAK?$AAZ?$AA?$AA@ 0047c65c     libucrt:lcidtoname_downlevel.obj
 0002:00012668       ??_C@_1M@NGJJLCGI@?$AAk?$AAy?$AA?9?$AAK?$AAG?$AA?$AA@ 0047c668     libucrt:lcidtoname_downlevel.obj
 0002:00012674       ??_C@_1M@GIENNBFC@?$AAs?$AAw?$AA?9?$AAK?$AAE?$AA?$AA@ 0047c674     libucrt:lcidtoname_downlevel.obj
 0002:00012680       ??_C@_1BG@NDGMJIMJ@?$AAu?$AAz?$AA?9?$AAU?$AAZ?$AA?9?$AAL?$AAa?$AAt?$AAn?$AA?$AA@ 0047c680     libucrt:lcidtoname_downlevel.obj
 0002:00012698       ??_C@_1M@IDCCIHBC@?$AAt?$AAt?$AA?9?$AAR?$AAU?$AA?$AA@ 0047c698     libucrt:lcidtoname_downlevel.obj
 0002:000126a4       ??_C@_1M@LOICPMOJ@?$AAb?$AAn?$AA?9?$AAI?$AAN?$AA?$AA@ 0047c6a4     libucrt:lcidtoname_downlevel.obj
 0002:000126b0       ??_C@_1M@KPKKNEAH@?$AAp?$AAa?$AA?9?$AAI?$AAN?$AA?$AA@ 0047c6b0     libucrt:lcidtoname_downlevel.obj
 0002:000126bc       ??_C@_1M@PJGPPBOG@?$AAg?$AAu?$AA?9?$AAI?$AAN?$AA?$AA@ 0047c6bc     libucrt:lcidtoname_downlevel.obj
 0002:000126c8       ??_C@_1M@KMKMOPHI@?$AAt?$AAa?$AA?9?$AAI?$AAN?$AA?$AA@ 0047c6c8     libucrt:lcidtoname_downlevel.obj
 0002:000126d4       ??_C@_1M@KFEHEPAC@?$AAt?$AAe?$AA?9?$AAI?$AAN?$AA?$AA@ 0047c6d4     libucrt:lcidtoname_downlevel.obj
 0002:000126e0       ??_C@_1M@CDCLMGHI@?$AAk?$AAn?$AA?9?$AAI?$AAN?$AA?$AA@ 0047c6e0     libucrt:lcidtoname_downlevel.obj
 0002:000126ec       ??_C@_1M@MIODLDKF@?$AAm?$AAl?$AA?9?$AAI?$AAN?$AA?$AA@ 0047c6ec     libucrt:lcidtoname_downlevel.obj
 0002:000126f8       ??_C@_1M@PBIEACPO@?$AAm?$AAr?$AA?9?$AAI?$AAN?$AA?$AA@ 0047c6f8     libucrt:lcidtoname_downlevel.obj
 0002:00012704       ??_C@_1M@NIDEAGPH@?$AAs?$AAa?$AA?9?$AAI?$AAN?$AA?$AA@ 0047c704     libucrt:lcidtoname_downlevel.obj
 0002:00012710       ??_C@_1M@FHIHCBIO@?$AAm?$AAn?$AA?9?$AAM?$AAN?$AA?$AA@ 0047c710     libucrt:lcidtoname_downlevel.obj
 0002:0001271c       ??_C@_1M@JAIJPENP@?$AAc?$AAy?$AA?9?$AAG?$AAB?$AA?$AA@ 0047c71c     libucrt:lcidtoname_downlevel.obj
 0002:00012728       ??_C@_1M@PHGFBEPN@?$AAg?$AAl?$AA?9?$AAE?$AAS?$AA?$AA@ 0047c728     libucrt:lcidtoname_downlevel.obj
 0002:00012734       ??_C@_1O@KPIPDNCP@?$AAk?$AAo?$AAk?$AA?9?$AAI?$AAN?$AA?$AA@ 0047c734     libucrt:lcidtoname_downlevel.obj
 0002:00012744       ??_C@_1O@KNHJLDJA@?$AAs?$AAy?$AAr?$AA?9?$AAS?$AAY?$AA?$AA@ 0047c744     libucrt:lcidtoname_downlevel.obj
 0002:00012754       ??_C@_1O@MKEKBLAH@?$AAd?$AAi?$AAv?$AA?9?$AAM?$AAV?$AA?$AA@ 0047c754     libucrt:lcidtoname_downlevel.obj
 0002:00012764       ??_C@_1O@OHDCKDDF@?$AAq?$AAu?$AAz?$AA?9?$AAB?$AAO?$AA?$AA@ 0047c764     libucrt:lcidtoname_downlevel.obj
 0002:00012774       ??_C@_1M@LEPJNLFD@?$AAn?$AAs?$AA?9?$AAZ?$AAA?$AA?$AA@ 0047c774     libucrt:lcidtoname_downlevel.obj
 0002:00012780       ??_C@_1M@OMLEIIJB@?$AAm?$AAi?$AA?9?$AAN?$AAZ?$AA?$AA@ 0047c780     libucrt:lcidtoname_downlevel.obj
 0002:0001278c       ??_C@_1M@PMPEAILG@?$AAa?$AAr?$AA?9?$AAI?$AAQ?$AA?$AA@ 0047c78c     libucrt:lcidtoname_downlevel.obj
 0002:00012798       ??_C@_1M@CNKPNOEE@?$AAd?$AAe?$AA?9?$AAC?$AAH?$AA?$AA@ 0047c798     libucrt:lcidtoname_downlevel.obj
 0002:000127a4       ??_C@_1M@LKMGMLKO@?$AAe?$AAn?$AA?9?$AAG?$AAB?$AA?$AA@ 0047c7a4     libucrt:lcidtoname_downlevel.obj
 0002:000127b0       ??_C@_1M@PGKJFFGL@?$AAe?$AAs?$AA?9?$AAM?$AAX?$AA?$AA@ 0047c7b0     libucrt:lcidtoname_downlevel.obj
 0002:000127bc       ??_C@_1M@DNNANBDC@?$AAf?$AAr?$AA?9?$AAB?$AAE?$AA?$AA@ 0047c7bc     libucrt:lcidtoname_downlevel.obj
 0002:000127c8       ??_C@_1M@HLGMDFHM@?$AAi?$AAt?$AA?9?$AAC?$AAH?$AA?$AA@ 0047c7c8     libucrt:lcidtoname_downlevel.obj
 0002:000127d4       ??_C@_1M@CLLBGJH@?$AAn?$AAl?$AA?9?$AAB?$AAE?$AA?$AA@ 0047c7d4     libucrt:lcidtoname_downlevel.obj
 0002:000127e0       ??_C@_1M@BODBOGLF@?$AAn?$AAn?$AA?9?$AAN?$AAO?$AA?$AA@ 0047c7e0     libucrt:lcidtoname_downlevel.obj
 0002:000127ec       ??_C@_1M@HFFAHKAD@?$AAp?$AAt?$AA?9?$AAP?$AAT?$AA?$AA@ 0047c7ec     libucrt:lcidtoname_downlevel.obj
 0002:000127f8       ??_C@_1BG@LNOAKHIE@?$AAs?$AAr?$AA?9?$AAS?$AAP?$AA?9?$AAL?$AAa?$AAt?$AAn?$AA?$AA@ 0047c7f8     libucrt:lcidtoname_downlevel.obj
 0002:00012810       ??_C@_1M@HBMHBGAK@?$AAs?$AAv?$AA?9?$AAF?$AAI?$AA?$AA@ 0047c810     libucrt:lcidtoname_downlevel.obj
 0002:0001281c       ??_C@_1BG@DGCJGJBE@?$AAa?$AAz?$AA?9?$AAA?$AAZ?$AA?9?$AAC?$AAy?$AAr?$AAl?$AA?$AA@ 0047c81c     libucrt:lcidtoname_downlevel.obj
 0002:00012834       ??_C@_1M@KEJDAAHB@?$AAs?$AAe?$AA?9?$AAS?$AAE?$AA?$AA@ 0047c834     libucrt:lcidtoname_downlevel.obj
 0002:00012840       ??_C@_1M@HEIBJJAD@?$AAm?$AAs?$AA?9?$AAB?$AAN?$AA?$AA@ 0047c840     libucrt:lcidtoname_downlevel.obj
 0002:0001284c       ??_C@_1BG@PBGJMCEM@?$AAu?$AAz?$AA?9?$AAU?$AAZ?$AA?9?$AAC?$AAy?$AAr?$AAl?$AA?$AA@ 0047c84c     libucrt:lcidtoname_downlevel.obj
 0002:00012864       ??_C@_1O@LAOBCMDF@?$AAq?$AAu?$AAz?$AA?9?$AAE?$AAC?$AA?$AA@ 0047c864     libucrt:lcidtoname_downlevel.obj
 0002:00012874       ??_C@_1M@POEEMAIO@?$AAa?$AAr?$AA?9?$AAE?$AAG?$AA?$AA@ 0047c874     libucrt:lcidtoname_downlevel.obj
 0002:00012880       ??_C@_1M@EFAKDEDL@?$AAz?$AAh?$AA?9?$AAH?$AAK?$AA?$AA@ 0047c880     libucrt:lcidtoname_downlevel.obj
 0002:0001288c       ??_C@_1M@HKKIJHGI@?$AAd?$AAe?$AA?9?$AAA?$AAT?$AA?$AA@ 0047c88c     libucrt:lcidtoname_downlevel.obj
 0002:00012898       ??_C@_1M@KBFBEHJF@?$AAe?$AAn?$AA?9?$AAA?$AAU?$AA?$AA@ 0047c898     libucrt:lcidtoname_downlevel.obj
 0002:000128a4       ??_C@_1M@MNPLFAAH@?$AAe?$AAs?$AA?9?$AAE?$AAS?$AA?$AA@ 0047c8a4     libucrt:lcidtoname_downlevel.obj
 0002:000128b0       ??_C@_1M@HJOOJFMA@?$AAf?$AAr?$AA?9?$AAC?$AAA?$AA?$AA@ 0047c8b0     libucrt:lcidtoname_downlevel.obj
 0002:000128bc       ??_C@_1BG@JPOFPNAB@?$AAs?$AAr?$AA?9?$AAS?$AAP?$AA?9?$AAC?$AAy?$AAr?$AAl?$AA?$AA@ 0047c8bc     libucrt:lcidtoname_downlevel.obj
 0002:000128d4       ??_C@_1M@LNFOCMOB@?$AAs?$AAe?$AA?9?$AAF?$AAI?$AA?$AA@ 0047c8d4     libucrt:lcidtoname_downlevel.obj
 0002:000128e0       ??_C@_1O@MGJBOAMB@?$AAq?$AAu?$AAz?$AA?9?$AAP?$AAE?$AA?$AA@ 0047c8e0     libucrt:lcidtoname_downlevel.obj
 0002:000128f0       ??_C@_1M@GJINLBOK@?$AAa?$AAr?$AA?9?$AAL?$AAY?$AA?$AA@ 0047c8f0     libucrt:lcidtoname_downlevel.obj
 0002:000128fc       ??_C@_1M@GGMNHJNL@?$AAz?$AAh?$AA?9?$AAS?$AAG?$AA?$AA@ 0047c8fc     libucrt:lcidtoname_downlevel.obj
 0002:00012908       ??_C@_1M@HOIKODND@?$AAd?$AAe?$AA?9?$AAL?$AAU?$AA?$AA@ 0047c908     libucrt:lcidtoname_downlevel.obj
 0002:00012914       ??_C@_1M@DDOCCGFG@?$AAe?$AAn?$AA?9?$AAC?$AAA?$AA?$AA@ 0047c914     libucrt:lcidtoname_downlevel.obj
 0002:00012920       ??_C@_1M@BNOEMJLF@?$AAe?$AAs?$AA?9?$AAG?$AAT?$AA?$AA@ 0047c920     libucrt:lcidtoname_downlevel.obj
 0002:0001292c       ??_C@_1M@EOGNKEK@?$AAf?$AAr?$AA?9?$AAC?$AAH?$AA?$AA@ 0047c92c     libucrt:lcidtoname_downlevel.obj
 0002:00012938       ??_C@_1M@FLIDJFHL@?$AAh?$AAr?$AA?9?$AAB?$AAA?$AA?$AA@ 0047c938     libucrt:lcidtoname_downlevel.obj
 0002:00012944       ??_C@_1O@FMCELNAJ@?$AAs?$AAm?$AAj?$AA?9?$AAN?$AAO?$AA?$AA@ 0047c944     libucrt:lcidtoname_downlevel.obj
 0002:00012954       ??_C@_1M@JHGLJMGJ@?$AAa?$AAr?$AA?9?$AAD?$AAZ?$AA?$AA@ 0047c954     libucrt:lcidtoname_downlevel.obj
 0002:00012960       ??_C@_1M@JKKFDCNP@?$AAz?$AAh?$AA?9?$AAM?$AAO?$AA?$AA@ 0047c960     libucrt:lcidtoname_downlevel.obj
 0002:0001296c       ??_C@_1M@GEEFALPE@?$AAd?$AAe?$AA?9?$AAL?$AAI?$AA?$AA@ 0047c96c     libucrt:lcidtoname_downlevel.obj
 0002:00012978       ??_C@_1M@IGEOFBG@?$AAe?$AAn?$AA?9?$AAN?$AAZ?$AA?$AA@ 0047c978     libucrt:lcidtoname_downlevel.obj
 0002:00012984       ??_C@_1M@KDBONEHP@?$AAe?$AAs?$AA?9?$AAC?$AAR?$AA?$AA@ 0047c984     libucrt:lcidtoname_downlevel.obj
 0002:00012990       ??_C@_1M@FHMDOHNN@?$AAf?$AAr?$AA?9?$AAL?$AAU?$AA?$AA@ 0047c990     libucrt:lcidtoname_downlevel.obj
 0002:0001299c       ??_C@_1BG@NFKKMAFG@?$AAb?$AAs?$AA?9?$AAB?$AAA?$AA?9?$AAL?$AAa?$AAt?$AAn?$AA?$AA@ 0047c99c     libucrt:lcidtoname_downlevel.obj
 0002:000129b4       ??_C@_1O@IMNBEMCI@?$AAs?$AAm?$AAj?$AA?9?$AAS?$AAE?$AA?$AA@ 0047c9b4     libucrt:lcidtoname_downlevel.obj
 0002:000129c4       ??_C@_1M@DHHMBNDP@?$AAa?$AAr?$AA?9?$AAM?$AAA?$AA?$AA@ 0047c9c4     libucrt:lcidtoname_downlevel.obj
 0002:000129d0       ??_C@_1M@BNBLJCGH@?$AAe?$AAn?$AA?9?$AAI?$AAE?$AA?$AA@ 0047c9d0     libucrt:lcidtoname_downlevel.obj
 0002:000129dc       ??_C@_1M@GEPAFMDL@?$AAe?$AAs?$AA?9?$AAP?$AAA?$AA?$AA@ 0047c9dc     libucrt:lcidtoname_downlevel.obj
 0002:000129e8       ??_C@_1M@OJONDMDL@?$AAf?$AAr?$AA?9?$AAM?$AAC?$AA?$AA@ 0047c9e8     libucrt:lcidtoname_downlevel.obj
 0002:000129f4       ??_C@_1BG@OBCNFJB@?$AAs?$AAr?$AA?9?$AAB?$AAA?$AA?9?$AAL?$AAa?$AAt?$AAn?$AA?$AA@ 0047c9f4     libucrt:lcidtoname_downlevel.obj
 0002:00012a0c       ??_C@_1O@KEMEEGPO@?$AAs?$AAm?$AAa?$AA?9?$AAN?$AAO?$AA?$AA@ 0047ca0c     libucrt:lcidtoname_downlevel.obj
 0002:00012a1c       ??_C@_1M@ELMGFODK@?$AAa?$AAr?$AA?9?$AAT?$AAN?$AA?$AA@ 0047ca1c     libucrt:lcidtoname_downlevel.obj
 0002:00012a28       ??_C@_1M@BHDLHFAF@?$AAe?$AAn?$AA?9?$AAZ?$AAA?$AA?$AA@ 0047ca28     libucrt:lcidtoname_downlevel.obj
 0002:00012a34       ??_C@_1M@BMGIGLIF@?$AAe?$AAs?$AA?9?$AAD?$AAO?$AA?$AA@ 0047ca34     libucrt:lcidtoname_downlevel.obj
 0002:00012a40       ??_C@_1BG@CMBHIPBE@?$AAs?$AAr?$AA?9?$AAB?$AAA?$AA?9?$AAC?$AAy?$AAr?$AAl?$AA?$AA@ 0047ca40     libucrt:lcidtoname_downlevel.obj
 0002:00012a58       ??_C@_1O@HEDBLHNP@?$AAs?$AAm?$AAa?$AA?9?$AAS?$AAE?$AA?$AA@ 0047ca58     libucrt:lcidtoname_downlevel.obj
 0002:00012a68       ??_C@_1M@DAGCADIM@?$AAa?$AAr?$AA?9?$AAO?$AAM?$AA?$AA@ 0047ca68     libucrt:lcidtoname_downlevel.obj
 0002:00012a74       ??_C@_1M@FODLMICG@?$AAe?$AAn?$AA?9?$AAJ?$AAM?$AA?$AA@ 0047ca74     libucrt:lcidtoname_downlevel.obj
 0002:00012a80       ??_C@_1M@DNMLCIHB@?$AAe?$AAs?$AA?9?$AAV?$AAE?$AA?$AA@ 0047ca80     libucrt:lcidtoname_downlevel.obj
 0002:00012a8c       ??_C@_1O@EOKHMKJK@?$AAs?$AAm?$AAs?$AA?9?$AAF?$AAI?$AA?$AA@ 0047ca8c     libucrt:lcidtoname_downlevel.obj
 0002:00012a9c       ??_C@_1M@CAFJMKOF@?$AAa?$AAr?$AA?9?$AAY?$AAE?$AA?$AA@ 0047ca9c     libucrt:lcidtoname_downlevel.obj
 0002:00012aa8       ??_C@_1M@CBFHIJLI@?$AAe?$AAn?$AA?9?$AAC?$AAB?$AA?$AA@ 0047caa8     libucrt:lcidtoname_downlevel.obj
 0002:00012ab4       ??_C@_1M@BGNFLDN@?$AAe?$AAs?$AA?9?$AAC?$AAO?$AA?$AA@ 0047cab4     libucrt:lcidtoname_downlevel.obj
 0002:00012ac0       ??_C@_1O@JMPHMAMC@?$AAs?$AAm?$AAn?$AA?9?$AAF?$AAI?$AA?$AA@ 0047cac0     libucrt:lcidtoname_downlevel.obj
 0002:00012ad0       ??_C@_1M@JLANABKE@?$AAa?$AAr?$AA?9?$AAS?$AAY?$AA?$AA@ 0047cad0     libucrt:lcidtoname_downlevel.obj
 0002:00012adc       ??_C@_1M@HPKGCFGN@?$AAe?$AAn?$AA?9?$AAB?$AAZ?$AA?$AA@ 0047cadc     libucrt:lcidtoname_downlevel.obj
 0002:00012ae8       ??_C@_1M@OLJCMLGM@?$AAe?$AAs?$AA?9?$AAP?$AAE?$AA?$AA@ 0047cae8     libucrt:lcidtoname_downlevel.obj
 0002:00012af4       ??_C@_1M@MKKGFKLE@?$AAa?$AAr?$AA?9?$AAJ?$AAO?$AA?$AA@ 0047caf4     libucrt:lcidtoname_downlevel.obj
 0002:00012b00       ??_C@_1M@EKPGLDNI@?$AAe?$AAn?$AA?9?$AAT?$AAT?$AA?$AA@ 0047cb00     libucrt:lcidtoname_downlevel.obj
 0002:00012b0c       ??_C@_1M@OONGHFHE@?$AAe?$AAs?$AA?9?$AAA?$AAR?$AA?$AA@ 0047cb0c     libucrt:lcidtoname_downlevel.obj
 0002:00012b18       ??_C@_1M@OOJFGBHE@?$AAa?$AAr?$AA?9?$AAL?$AAB?$AA?$AA@ 0047cb18     libucrt:lcidtoname_downlevel.obj
 0002:00012b24       ??_C@_1M@GCEJHNEG@?$AAe?$AAn?$AA?9?$AAZ?$AAW?$AA?$AA@ 0047cb24     libucrt:lcidtoname_downlevel.obj
 0002:00012b30       ??_C@_1M@JNOCAHJI@?$AAe?$AAs?$AA?9?$AAE?$AAC?$AA?$AA@ 0047cb30     libucrt:lcidtoname_downlevel.obj
 0002:00012b3c       ??_C@_1M@JEFHPGGB@?$AAa?$AAr?$AA?9?$AAK?$AAW?$AA?$AA@ 0047cb3c     libucrt:lcidtoname_downlevel.obj
 0002:00012b48       ??_C@_1M@MLKIBJOJ@?$AAe?$AAn?$AA?9?$AAP?$AAH?$AA?$AA@ 0047cb48     libucrt:lcidtoname_downlevel.obj
 0002:00012b54       ??_C@_1M@BDNIPEND@?$AAe?$AAs?$AA?9?$AAC?$AAL?$AA?$AA@ 0047cb54     libucrt:lcidtoname_downlevel.obj
 0002:00012b60       ??_C@_1M@MPNMEKBD@?$AAa?$AAr?$AA?9?$AAA?$AAE?$AA?$AA@ 0047cb60     libucrt:lcidtoname_downlevel.obj
 0002:00012b6c       ??_C@_1M@KBJALCPI@?$AAe?$AAs?$AA?9?$AAU?$AAY?$AA?$AA@ 0047cb6c     libucrt:lcidtoname_downlevel.obj
 0002:00012b78       ??_C@_1M@LLCCOAGA@?$AAa?$AAr?$AA?9?$AAB?$AAH?$AA?$AA@ 0047cb78     libucrt:lcidtoname_downlevel.obj
 0002:00012b84       ??_C@_1M@PBFNCDEL@?$AAe?$AAs?$AA?9?$AAP?$AAY?$AA?$AA@ 0047cb84     libucrt:lcidtoname_downlevel.obj
 0002:00012b90       ??_C@_1M@EDGINPNP@?$AAa?$AAr?$AA?9?$AAQ?$AAA?$AA?$AA@ 0047cb90     libucrt:lcidtoname_downlevel.obj
 0002:00012b9c       ??_C@_1M@MKDBIIJI@?$AAe?$AAs?$AA?9?$AAB?$AAO?$AA?$AA@ 0047cb9c     libucrt:lcidtoname_downlevel.obj
 0002:00012ba8       ??_C@_1M@CPKKEBLD@?$AAe?$AAs?$AA?9?$AAS?$AAV?$AA?$AA@ 0047cba8     libucrt:lcidtoname_downlevel.obj
 0002:00012bb4       ??_C@_1M@NDBGMMJL@?$AAe?$AAs?$AA?9?$AAH?$AAN?$AA?$AA@ 0047cbb4     libucrt:lcidtoname_downlevel.obj
 0002:00012bc0       ??_C@_1M@JIJIBHDP@?$AAe?$AAs?$AA?9?$AAN?$AAI?$AA?$AA@ 0047cbc0     libucrt:lcidtoname_downlevel.obj
 0002:00012bcc       ??_C@_1M@CGFMKEEK@?$AAe?$AAs?$AA?9?$AAP?$AAR?$AA?$AA@ 0047cbcc     libucrt:lcidtoname_downlevel.obj
 0002:00012bd8       ??_C@_1O@ICJHKIIK@?$AAz?$AAh?$AA?9?$AAC?$AAH?$AAT?$AA?$AA@ 0047cbd8     libucrt:lcidtoname_downlevel.obj
 0002:00012be8       ??_C@_15CLNEJCE@?$AAs?$AAr?$AA?$AA@ 0047cbe8     libucrt:lcidtoname_downlevel.obj
 0002:00013310       ??_C@_1M@KAHEKEIG@?$AAa?$AAf?$AA?9?$AAz?$AAa?$AA?$AA@ 0047d310     libucrt:lcidtoname_downlevel.obj
 0002:0001331c       ??_C@_1M@GIECOABL@?$AAa?$AAr?$AA?9?$AAa?$AAe?$AA?$AA@ 0047d31c     libucrt:lcidtoname_downlevel.obj
 0002:00013328       ??_C@_1M@BMLMEKGI@?$AAa?$AAr?$AA?9?$AAb?$AAh?$AA?$AA@ 0047d328     libucrt:lcidtoname_downlevel.obj
 0002:00013334       ??_C@_1M@DAPFDGGB@?$AAa?$AAr?$AA?9?$AAd?$AAz?$AA?$AA@ 0047d334     libucrt:lcidtoname_downlevel.obj
 0002:00013340       ??_C@_1M@FJNKGKIG@?$AAa?$AAr?$AA?9?$AAe?$AAg?$AA?$AA@ 0047d340     libucrt:lcidtoname_downlevel.obj
 0002:0001334c       ??_C@_1M@FLGKKCLO@?$AAa?$AAr?$AA?9?$AAi?$AAq?$AA?$AA@ 0047d34c     libucrt:lcidtoname_downlevel.obj
 0002:00013358       ??_C@_1M@GNDIPALM@?$AAa?$AAr?$AA?9?$AAj?$AAo?$AA?$AA@ 0047d358     libucrt:lcidtoname_downlevel.obj
 0002:00013364       ??_C@_1M@DDMJFMGJ@?$AAa?$AAr?$AA?9?$AAk?$AAw?$AA?$AA@ 0047d364     libucrt:lcidtoname_downlevel.obj
 0002:00013370       ??_C@_1M@EJALMLHM@?$AAa?$AAr?$AA?9?$AAl?$AAb?$AA?$AA@ 0047d370     libucrt:lcidtoname_downlevel.obj
 0002:0001337c       ??_C@_1M@MOBDBLOC@?$AAa?$AAr?$AA?9?$AAl?$AAy?$AA?$AA@ 0047d37c     libucrt:lcidtoname_downlevel.obj
 0002:00013388       ??_C@_1M@JAOCLHDH@?$AAa?$AAr?$AA?9?$AAm?$AAa?$AA?$AA@ 0047d388     libucrt:lcidtoname_downlevel.obj
 0002:00013394       ??_C@_1M@JHPMKJIE@?$AAa?$AAr?$AA?9?$AAo?$AAm?$AA?$AA@ 0047d394     libucrt:lcidtoname_downlevel.obj
 0002:000133a0       ??_C@_1M@OEPGHFNH@?$AAa?$AAr?$AA?9?$AAq?$AAa?$AA?$AA@ 0047d3a0     libucrt:lcidtoname_downlevel.obj
 0002:000133ac       ??_C@_1M@KJDONENM@?$AAa?$AAr?$AA?9?$AAs?$AAa?$AA?$AA@ 0047d3ac     libucrt:lcidtoname_downlevel.obj
 0002:000133b8       ??_C@_1M@DMJDKLKM@?$AAa?$AAr?$AA?9?$AAs?$AAy?$AA?$AA@ 0047d3b8     libucrt:lcidtoname_downlevel.obj
 0002:000133c4       ??_C@_1M@OMFIPEDC@?$AAa?$AAr?$AA?9?$AAt?$AAn?$AA?$AA@ 0047d3c4     libucrt:lcidtoname_downlevel.obj
 0002:000133d0       ??_C@_1M@IHMHGAON@?$AAa?$AAr?$AA?9?$AAy?$AAe?$AA?$AA@ 0047d3d0     libucrt:lcidtoname_downlevel.obj
 0002:000133dc       ??_C@_1BG@KDCPGJGB@?$AAa?$AAz?$AA?9?$AAa?$AAz?$AA?9?$AAc?$AAy?$AAr?$AAl?$AA?$AA@ 0047d3dc     libucrt:lcidtoname_downlevel.obj
 0002:000133f4       ??_C@_1BG@IBCKDDOE@?$AAa?$AAz?$AA?9?$AAa?$AAz?$AA?9?$AAl?$AAa?$AAt?$AAn?$AA?$AA@ 0047d3f4     libucrt:lcidtoname_downlevel.obj
 0002:0001340c       ??_C@_1M@EGPFDCPD@?$AAb?$AAe?$AA?9?$AAb?$AAy?$AA?$AA@ 0047d40c     libucrt:lcidtoname_downlevel.obj
 0002:00013418       ??_C@_1M@PCMGMCGC@?$AAb?$AAg?$AA?9?$AAb?$AAg?$AA?$AA@ 0047d418     libucrt:lcidtoname_downlevel.obj
 0002:00013424       ??_C@_1M@BJBMFGOB@?$AAb?$AAn?$AA?9?$AAi?$AAn?$AA?$AA@ 0047d424     libucrt:lcidtoname_downlevel.obj
 0002:00013430       ??_C@_1BG@EAKMMACD@?$AAb?$AAs?$AA?9?$AAb?$AAa?$AA?9?$AAl?$AAa?$AAt?$AAn?$AA?$AA@ 0047d430     libucrt:lcidtoname_downlevel.obj
 0002:00013448       ??_C@_1M@KGADAODK@?$AAc?$AAa?$AA?9?$AAe?$AAs?$AA?$AA@ 0047d448     libucrt:lcidtoname_downlevel.obj
 0002:00013454       ??_C@_1M@COAJPDHI@?$AAc?$AAs?$AA?9?$AAc?$AAz?$AA?$AA@ 0047d454     libucrt:lcidtoname_downlevel.obj
 0002:00013460       ??_C@_1M@DHBHFONH@?$AAc?$AAy?$AA?9?$AAg?$AAb?$AA?$AA@ 0047d460     libucrt:lcidtoname_downlevel.obj
 0002:0001346c       ??_C@_1M@IMGKELGA@?$AAd?$AAa?$AA?9?$AAd?$AAk?$AA?$AA@ 0047d46c     libucrt:lcidtoname_downlevel.obj
 0002:00013478       ??_C@_1M@NNDGDNGA@?$AAd?$AAe?$AA?9?$AAa?$AAt?$AA?$AA@ 0047d478     libucrt:lcidtoname_downlevel.obj
 0002:00013484       ??_C@_1M@IKDBHEEM@?$AAd?$AAe?$AA?9?$AAc?$AAh?$AA?$AA@ 0047d484     libucrt:lcidtoname_downlevel.obj
 0002:00013490       ??_C@_1M@GFFOJMCJ@?$AAd?$AAe?$AA?9?$AAd?$AAe?$AA?$AA@ 0047d490     libucrt:lcidtoname_downlevel.obj
 0002:0001349c       ??_C@_1M@MDNLKBPM@?$AAd?$AAe?$AA?9?$AAl?$AAi?$AA?$AA@ 0047d49c     libucrt:lcidtoname_downlevel.obj
 0002:000134a8       ??_C@_1M@NJBEEJNL@?$AAd?$AAe?$AA?9?$AAl?$AAu?$AA?$AA@ 0047d4a8     libucrt:lcidtoname_downlevel.obj
 0002:000134b4       ??_C@_1O@GNNELBAP@?$AAd?$AAi?$AAv?$AA?9?$AAm?$AAv?$AA?$AA@ 0047d4b4     libucrt:lcidtoname_downlevel.obj
 0002:000134c4       ??_C@_1M@EJLEOGAE@?$AAe?$AAl?$AA?9?$AAg?$AAr?$AA?$AA@ 0047d4c4     libucrt:lcidtoname_downlevel.obj
 0002:000134d0       ??_C@_1M@GMPONJN@?$AAe?$AAn?$AA?9?$AAa?$AAu?$AA?$AA@ 0047d4d0     libucrt:lcidtoname_downlevel.obj
 0002:000134dc       ??_C@_1M@NIDIIPGF@?$AAe?$AAn?$AA?9?$AAb?$AAz?$AA?$AA@ 0047d4dc     libucrt:lcidtoname_downlevel.obj
 0002:000134e8       ??_C@_1M@JEHMIMFO@?$AAe?$AAn?$AA?9?$AAc?$AAa?$AA?$AA@ 0047d4e8     libucrt:lcidtoname_downlevel.obj
 0002:000134f4       ??_C@_1M@IGMJCDLA@?$AAe?$AAn?$AA?9?$AAc?$AAb?$AA?$AA@ 0047d4f4     libucrt:lcidtoname_downlevel.obj
 0002:00013500       ??_C@_1M@BNFIGBKG@?$AAe?$AAn?$AA?9?$AAg?$AAb?$AA?$AA@ 0047d500     libucrt:lcidtoname_downlevel.obj
 0002:0001350c       ??_C@_1M@LKIFDIGP@?$AAe?$AAn?$AA?9?$AAi?$AAe?$AA?$AA@ 0047d50c     libucrt:lcidtoname_downlevel.obj
 0002:00013518       ??_C@_1M@PJKFGCCO@?$AAe?$AAn?$AA?9?$AAj?$AAm?$AA?$AA@ 0047d518     libucrt:lcidtoname_downlevel.obj
 0002:00013524       ??_C@_1M@KPPKEPBO@?$AAe?$AAn?$AA?9?$AAn?$AAz?$AA?$AA@ 0047d524     libucrt:lcidtoname_downlevel.obj
 0002:00013530       ??_C@_1M@GMDGLDOB@?$AAe?$AAn?$AA?9?$AAp?$AAh?$AA?$AA@ 0047d530     libucrt:lcidtoname_downlevel.obj
 0002:0001353c       ??_C@_1M@ONGIBJNA@?$AAe?$AAn?$AA?9?$AAt?$AAt?$AA?$AA@ 0047d53c     libucrt:lcidtoname_downlevel.obj
 0002:00013548       ??_C@_1M@LLODPCMM@?$AAe?$AAn?$AA?9?$AAu?$AAs?$AA?$AA@ 0047d548     libucrt:lcidtoname_downlevel.obj
 0002:00013554       ??_C@_1M@LAKFNPAN@?$AAe?$AAn?$AA?9?$AAz?$AAa?$AA?$AA@ 0047d554     libucrt:lcidtoname_downlevel.obj
 0002:00013560       ??_C@_1M@MFNHNHEO@?$AAe?$AAn?$AA?9?$AAz?$AAw?$AA?$AA@ 0047d560     libucrt:lcidtoname_downlevel.obj
 0002:0001356c       ??_C@_1M@EJEINPHM@?$AAe?$AAs?$AA?9?$AAa?$AAr?$AA?$AA@ 0047d56c     libucrt:lcidtoname_downlevel.obj
 0002:00013578       ??_C@_1M@GNKPCCJA@?$AAe?$AAs?$AA?9?$AAb?$AAo?$AA?$AA@ 0047d578     libucrt:lcidtoname_downlevel.obj
 0002:00013584       ??_C@_1M@LEEGFONL@?$AAe?$AAs?$AA?9?$AAc?$AAl?$AA?$AA@ 0047d584     libucrt:lcidtoname_downlevel.obj
 0002:00013590       ??_C@_1M@KGPDPBDF@?$AAe?$AAs?$AA?9?$AAc?$AAo?$AA?$AA@ 0047d590     libucrt:lcidtoname_downlevel.obj
 0002:0001359c       ??_C@_1M@EIAHOHH@?$AAe?$AAs?$AA?9?$AAc?$AAr?$AA?$AA@ 0047d59c     libucrt:lcidtoname_downlevel.obj
 0002:000135a8       ??_C@_1M@LLPGMBIN@?$AAe?$AAs?$AA?9?$AAd?$AAo?$AA?$AA@ 0047d5a8     libucrt:lcidtoname_downlevel.obj
 0002:000135b4       ??_C@_1M@DKHMKNJA@?$AAe?$AAs?$AA?9?$AAe?$AAc?$AA?$AA@ 0047d5b4     libucrt:lcidtoname_downlevel.obj
 0002:000135c0       ??_C@_1M@GKGFPKAP@?$AAe?$AAs?$AA?9?$AAe?$AAs?$AA?$AA@ 0047d5c0     libucrt:lcidtoname_downlevel.obj
 0002:000135cc       ??_C@_1M@LKHKGDLN@?$AAe?$AAs?$AA?9?$AAg?$AAt?$AA?$AA@ 0047d5cc     libucrt:lcidtoname_downlevel.obj
 0002:000135d8       ??_C@_1M@HEIIGGJD@?$AAe?$AAs?$AA?9?$AAh?$AAn?$AA?$AA@ 0047d5d8     libucrt:lcidtoname_downlevel.obj
 0002:000135e4       ??_C@_1M@FBDHPPGD@?$AAe?$AAs?$AA?9?$AAm?$AAx?$AA?$AA@ 0047d5e4     libucrt:lcidtoname_downlevel.obj
 0002:000135f0       ??_C@_1M@DPAGLNDH@?$AAe?$AAs?$AA?9?$AAn?$AAi?$AA?$AA@ 0047d5f0     libucrt:lcidtoname_downlevel.obj
 0002:000135fc       ??_C@_1M@MDGOPGDD@?$AAe?$AAs?$AA?9?$AAp?$AAa?$AA?$AA@ 0047d5fc     libucrt:lcidtoname_downlevel.obj
 0002:00013608       ??_C@_1M@EMAMGBGE@?$AAe?$AAs?$AA?9?$AAp?$AAe?$AA?$AA@ 0047d608     libucrt:lcidtoname_downlevel.obj
 0002:00013614       ??_C@_1M@IBMCAOEC@?$AAe?$AAs?$AA?9?$AAp?$AAr?$AA?$AA@ 0047d614     libucrt:lcidtoname_downlevel.obj
 0002:00013620       ??_C@_1M@FGMDIJED@?$AAe?$AAs?$AA?9?$AAp?$AAy?$AA?$AA@ 0047d620     libucrt:lcidtoname_downlevel.obj
 0002:0001362c       ??_C@_1M@IIDEOLLL@?$AAe?$AAs?$AA?9?$AAs?$AAv?$AA?$AA@ 0047d62c     libucrt:lcidtoname_downlevel.obj
 0002:00013638       ??_C@_1M@GAOBIPA@?$AAe?$AAs?$AA?9?$AAu?$AAy?$AA?$AA@ 0047d638     libucrt:lcidtoname_downlevel.obj
 0002:00013644       ??_C@_1M@JKFFICHJ@?$AAe?$AAs?$AA?9?$AAv?$AAe?$AA?$AA@ 0047d644     libucrt:lcidtoname_downlevel.obj
 0002:00013650       ??_C@_1M@PNMLOJDF@?$AAe?$AAt?$AA?9?$AAe?$AAe?$AA?$AA@ 0047d650     libucrt:lcidtoname_downlevel.obj
 0002:0001365c       ??_C@_1M@GHHLIKEI@?$AAe?$AAu?$AA?9?$AAe?$AAs?$AA?$AA@ 0047d65c     libucrt:lcidtoname_downlevel.obj
 0002:00013668       ??_C@_1M@PBNONODE@?$AAf?$AAa?$AA?9?$AAi?$AAr?$AA?$AA@ 0047d668     libucrt:lcidtoname_downlevel.obj
 0002:00013674       ??_C@_1M@JEEHPMIL@?$AAf?$AAi?$AA?9?$AAf?$AAi?$AA?$AA@ 0047d674     libucrt:lcidtoname_downlevel.obj
 0002:00013680       ??_C@_1M@LMDCNDBA@?$AAf?$AAo?$AA?9?$AAf?$AAo?$AA?$AA@ 0047d680     libucrt:lcidtoname_downlevel.obj
 0002:0001368c       ??_C@_1M@JKEOHLDK@?$AAf?$AAr?$AA?9?$AAb?$AAe?$AA?$AA@ 0047d68c     libucrt:lcidtoname_downlevel.obj
 0002:00013698       ??_C@_1M@NOHADPMI@?$AAf?$AAr?$AA?9?$AAc?$AAa?$AA?$AA@ 0047d698     libucrt:lcidtoname_downlevel.obj
 0002:000136a4       ??_C@_1M@KDHIHAEC@?$AAf?$AAr?$AA?9?$AAc?$AAh?$AA?$AA@ 0047d6a4     libucrt:lcidtoname_downlevel.obj
 0002:000136b0       ??_C@_1M@MMBBFGAK@?$AAf?$AAr?$AA?9?$AAf?$AAr?$AA?$AA@ 0047d6b0     libucrt:lcidtoname_downlevel.obj
 0002:000136bc       ??_C@_1M@PAFNENNF@?$AAf?$AAr?$AA?9?$AAl?$AAu?$AA?$AA@ 0047d6bc     libucrt:lcidtoname_downlevel.obj
 0002:000136c8       ??_C@_1M@EOHDJGDD@?$AAf?$AAr?$AA?9?$AAm?$AAc?$AA?$AA@ 0047d6c8     libucrt:lcidtoname_downlevel.obj
 0002:000136d4       ??_C@_1M@FAPLLOPF@?$AAg?$AAl?$AA?9?$AAe?$AAs?$AA?$AA@ 0047d6d4     libucrt:lcidtoname_downlevel.obj
 0002:000136e0       ??_C@_1M@FOPBFLOO@?$AAg?$AAu?$AA?9?$AAi?$AAn?$AA?$AA@ 0047d6e0     libucrt:lcidtoname_downlevel.obj
 0002:000136ec       ??_C@_1M@KBMCINPM@?$AAh?$AAe?$AA?9?$AAi?$AAl?$AA?$AA@ 0047d6ec     libucrt:lcidtoname_downlevel.obj
 0002:000136f8       ??_C@_1M@BBPHKFPJ@?$AAh?$AAi?$AA?9?$AAi?$AAn?$AA?$AA@ 0047d6f8     libucrt:lcidtoname_downlevel.obj
 0002:00013704       ??_C@_1M@PMBNDPHD@?$AAh?$AAr?$AA?9?$AAb?$AAa?$AA?$AA@ 0047d704     libucrt:lcidtoname_downlevel.obj
 0002:00013710       ??_C@_1M@BPCKOEGE@?$AAh?$AAr?$AA?9?$AAh?$AAr?$AA?$AA@ 0047d710     libucrt:lcidtoname_downlevel.obj
 0002:0001371c       ??_C@_1M@GACBMHKE@?$AAh?$AAu?$AA?9?$AAh?$AAu?$AA?$AA@ 0047d71c     libucrt:lcidtoname_downlevel.obj
 0002:00013728       ??_C@_1M@MILPAJJC@?$AAh?$AAy?$AA?9?$AAa?$AAm?$AA?$AA@ 0047d728     libucrt:lcidtoname_downlevel.obj
 0002:00013734       ??_C@_1M@BABBICEC@?$AAi?$AAd?$AA?9?$AAi?$AAd?$AA?$AA@ 0047d734     libucrt:lcidtoname_downlevel.obj
 0002:00013740       ??_C@_1M@BIKNHHPF@?$AAi?$AAs?$AA?9?$AAi?$AAs?$AA?$AA@ 0047d740     libucrt:lcidtoname_downlevel.obj
 0002:0001374c       ??_C@_1M@NMPCJPHE@?$AAi?$AAt?$AA?9?$AAc?$AAh?$AA?$AA@ 0047d74c     libucrt:lcidtoname_downlevel.obj
 0002:00013758       ??_C@_1M@GHKGFEDF@?$AAi?$AAt?$AA?9?$AAi?$AAt?$AA?$AA@ 0047d758     libucrt:lcidtoname_downlevel.obj
 0002:00013764       ??_C@_1M@NIEJCJJA@?$AAj?$AAa?$AA?9?$AAj?$AAp?$AA?$AA@ 0047d764     libucrt:lcidtoname_downlevel.obj
 0002:00013770       ??_C@_1M@JILFNBIM@?$AAk?$AAa?$AA?9?$AAg?$AAe?$AA?$AA@ 0047d770     libucrt:lcidtoname_downlevel.obj
 0002:0001377c       ??_C@_1M@PACPMGPH@?$AAk?$AAk?$AA?9?$AAk?$AAz?$AA?$AA@ 0047d77c     libucrt:lcidtoname_downlevel.obj
 0002:00013788       ??_C@_1M@IELFGMHA@?$AAk?$AAn?$AA?9?$AAi?$AAn?$AA?$AA@ 0047d788     libucrt:lcidtoname_downlevel.obj
 0002:00013794       ??_C@_1O@IBBJHCH@?$AAk?$AAo?$AAk?$AA?9?$AAi?$AAn?$AA?$AA@ 0047d794     libucrt:lcidtoname_downlevel.obj
 0002:000137a4       ??_C@_1M@DMHAEOGC@?$AAk?$AAo?$AA?9?$AAk?$AAr?$AA?$AA@ 0047d7a4     libucrt:lcidtoname_downlevel.obj
 0002:000137b0       ??_C@_1M@HBAHBIGA@?$AAk?$AAy?$AA?9?$AAk?$AAg?$AA?$AA@ 0047d7b0     libucrt:lcidtoname_downlevel.obj
 0002:000137bc       ??_C@_1M@KPMILCJG@?$AAl?$AAt?$AA?9?$AAl?$AAt?$AA?$AA@ 0047d7bc     libucrt:lcidtoname_downlevel.obj
 0002:000137c8       ??_C@_1M@BDEKKCA@?$AAl?$AAv?$AA?9?$AAl?$AAv?$AA?$AA@ 0047d7c8     libucrt:lcidtoname_downlevel.obj
 0002:000137d4       ??_C@_1M@ELCKCCJJ@?$AAm?$AAi?$AA?9?$AAn?$AAz?$AA?$AA@ 0047d7d4     libucrt:lcidtoname_downlevel.obj
 0002:000137e0       ??_C@_1M@CBOOLAPA@?$AAm?$AAk?$AA?9?$AAm?$AAk?$AA?$AA@ 0047d7e0     libucrt:lcidtoname_downlevel.obj
 0002:000137ec       ??_C@_1M@GPHNBJKN@?$AAm?$AAl?$AA?9?$AAi?$AAn?$AA?$AA@ 0047d7ec     libucrt:lcidtoname_downlevel.obj
 0002:000137f8       ??_C@_1M@PABJILIG@?$AAm?$AAn?$AA?9?$AAm?$AAn?$AA?$AA@ 0047d7f8     libucrt:lcidtoname_downlevel.obj
 0002:00013804       ??_C@_1M@FGBKKIPG@?$AAm?$AAr?$AA?9?$AAi?$AAn?$AA?$AA@ 0047d804     libucrt:lcidtoname_downlevel.obj
 0002:00013810       ??_C@_1M@NDBPDDAL@?$AAm?$AAs?$AA?9?$AAb?$AAn?$AA?$AA@ 0047d810     libucrt:lcidtoname_downlevel.obj
 0002:0001381c       ??_C@_1M@OPIHOOPI@?$AAm?$AAs?$AA?9?$AAm?$AAy?$AA?$AA@ 0047d81c     libucrt:lcidtoname_downlevel.obj
 0002:00013828       ??_C@_1M@PPDBCNFM@?$AAm?$AAt?$AA?9?$AAm?$AAt?$AA?$AA@ 0047d828     libucrt:lcidtoname_downlevel.obj
 0002:00013834       ??_C@_1M@KDJDKMDD@?$AAn?$AAb?$AA?9?$AAn?$AAo?$AA?$AA@ 0047d834     libucrt:lcidtoname_downlevel.obj
 0002:00013840       ??_C@_1M@KFCFLMJP@?$AAn?$AAl?$AA?9?$AAb?$AAe?$AA?$AA@ 0047d840     libucrt:lcidtoname_downlevel.obj
 0002:0001384c       ??_C@_1M@KPOPDDGO@?$AAn?$AAl?$AA?9?$AAn?$AAl?$AA?$AA@ 0047d84c     libucrt:lcidtoname_downlevel.obj
 0002:00013858       ??_C@_1M@LJKPEMLN@?$AAn?$AAn?$AA?9?$AAn?$AAo?$AA?$AA@ 0047d858     libucrt:lcidtoname_downlevel.obj
 0002:00013864       ??_C@_1M@BDGHHBFL@?$AAn?$AAs?$AA?9?$AAz?$AAa?$AA?$AA@ 0047d864     libucrt:lcidtoname_downlevel.obj
 0002:00013870       ??_C@_1M@IDEHOAP@?$AAp?$AAa?$AA?9?$AAi?$AAn?$AA?$AA@ 0047d870     libucrt:lcidtoname_downlevel.obj
 0002:0001387c       ??_C@_1M@HDBKGOGH@?$AAp?$AAl?$AA?9?$AAp?$AAl?$AA?$AA@ 0047d87c     libucrt:lcidtoname_downlevel.obj
 0002:00013888       ??_C@_1M@LJLLCMEH@?$AAp?$AAt?$AA?9?$AAb?$AAr?$AA?$AA@ 0047d888     libucrt:lcidtoname_downlevel.obj
 0002:00013894       ??_C@_1M@NCMONAAL@?$AAp?$AAt?$AA?9?$AAp?$AAt?$AA?$AA@ 0047d894     libucrt:lcidtoname_downlevel.obj
 0002:000138a0       ??_C@_1O@EAKMAJDN@?$AAq?$AAu?$AAz?$AA?9?$AAb?$AAo?$AA?$AA@ 0047d8a0     libucrt:lcidtoname_downlevel.obj
 0002:000138b0       ??_C@_1O@BHHPIGDN@?$AAq?$AAu?$AAz?$AA?9?$AAe?$AAc?$AA?$AA@ 0047d8b0     libucrt:lcidtoname_downlevel.obj
 0002:000138c0       ??_C@_1O@GBAPEKMJ@?$AAq?$AAu?$AAz?$AA?9?$AAp?$AAe?$AA?$AA@ 0047d8c0     libucrt:lcidtoname_downlevel.obj
 0002:000138d0       ??_C@_1M@CLGLEFBO@?$AAr?$AAo?$AA?9?$AAr?$AAo?$AA?$AA@ 0047d8d0     libucrt:lcidtoname_downlevel.obj
 0002:000138dc       ??_C@_1M@CEEDODME@?$AAr?$AAu?$AA?9?$AAr?$AAu?$AA?$AA@ 0047d8dc     libucrt:lcidtoname_downlevel.obj
 0002:000138e8       ??_C@_1M@HPKKKMPP@?$AAs?$AAa?$AA?9?$AAi?$AAn?$AA?$AA@ 0047d8e8     libucrt:lcidtoname_downlevel.obj
 0002:000138f4       ??_C@_1M@BKMAIGOJ@?$AAs?$AAe?$AA?9?$AAf?$AAi?$AA?$AA@ 0047d8f4     libucrt:lcidtoname_downlevel.obj
 0002:00013900       ??_C@_1M@NDPIFLFI@?$AAs?$AAe?$AA?9?$AAn?$AAo?$AA?$AA@ 0047d900     libucrt:lcidtoname_downlevel.obj
 0002:0001390c       ??_C@_1M@DANKKHJ@?$AAs?$AAe?$AA?9?$AAs?$AAe?$AA?$AA@ 0047d90c     libucrt:lcidtoname_downlevel.obj
 0002:00013918       ??_C@_1M@PNBLONPJ@?$AAs?$AAk?$AA?9?$AAs?$AAk?$AA?$AA@ 0047d918     libucrt:lcidtoname_downlevel.obj
 0002:00013924       ??_C@_1M@LFMODOAL@?$AAs?$AAl?$AA?9?$AAs?$AAi?$AA?$AA@ 0047d924     libucrt:lcidtoname_downlevel.obj
 0002:00013930       ??_C@_1O@DFKOMPG@?$AAs?$AAm?$AAa?$AA?9?$AAn?$AAo?$AA?$AA@ 0047d930     libucrt:lcidtoname_downlevel.obj
 0002:00013940       ??_C@_1O@NDKPBNNH@?$AAs?$AAm?$AAa?$AA?9?$AAs?$AAe?$AA?$AA@ 0047d940     libucrt:lcidtoname_downlevel.obj
 0002:00013950       ??_C@_1O@PLLKBHAB@?$AAs?$AAm?$AAj?$AA?9?$AAn?$AAo?$AA?$AA@ 0047d950     libucrt:lcidtoname_downlevel.obj
 0002:00013960       ??_C@_1O@CLEPOGCA@?$AAs?$AAm?$AAj?$AA?9?$AAs?$AAe?$AA?$AA@ 0047d960     libucrt:lcidtoname_downlevel.obj
 0002:00013970       ??_C@_1O@DLGJGKMK@?$AAs?$AAm?$AAn?$AA?9?$AAf?$AAi?$AA?$AA@ 0047d970     libucrt:lcidtoname_downlevel.obj
 0002:00013980       ??_C@_1O@OJDJGAJC@?$AAs?$AAm?$AAs?$AA?9?$AAf?$AAi?$AA?$AA@ 0047d980     libucrt:lcidtoname_downlevel.obj
 0002:00013990       ??_C@_1M@BOFOGHPB@?$AAs?$AAq?$AA?9?$AAa?$AAl?$AA?$AA@ 0047d990     libucrt:lcidtoname_downlevel.obj
 0002:0001399c       ??_C@_1BG@LJBBIPGB@?$AAs?$AAr?$AA?9?$AAb?$AAa?$AA?9?$AAc?$AAy?$AAr?$AAl?$AA?$AA@ 0047d99c     libucrt:lcidtoname_downlevel.obj
 0002:000139b4       ??_C@_1BG@JLBENFOE@?$AAs?$AAr?$AA?9?$AAb?$AAa?$AA?9?$AAl?$AAa?$AAt?$AAn?$AA?$AA@ 0047d9b4     libucrt:lcidtoname_downlevel.obj
 0002:000139cc       ??_C@_1BG@KODPNHE@?$AAs?$AAr?$AA?9?$AAs?$AAp?$AA?9?$AAc?$AAy?$AAr?$AAl?$AA?$AA@ 0047d9cc     libucrt:lcidtoname_downlevel.obj
 0002:000139e4       ??_C@_1BG@CIOGKHPB@?$AAs?$AAr?$AA?9?$AAs?$AAp?$AA?9?$AAl?$AAa?$AAt?$AAn?$AA?$AA@ 0047d9e4     libucrt:lcidtoname_downlevel.obj
 0002:000139fc       ??_C@_1M@NGFJLMAC@?$AAs?$AAv?$AA?9?$AAf?$AAi?$AA?$AA@ 0047d9fc     libucrt:lcidtoname_downlevel.obj
 0002:00013a08       ??_C@_1M@MPJEJAJC@?$AAs?$AAv?$AA?9?$AAs?$AAe?$AA?$AA@ 0047da08     libucrt:lcidtoname_downlevel.obj
 0002:00013a14       ??_C@_1M@MPNDHLFK@?$AAs?$AAw?$AA?9?$AAk?$AAe?$AA?$AA@ 0047da14     libucrt:lcidtoname_downlevel.obj
 0002:00013a20       ??_C@_1O@KOHBJJI@?$AAs?$AAy?$AAr?$AA?9?$AAs?$AAy?$AA?$AA@ 0047da20     libucrt:lcidtoname_downlevel.obj
 0002:00013a30       ??_C@_1M@LDCEFHA@?$AAt?$AAa?$AA?9?$AAi?$AAn?$AA?$AA@ 0047da30     libucrt:lcidtoname_downlevel.obj
 0002:00013a3c       ??_C@_1M@CNJOFAK@?$AAt?$AAe?$AA?9?$AAi?$AAn?$AA?$AA@ 0047da3c     libucrt:lcidtoname_downlevel.obj
 0002:00013a48       ??_C@_1M@GNAECACD@?$AAt?$AAh?$AA?9?$AAt?$AAh?$AA?$AA@ 0047da48     libucrt:lcidtoname_downlevel.obj
 0002:00013a54       ??_C@_1M@CHBIHOJO@?$AAt?$AAn?$AA?9?$AAz?$AAa?$AA?$AA@ 0047da54     libucrt:lcidtoname_downlevel.obj
 0002:00013a60       ??_C@_1M@GCCMIGPJ@?$AAt?$AAr?$AA?9?$AAt?$AAr?$AA?$AA@ 0047da60     libucrt:lcidtoname_downlevel.obj
 0002:00013a6c       ??_C@_1M@CELMCNBK@?$AAt?$AAt?$AA?9?$AAr?$AAu?$AA?$AA@ 0047da6c     libucrt:lcidtoname_downlevel.obj
 0002:00013a78       ??_C@_1M@KLMCELGA@?$AAu?$AAk?$AA?9?$AAu?$AAa?$AA?$AA@ 0047da78     libucrt:lcidtoname_downlevel.obj
 0002:00013a84       ??_C@_1M@EPAJJAJF@?$AAu?$AAr?$AA?9?$AAp?$AAk?$AA?$AA@ 0047da84     libucrt:lcidtoname_downlevel.obj
 0002:00013a90       ??_C@_1BG@GEGPMCDJ@?$AAu?$AAz?$AA?9?$AAu?$AAz?$AA?9?$AAc?$AAy?$AAr?$AAl?$AA?$AA@ 0047da90     libucrt:lcidtoname_downlevel.obj
 0002:00013aa8       ??_C@_1BG@EGGKJILM@?$AAu?$AAz?$AA?9?$AAu?$AAz?$AA?9?$AAl?$AAa?$AAt?$AAn?$AA?$AA@ 0047daa8     libucrt:lcidtoname_downlevel.obj
 0002:00013ac0       ??_C@_1M@GFOCLFF@?$AAv?$AAi?$AA?9?$AAv?$AAn?$AA?$AA@ 0047dac0     libucrt:lcidtoname_downlevel.obj
 0002:00013acc       ??_C@_1M@CPAMEDFI@?$AAx?$AAh?$AA?9?$AAz?$AAa?$AA?$AA@ 0047dacc     libucrt:lcidtoname_downlevel.obj
 0002:00013ad8       ??_C@_1O@EBKIFIGN@?$AAz?$AAh?$AA?9?$AAc?$AAh?$AAs?$AA?$AA@ 0047dad8     libucrt:lcidtoname_downlevel.obj
 0002:00013ae8       ??_C@_1O@NMHPGANE@?$AAz?$AAh?$AA?9?$AAc?$AAh?$AAt?$AA?$AA@ 0047dae8     libucrt:lcidtoname_downlevel.obj
 0002:00013af8       ??_C@_1M@LPINJOMC@?$AAz?$AAh?$AA?9?$AAc?$AAn?$AA?$AA@ 0047daf8     libucrt:lcidtoname_downlevel.obj
 0002:00013b04       ??_C@_1M@OCJEJODD@?$AAz?$AAh?$AA?9?$AAh?$AAk?$AA?$AA@ 0047db04     libucrt:lcidtoname_downlevel.obj
 0002:00013b10       ??_C@_1M@DNDLJINH@?$AAz?$AAh?$AA?9?$AAm?$AAo?$AA?$AA@ 0047db10     libucrt:lcidtoname_downlevel.obj
 0002:00013b1c       ??_C@_1M@MBFDNDND@?$AAz?$AAh?$AA?9?$AAs?$AAg?$AA?$AA@ 0047db1c     libucrt:lcidtoname_downlevel.obj
 0002:00013b28       ??_C@_1M@IMEPLEPE@?$AAz?$AAh?$AA?9?$AAt?$AAw?$AA?$AA@ 0047db28     libucrt:lcidtoname_downlevel.obj
 0002:00013b34       ??_C@_1M@BBGHNHJP@?$AAz?$AAu?$AA?9?$AAz?$AAa?$AA?$AA@ 0047db34     libucrt:lcidtoname_downlevel.obj
 0002:00013c00       __infinity                 0047dc00     libucrt:87tran.obj
 0002:00013c0a       __minfinity                0047dc0a     libucrt:87tran.obj
 0002:00013c14       __logemax                  0047dc14     libucrt:87tran.obj
 0002:00013c3a       __OP_EXPjmptab             0047dc3a     libucrt:87tran.obj
 0002:00013c60       __indefinite               0047dc60     libucrt:87disp.obj
 0002:00013c6a       __piby2                    0047dc6a     libucrt:87disp.obj
 0002:00013c74       __piby4                    0047dc74     libucrt:87disp.obj
 0002:00013ca8       __DEFAULT_CW_in_mem        0047dca8     libucrt:common.obj
 0002:00013caa       __pi_by_2_to_61            0047dcaa     libucrt:common.obj
 0002:00013ce8       ?large_power_data@?1??multiply_by_power_of_ten@__crt_strtox@@YA_NAAUbig_integer@2@I@Z@4QBIB 0047dce8     libucrt:cfout.obj
 0002:000145f0       ?large_power_indices@?1??multiply_by_power_of_ten@__crt_strtox@@YA_NAAUbig_integer@2@I@Z@4QBUunpack_index@?1??12@YA_N0I@Z@B 0047e5f0     libucrt:cfout.obj
 0002:00014688       ?small_powers_of_ten@?1??multiply_by_power_of_ten@__crt_strtox@@YA_NAAUbig_integer@2@I@Z@4QBIB 0047e688     libucrt:cfout.obj
 0002:000146ac       ??_C@_05DNEBIAHO@1?$CDINF?$AA@ 0047e6ac     libucrt:cfout.obj
 0002:000146b4       ??_C@_06IMKFLFPG@1?$CDQNAN?$AA@ 0047e6b4     libucrt:cfout.obj
 0002:000146bc       ??_C@_06PGGFOGJG@1?$CDSNAN?$AA@ 0047e6bc     libucrt:cfout.obj
 0002:000146c4       ??_C@_05PHHOCPM@1?$CDIND?$AA@ 0047e6c4     libucrt:cfout.obj
 0002:00014950       ??_C@_1BA@BALFACEM@?$AAC?$AAO?$AAN?$AAO?$AAU?$AAT?$AA$?$AA?$AA@ 0047e950     libucrt:initcon.obj
 0002:000149d0       __load_config_used         0047e9d0     LIBCMT:loadcfg.obj
 0002:00014a70       ??_R4OPNBase@FM@@6B@       0047ea70     opna.obj
 0002:00014a84       ??_R3OPNBase@FM@@8         0047ea84     opna.obj
 0002:00014a94       ??_R2OPNBase@FM@@8         0047ea94     opna.obj
 0002:00014a9c       ??_R1A@?0A@EA@OPNBase@FM@@8 0047ea9c     opna.obj
 0002:00014ab8       ??_R4OPN@FM@@6B@           0047eab8     opna.obj
 0002:00014acc       ??_R3OPN@FM@@8             0047eacc     opna.obj
 0002:00014adc       ??_R2OPN@FM@@8             0047eadc     opna.obj
 0002:00014ae8       ??_R1A@?0A@EA@OPN@FM@@8    0047eae8     opna.obj
 0002:00014b04       ??_R4type_info@@6B@        0047eb04     LIBCMT:std_type_info_static.obj
 0002:00014b18       ??_R3type_info@@8          0047eb18     LIBCMT:std_type_info_static.obj
 0002:00014b28       ??_R2type_info@@8          0047eb28     LIBCMT:std_type_info_static.obj
 0002:00014b30       ??_R1A@?0A@EA@type_info@@8 0047eb30     LIBCMT:std_type_info_static.obj
 0002:00014b4c       ??_R4exception@std@@6B@    0047eb4c     LIBCMT:throw_bad_alloc.obj
 0002:00014b60       ??_R3exception@std@@8      0047eb60     LIBCMT:throw_bad_alloc.obj
 0002:00014b70       ??_R2exception@std@@8      0047eb70     LIBCMT:throw_bad_alloc.obj
 0002:00014b78       ??_R1A@?0A@EA@exception@std@@8 0047eb78     LIBCMT:throw_bad_alloc.obj
 0002:00014b94       ??_R4bad_alloc@std@@6B@    0047eb94     LIBCMT:throw_bad_alloc.obj
 0002:00014ba8       ??_R3bad_alloc@std@@8      0047eba8     LIBCMT:throw_bad_alloc.obj
 0002:00014bb8       ??_R2bad_alloc@std@@8      0047ebb8     LIBCMT:throw_bad_alloc.obj
 0002:00014bc4       ??_R1A@?0A@EA@bad_alloc@std@@8 0047ebc4     LIBCMT:throw_bad_alloc.obj
 0002:00014be0       ??_R4bad_array_new_length@std@@6B@ 0047ebe0     LIBCMT:throw_bad_alloc.obj
 0002:00014bf4       ??_R3bad_array_new_length@std@@8 0047ebf4     LIBCMT:throw_bad_alloc.obj
 0002:00014c04       ??_R2bad_array_new_length@std@@8 0047ec04     LIBCMT:throw_bad_alloc.obj
 0002:00014c14       ??_R1A@?0A@EA@bad_array_new_length@std@@8 0047ec14     LIBCMT:throw_bad_alloc.obj
 0002:00014eec       ___rtc_iaa                 0047eeec     LIBCMT:_initsect_.obj
 0002:00014ef0       ___rtc_izz                 0047eef0     LIBCMT:_initsect_.obj
 0002:00014ef4       ___rtc_taa                 0047eef4     LIBCMT:_initsect_.obj
 0002:00014ef8       ___rtc_tzz                 0047eef8     LIBCMT:_initsect_.obj
 0002:00014f1c       __TI2?AVbad_alloc@std@@    0047ef1c     LIBCMT:throw_bad_alloc.obj
 0002:00014f2c       __CTA2?AVbad_alloc@std@@   0047ef2c     LIBCMT:throw_bad_alloc.obj
 0002:00014f38       __CT??_R0?AVbad_alloc@std@@@8??0bad_alloc@std@@QAE@ABV01@@Z12 0047ef38     LIBCMT:throw_bad_alloc.obj
 0002:00014f54       __CT??_R0?AVexception@std@@@8??0exception@std@@QAE@ABV01@@Z12 0047ef54     LIBCMT:throw_bad_alloc.obj
 0002:00014f70       __TI3?AVbad_array_new_length@std@@ 0047ef70     LIBCMT:throw_bad_alloc.obj
 0002:00014f80       __CTA3?AVbad_array_new_length@std@@ 0047ef80     LIBCMT:throw_bad_alloc.obj
 0002:00014f90       __CT??_R0?AVbad_array_new_length@std@@@8??0bad_array_new_length@std@@QAE@ABV01@@Z12 0047ef90     LIBCMT:throw_bad_alloc.obj
 0002:0001542c       __IMPORT_DESCRIPTOR_KERNEL32 0047f42c     kernel32:KERNEL32.dll
 0002:00015440       __IMPORT_DESCRIPTOR_USER32 0047f440     user32:USER32.dll
 0002:00015454       __IMPORT_DESCRIPTOR_GDI32  0047f454     gdi32:GDI32.dll
 0002:00015468       __IMPORT_DESCRIPTOR_COMCTL32 0047f468     comctl32:COMCTL32.dll
 0002:0001547c       __IMPORT_DESCRIPTOR_COMDLG32 0047f47c     comdlg32:COMDLG32.dll
 0002:00015490       __IMPORT_DESCRIPTOR_SHELL32 0047f490     shell32:SHELL32.dll
 0002:000154a4       __IMPORT_DESCRIPTOR_WINMM  0047f4a4     winmm:WINMM.dll
 0002:000154b8       __IMPORT_DESCRIPTOR_IMM32  0047f4b8     imm32:IMM32.dll
 0002:000154cc       __IMPORT_DESCRIPTOR_DDRAW  0047f4cc     ddraw:DDRAW.dll
 0002:000154e0       __IMPORT_DESCRIPTOR_DINPUT 0047f4e0     dinput:DINPUT.dll
 0002:000154f4       __IMPORT_DESCRIPTOR_DSOUND 0047f4f4     dsound:DSOUND.dll
 0002:00015508       __IMPORT_DESCRIPTOR_ole32  0047f508     ole32:ole32.dll
 0002:0001551c       __NULL_IMPORT_DESCRIPTOR   0047f51c     kernel32:KERNEL32.dll
 0003:00000438       _ctrl_key_table            00481438     keyboard.obj
 0003:000004f8       _graph_key_table           004814f8     keyboard.obj
 0003:00000728       _kana_key_table            00481728     keyboard.obj
 0003:00000958       _caps_key_table            00481958     keyboard.obj
 0003:00000b88       _norm_key_table            00481b88     keyboard.obj
 0003:00000db8       _ctrl_16b_table            00481db8     keyboard.obj
 0003:00000ec0       _graph_16b_table           00481ec0     keyboard.obj
 0003:000010f0       _kana_16b_table            004820f0     keyboard.obj
 0003:00001320       _caps_16b_table            00482320     keyboard.obj
 0003:00001550       _norm_16b_table            00482550     keyboard.obj
 0003:0000178c       _state_header              0048278c     system.obj
 0003:00001f28       _bOFNCentering             00482f28     w32_cmd.obj
 0003:00001f50       _bPopupSwnd                00482f50     w32_sub1.obj
 0003:00002370       ___security_cookie         00483370     LIBCMT:gs_cookie.obj
 0003:00002374       ___security_cookie_complement 00483374     LIBCMT:gs_cookie.obj
 0003:00002378       __fltused                  00483378     LIBCMT:fltused.obj
 0003:00002380       ___isa_enabled             00483380     LIBCMT:_cpu_disp_.obj
 0003:00002390       ___scrt_native_dllmain_reason 00483390     LIBCMT:utility.obj
 0003:00002394       ___scrt_default_matherr    00483394     LIBCMT:matherr.obj
 0003:000023b0       __NLG_Destination          004833b0     libvcruntime:_exsup_.obj
 0003:000023c0       __lookuptrailbytes         004833c0     libucrt:read.obj
 0003:000024c0       ___abort_behavior          004834c0     libucrt:abort.obj
 0003:00002578       __iob                      00483578     libucrt:_file.obj
 0003:00002620       ___acrt_initial_locale_data 00483620     libucrt:nlsdata.obj
 0003:000026d8       ___acrt_initial_locale_pointers 004836d8     libucrt:nlsdata.obj
 0003:000026e0       ___acrt_wide_c_locale_string 004836e0     libucrt:nlsdata.obj
 0003:000029f8       ___acrt_initial_multibyte_data 004839f8     libucrt:mbctype.obj
 0003:00002c18       ___acrt_lconv_static_decimal 00483c18     libucrt:localeconv.obj
 0003:00002c1c       ___acrt_lconv_static_W_decimal 00483c1c     libucrt:localeconv.obj
 0003:00002c20       ___acrt_lconv_c            00483c20     libucrt:localeconv.obj
 0003:00002c70       ___globallocalestatus      00483c70     libucrt:glstatus.obj
 0003:00002c90       ??_R0?AVOPNBase@FM@@@8     00483c90     opna.obj
 0003:00002cac       ??_R0?AVOPN@FM@@@8         00483cac     opna.obj
 0003:00002cc4       ??_R0?AVtype_info@@@8      00483cc4     LIBCMT:std_type_info_static.obj
 0003:00002cdc       ??_R0?AVbad_alloc@std@@@8  00483cdc     LIBCMT:throw_bad_alloc.obj
 0003:00002cf8       ??_R0?AVexception@std@@@8  00483cf8     LIBCMT:throw_bad_alloc.obj
 0003:00002d14       ??_R0?AVbad_array_new_length@std@@@8 00483d14     LIBCMT:throw_bad_alloc.obj
 0003:0000db38       _bGravestone               0048eb38     w32_ver.obj
 0003:0000dda0       ?sinetable@Operator@FM@@0PAIA 0048eda0     fmgen.obj
 0003:0000eda0       ?cltable@Operator@FM@@0PAHA 0048fda0     fmgen.obj
 0003:00016da0       ?tablehasmade@Operator@FM@@0_NA 00497da0     fmgen.obj
 0003:00016da1       ?tablehasmade@Channel4@FM@@0_NA 00497da1     fmgen.obj
 0003:00016da8       ?kftable@Channel4@FM@@0PAHA 00497da8     fmgen.obj
 0003:00016ea8       ?pmtable@FM@@3PAY17BAA@HA  00497ea8     fmgen.obj
 0003:0001aea8       ?amtable@FM@@3PAY13BAA@IA  0049bea8     fmgen.obj
 0003:0001cea8       ?lfotable@OPNBase@FM@@1PAIA 0049dea8     opna.obj
 0003:0001cec8       ?enveloptable@PSG@@1PAY0EA@IA 0049dec8     psg.obj
 0003:0001dec8       ?noisetable@PSG@@1PAIA     0049eec8     psg.obj
 0003:0001fec8       ?EmitTable@PSG@@1PAHA      004a0ec8     psg.obj
 0003:0001ff48       ?table_initialize@PSG@@1_NA 004a0f48     psg.obj
 0003:0001ff50       _rgbTTLDD                  004a0f50     w32_dd.obj
 0003:0001ff70       _rgbAnalogDD               004a0f70     w32_dd.obj
 0003:00023f70       _nDDResolutionMode         004a4f70     w32_dd.obj
 0003:00023f74       _bDD480Status              004a4f74     w32_dd.obj
 0003:00023f78       _bDDtruecolor              004a4f78     w32_dd.obj
 0003:00023f80       _DDDrawFlag                004a4f80     w32_dd.obj
 0003:00025250       _kbd_map                   004a6250     w32_kbd.obj
 0003:00025350       _kbd_table                 004a6350     w32_kbd.obj
 0003:00025450       _nJoyType                  004a6450     w32_kbd.obj
 0003:00025458       _nJoyRapid                 004a6458     w32_kbd.obj
 0003:00025468       _nJoyCode                  004a6468     w32_kbd.obj
 0003:000254a0       _bKbdReal                  004a64a0     w32_kbd.obj
 0003:000254a4       _bTenCursor                004a64a4     w32_kbd.obj
 0003:000254a8       _bArrow8Dir                004a64a8     w32_kbd.obj
 0003:000254ac       _bNTkeyPushFlag            004a64ac     w32_kbd.obj
 0003:000254bc       _bNTkbMode                 004a64bc     w32_kbd.obj
 0003:000254c0       _bNTkeyMakeFlag            004a64c0     w32_kbd.obj
 0003:000256c0       _uPasteWait                004a66c0     w32_kbd.obj
 0003:000256c4       _uPasteWaitCntl            004a66c4     w32_kbd.obj
 0003:000256c8       _uMidBtnMode               004a66c8     w32_kbd.obj
 0003:000256cc       _bDetectMouse              004a66cc     w32_kbd.obj
 0003:00025788       _lpr_use_os_font           004a6788     w32_lpr.obj
 0003:0002578c       _lpr_output_kanji          004a678c     w32_lpr.obj
 0003:00025f98       _bUseRomeo                 004a6f98     w32_snd.obj
 0003:00025f9c       _uChSeparation             004a6f9c     w32_snd.obj
 0003:00025fa0       _nFMVolume                 004a6fa0     w32_snd.obj
 0003:00025fa4       _nPSGVolume                004a6fa4     w32_snd.obj
 0003:00025fa8       _nBeepVolume               004a6fa8     w32_snd.obj
 0003:00025fac       _nCMTVolume                004a6fac     w32_snd.obj
 0003:00025fb0       _nWaveVolume               004a6fb0     w32_snd.obj
 0003:00025fb4       ?nChannelMask@@3PAGA       004a6fb4     w32_snd.obj
 0003:00025fbc       _CopySoundBuffer           004a6fbc     w32_snd.obj
 0003:00025fc0       _dwSoundTotal              004a6fc0     w32_snd.obj
 0003:00025fc4       _nSampleRate               004a6fc4     w32_snd.obj
 0003:00025fc8       _nSoundBuffer              004a6fc8     w32_snd.obj
 0003:00025fcc       _bInterpolation            004a6fcc     w32_snd.obj
 0003:00025fd0       _nBeepFreq                 004a6fd0     w32_snd.obj
 0003:00025fd4       _hWavCapture               004a6fd4     w32_snd.obj
 0003:00025fd8       _bWavCapture               004a6fd8     w32_snd.obj
 0003:00025fdc       _uStereoOut                004a6fdc     w32_snd.obj
 0003:00025fe0       _bForceStereo              004a6fe0     w32_snd.obj
 0003:00025fe4       _bTapeMon                  004a6fe4     w32_snd.obj
 0003:000d1b6c       ___isa_available           00552b6c     LIBCMT:_cpu_disp_.obj
 0003:000d1b70       ___favor                   00552b70     LIBCMT:_cpu_disp_.obj
 0003:000d1b74       ___scrt_current_native_startup_state 00552b74     LIBCMT:utility.obj
 0003:000d1b78       ___scrt_native_startup_lock 00552b78     LIBCMT:utility.obj
 0003:000d1b98       ?__type_info_root_node@@3U__type_info_node@@A 00552b98     LIBCMT:tncleanup.obj
 0003:000d1ba0       ?_OptionsStorage@?1??__local_stdio_scanf_options@@9@4_KA 00552ba0     LIBCMT:default_local_stdio_options.obj
 0003:000d1ba8       ___scrt_debugger_hook_flag 00552ba8     LIBCMT:utility_desktop.obj
 0003:000d1c10       ___pPurecall               00552c10     libvcruntime:purevirt_data.obj
 0003:000d1c14       ?pArgList@UnDecorator@@0PAVReplicator@@A 00552c14     libvcruntime:undname.obj
 0003:000d1c18       ?pZNameList@UnDecorator@@0PAVReplicator@@A 00552c18     libvcruntime:undname.obj
 0003:000d1c1c       ?pTemplateArgList@UnDecorator@@0PAVReplicator@@A 00552c1c     libvcruntime:undname.obj
 0003:000d1c20       ?gName@UnDecorator@@0PBDB  00552c20     libvcruntime:undname.obj
 0003:000d1c24       ?name@UnDecorator@@0PBDB   00552c24     libvcruntime:undname.obj
 0003:000d1c28       ?outputString@UnDecorator@@0PADA 00552c28     libvcruntime:undname.obj
 0003:000d1c2c       ?maxStringLength@UnDecorator@@0HA 00552c2c     libvcruntime:undname.obj
 0003:000d1c30       ?disableFlags@UnDecorator@@0KA 00552c30     libvcruntime:undname.obj
 0003:000d1c34       ?fExplicitTemplateParams@UnDecorator@@0_NA 00552c34     libvcruntime:undname.obj
 0003:000d1c35       ?fGetTemplateArgumentList@UnDecorator@@0_NA 00552c35     libvcruntime:undname.obj
 0003:000d1c38       ?m_pGetParameter@UnDecorator@@0P6APADJ@ZA 00552c38     libvcruntime:undname.obj
 0003:000d1d68       __environ_table            00552d68     libucrt:environment_initialization.obj
 0003:000d1d6c       __wenviron_table           00552d6c     libucrt:environment_initialization.obj
 0003:000d1d70       ___dcrt_initial_wide_environment 00552d70     libucrt:environment_initialization.obj
 0003:000d1d74       ___dcrt_initial_narrow_environment 00552d74     libucrt:environment_initialization.obj
 0003:000d1d84       ?c_exit_complete@?1???R<lambda_6e4b09c48022b2350581041d5f6b0c4c>@@QBE@XZ@4_NA 00552d84     libucrt:exit.obj
 0003:000d1d88       ___acrt_locale_changed_data 00552d88     libucrt:wsetlocale.obj
 0003:000d1d90       __commode                  00552d90     libucrt:ncommode.obj
 0003:000d1d94       ___acrt_atexit_table       00552d94     libucrt:onexit.obj
 0003:000d1da0       ___acrt_at_quick_exit_table 00552da0     libucrt:onexit.obj
 0003:000d1db0       ?_timezone@@3V?$dual_state_global@J@__crt_state_management@@A 00552db0     libucrt:timeset.obj
 0003:000d1db4       ?_daylight@@3V?$dual_state_global@H@__crt_state_management@@A 00552db4     libucrt:timeset.obj
 0003:000d1db8       ?_dstbias@@3V?$dual_state_global@J@__crt_state_management@@A 00552db8     libucrt:timeset.obj
 0003:000d1f5c       __nstream                  00552f5c     libucrt:_file.obj
 0003:000d1f60       ___piob                    00552f60     libucrt:_file.obj
 0003:000d1f68       ___acrt_stdout_buffer      00552f68     libucrt:_sftbuf.obj
 0003:000d1f6c       ___acrt_stderr_buffer      00552f6c     libucrt:_sftbuf.obj
 0003:000d1f70       ___acrt_current_locale_data 00552f70     libucrt:nlsdata.obj
 0003:000d1f78       ___pioinfo                 00552f78     libucrt:ioinit.obj
 0003:000d2178       __nhandle                  00553178     libucrt:ioinit.obj
 0003:000d22d4       __mbctype                  005532d4     libucrt:mbctype.obj
 0003:000d22d8       __mbcasemap                005532d8     libucrt:mbctype.obj
 0003:000d22dc       ___acrt_current_multibyte_data 005532dc     libucrt:mbctype.obj
 0003:000d22e8       ___argc                    005532e8     libucrt:argv_data.obj
 0003:000d22ec       ___argv                    005532ec     libucrt:argv_data.obj
 0003:000d22f0       ___wargv                   005532f0     libucrt:argv_data.obj
 0003:000d22f4       __acmdln                   005532f4     libucrt:argv_data.obj
 0003:000d22f8       __wcmdln                   005532f8     libucrt:argv_data.obj
 0003:000d22fc       __pgmptr                   005532fc     libucrt:argv_data.obj
 0003:000d2300       __fmode                    00553300     libucrt:txtmode.obj
 0003:000d2304       ___acrt_lconv_static_null  00553304     libucrt:localeconv.obj
 0003:000d2308       ___acrt_lconv_static_W_null 00553308     libucrt:localeconv.obj
 0003:000d230c       ___acrt_heap               0055330c     libucrt:heap_handle.obj
 0003:000d2320       __umaskval                 00553320     libucrt:umask.obj
 0003:000d2324       ___fastflag                00553324     libucrt:fp_flags.obj
 0003:000d2328       _bPaletteRefresh           00553328     <common>
 0003:000d2340       _bShowSubWindow            00553340     <common>
 0003:000d23a0       _hSubWnd                   005533a0     <common>
 0003:000d23e4       _bTapeModeType             005533e4     <common>
 0003:000d23e8       _dwNowTime                 005533e8     <common>
 0003:000d23ec       _bAutoSpeedAdjust          005533ec     <common>
 0003:000d23f0       _bFullSpeed                005533f0     <common>
 0003:000d23f4       _bTapeFullSpeed            005533f4     <common>
 0003:000d23f8       _uTimerResolution          005533f8     <common>
 0003:000d23fc       _dwDrawTotal               005533fc     <common>
 0003:000d2400       _dwExecTotal               00553400     <common>
 0003:000d2404       _bMidiDelayMode            00553404     <common>
 0003:000d2408       _nMidiDelay                00553408     <common>
 0003:000d2420       _szMidiDevice              00553420     <common>
 0003:000d2520       _hFont                     00553520     <common>
 0003:000d2524       _bRomeo                    00553524     <common>
 0003:000d2528       _WinPos                    00553528     <common>
 0003:000d2530       _bHighPriority             00553530     <common>
 0003:000d2534       _bCMOVflag                 00553534     <common>
 0003:000d2538       _bMMXflag                  00553538     <common>
 0003:000d253c       _bWin10flag                0055353c     <common>
 0003:000d2540       _bWin8flag                 00553540     <common>
 0003:000d2544       _bWin7flag                 00553544     <common>
 0003:000d2548       _bVistaflag                00553548     <common>
 0003:000d254c       _bXPflag                   0055354c     <common>
 0003:000d2550       _bNTflag                   00553550     <common>
 0003:000d2554       _nAppIcon                  00553554     <common>
 0003:000d2558       _hAppIcon                  00553558     <common>
 0003:000d255c       _bHideStatus               0055355c     <common>
 0003:000d2560       _bActivate                 00553560     <common>
 0003:000d2564       _bMinimize                 00553564     <common>
 0003:000d2570       _bSyncDisasm               00553570     <common>
 0003:000d2580       _bSync                     00553580     <common>
 0003:000d2584       _lCharHeight               00553584     <common>
 0003:000d2588       _lCharWidth                00553588     <common>
 0003:000d258c       _bCloseReq                 0055358c     <common>
 0003:000d2590       _bMenuExit                 00553590     <common>
 0003:000d2594       _bMenuLoop                 00553594     <common>
 0003:000d2598       _nErrorCode                00553598     <common>
 0003:000d259c       _hDrawWnd                  0055359c     <common>
 0003:000d25a0       _hMainWnd                  005535a0     <common>
 0003:000d25a4       _hAppInstance              005535a4     <common>
 0003:000d25c0       _GDIDrawFlag               005535c0     <common>
 0003:000d3560       _pBitsGDI                  00554560     <common>
 0003:000d3580       _rgbAnalogGDI              00554580     <common>
 0003:000d7580       _rgbTTLGDI                 00558580     <common>
 0003:000d75c0       _bRasterRendering          005585c0     <common>
 0003:000d75c4       _bPseudo400Line            005585c4     <common>
 0003:000d75c8       _bDoubleSize               005585c8     <common>
 0003:000d75cc       _bFullScanFS               005585cc     <common>
 0003:000d75d0       _bFullScan                 005585d0     <common>
 0003:000d75d4       _bDrawSelected             005585d4     <common>
 0003:000d75d8       _bFullRequested            005585d8     <common>
 0003:000d75dc       _bFullScreen               005585dc     <common>
 0003:000d75e0       _nCommPortNo               005585e0     <common>
 0003:000d75e4       _bKeyStrokeModeless        005585e4     <common>
 0003:000d75e8       _hKeyStrokeDialog          005585e8     <common>
 0003:000d7600       _InitialDir                00558600     <common>
 0003:000d7b28       ?_OptionsStorage@?1??__local_stdio_printf_options@@9@9 00558b28     <common>
 0003:000d7b30       _uPaneX                    00558b30     <common>
 0003:000d7b3c       _bStatusMessage            00558b3c     <common>
 0003:000d7b40       _hStatusBar                00558b40     <common>
 0003:000d7b44       _midi_modereg              00558b44     <common>
 0003:000d7b48       _midi_selectmc             00558b48     <common>
 0003:000d7b4c       _midi_txenable             00558b4c     <common>
 0003:000d7b50       _midi_busy                 00558b50     <common>
 0003:000d7b54       _dma_reg                   00558b54     <common>
 0003:000d7b58       _dma_burst_transfer        00558b58     <common>
 0003:000d7b5c       _dma_flag                  00558b5c     <common>
 0003:000d7b60       _dma_icr                   00558b60     <common>
 0003:000d7b61       _dma_pcr                   00558b61     <common>
 0003:000d7b62       _dma_dcr                   00558b62     <common>
 0003:000d7b64       _dma_chcr                  00558b64     <common>
 0003:000d7b68       _dma_bcr                   00558b68     <common>
 0003:000d7b70       _dma_adr                   00558b70     <common>
 0003:000d7b78       _ttl_palet                 00558b78     <common>
 0003:000d7b80       _lp_fileh                  00558b80     <common>
 0003:000d7ba0       _lp_fname                  00558ba0     <common>
 0003:000d7ca4       _lp_strobe                 00558ca4     <common>
 0003:000d7ca8       _lp_online                 00558ca8     <common>
 0003:000d7cac       _lp_ackng                  00558cac     <common>
 0003:000d7cb0       _lp_pe                     00558cb0     <common>
 0003:000d7cb4       _lp_error                  00558cb4     <common>
 0003:000d7cb8       _lp_busy                   00558cb8     <common>
 0003:000d7cbc       _lp_data                   00558cbc     <common>
 0003:000d7cbd       _lp_use                    00558cbd     <common>
 0003:000d7cc0       _tape_sound                00558cc0     <common>
 0003:000d7cc4       _tape_monitor              00558cc4     <common>
 0003:000d7ce0       _tape_fname                00558ce0     <common>
 0003:000d7de4       _tape_offset               00558de4     <common>
 0003:000d7de8       _tape_fileh                00558de8     <common>
 0003:000d7dec       _tape_subcnt               00558dec     <common>
 0003:000d7df0       _tape_count                00558df0     <common>
 0003:000d7df4       _tape_writep               00558df4     <common>
 0003:000d7df8       _tape_rec                  00558df8     <common>
 0003:000d7dfc       _tape_motor                00558dfc     <common>
 0003:000d7e00       _tape_out                  00558e00     <common>
 0003:000d7e04       _tape_in                   00558e04     <common>
 0003:000d7e08       _tape_saveptr              00558e08     <common>
 0003:000d7e0c       _tape_savebuf              00558e0c     <common>
 0003:000d7e10       _tape_fetch                00558e10     <common>
 0003:000d7e14       _tape_fsize                00558e14     <common>
 0003:000d7e18       _tape_incnt                00558e18     <common>
 0003:000d7e1c       _boot_mode                 00558e1c     <common>
 0003:000d7e20       _available_mmrboot         00558e20     <common>
 0003:000d7e24       _fetch_op                  00558e24     <common>
 0003:000d7e28       _hotreset_flag             00558e28     <common>
 0003:000d7e2c       _reset_flag                00558e2c     <common>
 0003:000d7e30       _fm7_ver                   00558e30     <common>
 0003:000d7e34       _fm_subtype                00558e34     <common>
 0003:000d7e35       _consram_bank              00558e35     <common>
 0003:000d7e36       _cgram_bank                00558e36     <common>
 0003:000d7e38       _subramcn                  00558e38     <common>
 0003:000d7e3c       _subramcg                  00558e3c     <common>
 0003:000d7e40       _subramde                  00558e40     <common>
 0003:000d7e44       _cgrom_bank                00558e44     <common>
 0003:000d7e45       _subrom_bank               00558e45     <common>
 0003:000d7e48       _vram_b                    00558e48     <common>
 0003:000d7e4c       _subromcg                  00558e4c     <common>
 0003:000d7e50       _subrom_b                  00558e50     <common>
 0003:000d7e54       _subrom_a                  00558e54     <common>
 0003:000d7e58       _sub_io                    00558e58     <common>
 0003:000d7e5c       _sub_ram                   00558e5c     <common>
 0003:000d7e60       _subrom_c                  00558e60     <common>
 0003:000d7e64       _vram_c                    00558e64     <common>
 0003:000d7e68       _subif_dat                 00558e68     <common>
 0003:000d7e6c       _submode_fix               00558e6c     <common>
 0003:000d7e70       _subkanji_flag             00558e70     <common>
 0003:000d7e74       _subreset_halt             00558e74     <common>
 0003:000d7e78       _subram_protect            00558e78     <common>
 0003:000d7e7c       _mode256k                  00558e7c     <common>
 0003:000d7e80       _mode400l                  00558e80     <common>
 0003:000d7e84       _mode320                   00558e84     <common>
 0003:000d7e88       _extdet_disable            00558e88     <common>
 0003:000d7e8c       _busy_CLR_count            00558e8c     <common>
 0003:000d7e90       _subreset_flag             00558e90     <common>
 0003:000d7ea0       _shared_ram                00558ea0     <common>
 0003:000d7f20       _subcancel_request         00558f20     <common>
 0003:000d7f24       _subhalt_request           00558f24     <common>
 0003:000d7f28       _subattn_flag              00558f28     <common>
 0003:000d7f2c       _subcancel_flag            00558f2c     <common>
 0003:000d7f30       _subbusy_flag              00558f30     <common>
 0003:000d7f34       _subhalt_flag              00558f34     <common>
 0003:000d7f40       _subcpu                    00558f40     <common>
 0003:000d7f5c       _sub_runadr                00558f5c     <common>
 0003:000d7f5e       _main_runadr               00558f5e     <common>
 0003:000d7f60       _sub_overcycles            00558f60     <common>
 0003:000d7f62       _main_overcycles           00558f62     <common>
 0003:000d7f64       _vmtime                    00558f64     <common>
 0003:000d7f68       _subclock_mode             00558f68     <common>
 0003:000d7f6c       _cycle_steal_default       00558f6c     <common>
 0003:000d7f70       _cycle_steal               00558f70     <common>
 0003:000d7f74       _speed_ratio               00558f74     <common>
 0003:000d7f78       _sub_speed                 00558f78     <common>
 0003:000d7f7c       _fmmr_speed                00558f7c     <common>
 0003:000d7f80       _mmr_speed                 00558f80     <common>
 0003:000d7f84       _main_speed                00558f84     <common>
 0003:000d7f88       _stopreq_flag              00558f88     <common>
 0003:000d7f8c       _run_flag                  00558f8c     <common>
 0003:000d7fa0       _event                     00558fa0     <common>
 0003:000d81a0       _breakp                    005591a0     <common>
 0003:000d8260       _rtc_leap                  00559260     <common>
 0003:000d8264       _rtc_pm                    00559264     <common>
 0003:000d8268       _rtc_24h                   00559268     <common>
 0003:000d826c       _rtc_second                0055926c     <common>
 0003:000d826d       _rtc_minute                0055926d     <common>
 0003:000d826e       _rtc_hour                  0055926e     <common>
 0003:000d826f       _rtc_week                  0055926f     <common>
 0003:000d8270       _rtc_day                   00559270     <common>
 0003:000d8271       _rtc_month                 00559271     <common>
 0003:000d8272       _rtc_year                  00559272     <common>
 0003:000d8273       _rs_status                 00559273     <common>
 0003:000d8274       _rs_cts                    00559274     <common>
 0003:000d8278       _rs_cd                     00559278     <common>
 0003:000d827c       _rs_dtrmask                0055927c     <common>
 0003:000d8280       _rs_baudrate_v2            00559280     <common>
 0003:000d8281       _rs_baudrate               00559281     <common>
 0003:000d8282       _rs_command                00559282     <common>
 0003:000d8283       _rs_modecmd                00559283     <common>
 0003:000d8284       _rs_selectmc               00559284     <common>
 0003:000d8288       _rs_enable                 00559288     <common>
 0003:000d828c       _rs_mask                   0055928c     <common>
 0003:000d8290       _rs_use                    00559290     <common>
 0003:000d8294       _ptm_clock_divide          00559294     <common>
 0003:000d8298       _ptm_select_reg1           00559298     <common>
 0003:000d829c       _ptm_preset_mode           0055929c     <common>
 0003:000d82a0       _ptm_clock_type            005592a0     <common>
 0003:000d82b0       _ptm_mode_16bit            005592b0     <common>
 0003:000d82c0       _ptm_irq_mask_int          005592c0     <common>
 0003:000d82d0       _ptm_irq_flag_int          005592d0     <common>
 0003:000d82e0       _ptm_out_flag              005592e0     <common>
 0003:000d82f0       _ptm_running_flag          005592f0     <common>
 0003:000d82fc       _ptm_mode_select           005592fc     <common>
 0003:000d8300       _ptm_counter_preset        00559300     <common>
 0003:000d8320       _ptm_counter               00559320     <common>
 0003:000d8338       _opn_scale                 00559338     <common>
 0003:000d8340       _opn_timerb_tick           00559340     <common>
 0003:000d8350       _opn_timera_tick           00559350     <common>
 0003:000d8360       _opn_timerb                00559360     <common>
 0003:000d8370       _opn_timera                00559370     <common>
 0003:000d8380       _opn_key                   00559380     <common>
 0003:000d83c0       _opn_reg                   005593c0     <common>
 0003:000d86c0       _thg_use                   005596c0     <common>
 0003:000d86c4       _thg_enable                005596c4     <common>
 0003:000d86c8       _whg_use                   005596c8     <common>
 0003:000d86cc       _whg_enable                005596cc     <common>
 0003:000d86d0       _opn_use                   005596d0     <common>
 0003:000d86d4       _opn_enable                005596d4     <common>
 0003:000d86d8       _multi_page                005596d8     <common>
 0003:000d86da       _mr2_secreg                005596da     <common>
 0003:000d86dc       _mr2_nowcnt                005596dc     <common>
 0003:000d86dd       _twr_reg                   005596dd     <common>
 0003:000d86e0       _twr_flag                  005596e0     <common>
 0003:000d86e4       _dsp_400linetiming         005596e4     <common>
 0003:000d86e8       _mmr_768kbmode             005596e8     <common>
 0003:000d86ec       _twr_fastmode              005596ec     <common>
 0003:000d86f0       _mmr_fast_refresh          005596f0     <common>
 0003:000d86f4       _mmr_extram                005596f4     <common>
 0003:000d86f8       _mmr_fastmode              005596f8     <common>
 0003:000d86fc       _mmr_ext                   005596fc     <common>
 0003:000d8700       _mmr_reg                   00559700     <common>
 0003:000d8780       _mmr_modify                00559780     <common>
 0003:000d8784       _mmr_seg                   00559784     <common>
 0003:000d8788       _mmr_flag                  00559788     <common>
 0003:000d878c       _mos_capture               0055978c     <common>
 0003:000d8790       _mos_port                  00559790     <common>
 0003:000d8794       _extram_c                  00559794     <common>
 0003:000d8798       _initrom_en                00559798     <common>
 0003:000d879c       _init_rom                  0055979c     <common>
 0003:000d87a0       _extram_a                  005597a0     <common>
 0003:000d87a4       _init_is_exsx              005597a4     <common>
 0003:000d87a8       _rom_ram_write             005597a8     <common>
 0003:000d87ac       _bootram_rw                005597ac     <common>
 0003:000d87b0       _boot_ram                  005597b0     <common>
 0003:000d87b4       _basicrom_en               005597b4     <common>
 0003:000d87b8       _boot_mmr                  005597b8     <common>
 0003:000d87bc       _main_io                   005597bc     <common>
 0003:000d87c0       _basic_rom                 005597c0     <common>
 0003:000d87c4       _mainram_b                 005597c4     <common>
 0003:000d87c8       _mainram_a                 005597c8     <common>
 0003:000d87cc       _speaker_flag              005597cc     <common>
 0003:000d87d0       _beep_flag                 005597d0     <common>
 0003:000d87d4       _dma_irq_flag              005597d4     <common>
 0003:000d87d8       _thg_irq_flag              005597d8     <common>
 0003:000d87dc       _whg_irq_flag              005597dc     <common>
 0003:000d87e0       _opn_irq_flag              005597e0     <common>
 0003:000d87e4       _ptm_irq_mask              005597e4     <common>
 0003:000d87e8       _ptm_irq_flag              005597e8     <common>
 0003:000d87ec       _syndet_irq_mask           005597ec     <common>
 0003:000d87f0       _syndet_irq_flag           005597f0     <common>
 0003:000d87f4       _rxrdy_irq_mask            005597f4     <common>
 0003:000d87f8       _rxrdy_irq_flag            005597f8     <common>
 0003:000d87fc       _txrdy_irq_mask            005597fc     <common>
 0003:000d8800       _txrdy_irq_flag            00559800     <common>
 0003:000d8804       _mfd_irq_mask              00559804     <common>
 0003:000d8808       _mfd_irq_flag              00559808     <common>
 0003:000d880c       _timer_irq_mask            0055980c     <common>
 0003:000d8810       _timer_irq_flag            00559810     <common>
 0003:000d8814       _lp_irq_mask               00559814     <common>
 0003:000d8818       _lp_irq_flag               00559818     <common>
 0003:000d881c       _key_irq_mask              0055981c     <common>
 0003:000d8820       _key_irq_flag              00559820     <common>
 0003:000d8840       _maincpu                   00559840     <common>
 0003:000d885c       _key_hidden_message_count  0055985c     <common>
 0003:000d8860       _key_hidden_message_run    00559860     <common>
 0003:000d8864       _key_hidden_message_flag   00559864     <common>
 0003:000d8868       _simpose_mode_bak          00559868     <common>
 0003:000d886c       _key_trans_rxrdy           0055986c     <common>
 0003:000d8870       _key_trans_pos             00559870     <common>
 0003:000d8871       _key_trans_recvc           00559871     <common>
 0003:000d8880       _key_trans_recv            00559880     <common>
 0003:000d8890       _key_trans_sendc           00559890     <common>
 0003:000d88a0       _key_trans_send            005598a0     <common>
 0003:000d88b0       _key_repeat_code           005598b0     <common>
 0003:000d88b1       _amnork_mode               005598b1     <common>
 0003:000d88b4       _keyenc_beep_flag          005598b4     <common>
 0003:000d88b8       _digitize_keywait          005598b8     <common>
 0003:000d88bc       _digitize_enable           005598bc     <common>
 0003:000d88c0       _simpose_half              005598c0     <common>
 0003:000d88c4       _simpose_mode              005598c4     <common>
 0003:000d88c8       _key_repeat_time2          005598c8     <common>
 0003:000d88cc       _key_repeat_time1          005598cc     <common>
 0003:000d88d0       _key_format                005598d0     <common>
 0003:000d88d4       _key_repeat_flag           005598d4     <common>
 0003:000d88d8       _key_fm7                   005598d8     <common>
 0003:000d88da       _key_scan                  005598da     <common>
 0003:000d88dc       _break_flag                005598dc     <common>
 0003:000d88e0       _graph_flag                005598e0     <common>
 0003:000d88e4       _ctrl_flag                 005598e4     <common>
 0003:000d88e8       _rshift_flag               005598e8     <common>
 0003:000d88ec       _lshift_flag               005598ec     <common>
 0003:000d88f0       _shift_flag                005598f0     <common>
 0003:000d88f4       _ins_flag                  005598f4     <common>
 0003:000d88f8       _kana_flag                 005598f8     <common>
 0003:000d88fc       _caps_flag                 005598fc     <common>
 0003:000d8900       _kanji_asis_flag           00559900     <common>
 0003:000d8904       _kanji_rom2                00559904     <common>
 0003:000d8908       _kanji_rom_jis78           00559908     <common>
 0003:000d890c       _kanji_rom                 0055990c     <common>
 0003:000d8910       _kanji_addr                00559910     <common>
 0003:000d8914       _jcard_enable              00559914     <common>
 0003:000d8918       _extrom_sel                00559918     <common>
 0003:000d891c       _dicram_en                 0055991c     <common>
 0003:000d8920       _dicrom_en                 00559920     <common>
 0003:000d8924       _dicrom_bank               00559924     <common>
 0003:000d8928       _dicram                    00559928     <common>
 0003:000d892c       _extrom                    0055992c     <common>
 0003:000d8930       _dicrom                    00559930     <common>
 0003:000d8934       _extram_b                  00559934     <common>
 0003:000d8938       _fdc_sound                 00559938     <common>
 0003:000d893c       _fdc_waitmode              0055993c     <common>
 0003:000d8940       _fdc_access                00559940     <common>
 0003:000d8944       _fdc_media                 00559944     <common>
 0003:000d8948       _fdc_medias                00559948     <common>
 0003:000d8960       _fdc_header                00559960     <common>
 0003:000d9420       _fdc_fwritep               0055a420     <common>
 0003:000d9440       _fdc_name                  0055a440     <common>
 0003:000d9880       _fdc_fname                 0055a880     <common>
 0003:000d9c84       _fdc_track                 0055ac84     <common>
 0003:000d9c90       _fdc_writep                0055ac90     <common>
 0003:000d9ca0       _fdc_teject                0055aca0     <common>
 0003:000d9cb0       _fdc_ready                 0055acb0     <common>
 0003:000d9cb4       _fdc_nowcnt                0055acb4     <common>
 0003:000d9cb6       _fdc_totalcnt              0055acb6     <common>
 0003:000d9cb8       _fdc_cmdtype               0055acb8     <common>
 0003:000d9cb9       _fdc_2ddmode               0055acb9     <common>
 0003:000d9cbc       _fdc_physdrv               0055acbc     <common>
 0003:000d9cc0       _fdc_logidrv               0055acc0     <common>
 0003:000d9cc1       _fdc_drvregP               0055acc1     <common>
 0003:000d9cc2       _fdc_drqirq                0055acc2     <common>
 0003:000d9cc3       _fdc_drvreg                0055acc3     <common>
 0003:000d9cc4       _fdc_motor                 0055acc4     <common>
 0003:000d9cc5       _fdc_sidereg               0055acc5     <common>
 0003:000d9cc6       _fdc_datareg               0055acc6     <common>
 0003:000d9cc7       _fdc_secreg                0055acc7     <common>
 0003:000d9cc8       _fdc_trkreg                0055acc8     <common>
 0003:000d9cc9       _fdc_status                0055acc9     <common>
 0003:000d9cca       _fdc_command               0055acca     <common>
 0003:000d9ccc       _fdc_enable                0055accc     <common>
 0003:000d9cd0       _vram_bdblk                0055acd0     <common>
 0003:000d9cd4       _vram_dblk                 0055acd4     <common>
 0003:000d9cd8       _vram_bdptr                0055acd8     <common>
 0003:000d9cdc       _vram_ablk                 0055acdc     <common>
 0003:000d9ce0       _block_display             0055ace0     <common>
 0003:000d9ce1       _block_active              0055ace1     <common>
 0003:000d9ce4       _window_open               0055ace4     <common>
 0003:000d9ce8       _window_dy2                0055ace8     <common>
 0003:000d9cea       _window_y2                 0055acea     <common>
 0003:000d9cec       _window_dx2                0055acec     <common>
 0003:000d9cee       _window_x2                 0055acee     <common>
 0003:000d9cf0       _window_dy1                0055acf0     <common>
 0003:000d9cf2       _window_y1                 0055acf2     <common>
 0003:000d9cf4       _window_dx1                0055acf4     <common>
 0003:000d9cf6       _window_x1                 0055acf6     <common>
 0003:000d9cf8       _subram_vrambank           0055acf8     <common>
 0003:000d9cf9       _screen_mode               0055acf9     <common>
 0003:000d9cfc       _vram_dptr                 0055acfc     <common>
 0003:000d9d00       _vram_display              0055ad00     <common>
 0003:000d9d04       _vram_aptr                 0055ad04     <common>
 0003:000d9d08       _vram_active               0055ad08     <common>
 0003:000d9d0c       _subnmi_flag               0055ad0c     <common>
 0003:000d9d10       _magus_patch               0055ad10     <common>
 0003:000d9d14       _now_raster                0055ad14     <common>
 0003:000d9d18       _draw_aftervsync           0055ad18     <common>
 0003:000d9d1c       _blank_flag                0055ad1c     <common>
 0003:000d9d20       _vsync_flag                0055ad20     <common>
 0003:000d9d24       _vram_offset_flag          0055ad24     <common>
 0003:000d9d28       _vram_offset               0055ad28     <common>
 0003:000d9d2c       _vrama_flag                0055ad2c     <common>
 0003:000d9d30       _crt_flag                  0055ad30     <common>
 0003:000d9d34       _sub_kanji_bank            0055ad34     <common>
 0003:000d9d38       _sub_kanji_addr            0055ad38     <common>
 0003:000d9d3c       _crtc_offset               0055ad3c     <common>
 0003:000d9d40       _apalet_g                  0055ad40     <common>
 0003:000dad40       _apalet_r                  0055bd40     <common>
 0003:000dbd40       _apalet_b                  0055cd40     <common>
 0003:000dcd40       _apalet_no                 0055dd40     <common>
 0003:000dcd44       _line_boost                0055dd44     <common>
 0003:000dcd48       _line_y1                   0055dd48     <common>
 0003:000dcd4a       _line_x1                   0055dd4a     <common>
 0003:000dcd4c       _line_y0                   0055dd4c     <common>
 0003:000dcd4e       _line_x0                   0055dd4e     <common>
 0003:000dcd50       _line_style                0055dd50     <common>
 0003:000dcd52       _line_offset               0055dd52     <common>
 0003:000dcd54       _line_busy                 0055dd54     <common>
 0003:000dcd58       _alu_tiledat               0055dd58     <common>
 0003:000dcd5b       _alu_disable               0055dd5b     <common>
 0003:000dcd60       _alu_cmpdat                0055dd60     <common>
 0003:000dcd68       _alu_cmpstat               0055dd68     <common>
 0003:000dcd69       _alu_mask                  0055dd69     <common>
 0003:000dcd6a       _alu_color                 0055dd6a     <common>
 0003:000dcd6b       _alu_command               0055dd6b     <common>
 0003:000dcd6c       ___scrt_ucrt_dll_is_in_use 0055dd6c     <common>
 0003:000dcd70       ___dyn_tls_dtor_callback   0055dd70     <common>
 0003:000dcd74       ___dyn_tls_init_callback   0055dd74     <common>
 0003:000dcd78       __pDestructExceptionObject 0055dd78     <common>
 0003:000dcd7c       ___use_sse2_mathfcns       0055dd7c     <common>
 0003:000dcd80       __pmatherr                 0055dd80     <common>

 entry point at        0001:00052315

 Static symbols

 0001:00000000       getreg                     00401000     cpu_x86.obj
 0001:0000000c       getreg_table               0040100c     cpu_x86.obj
 0001:0000004c       getreg_d                   0040104c     cpu_x86.obj
 0001:00000054       getreg_x                   00401054     cpu_x86.obj
 0001:0000005c       getreg_y                   0040105c     cpu_x86.obj
 0001:00000064       getreg_u                   00401064     cpu_x86.obj
 0001:0000006c       getreg_s                   0040106c     cpu_x86.obj
 0001:00000074       getreg_pc                  00401074     cpu_x86.obj
 0001:0000007c       getreg_a                   0040107c     cpu_x86.obj
 0001:00000084       getreg_b                   00401084     cpu_x86.obj
 0001:0000008c       getreg_cc                  0040108c     cpu_x86.obj
 0001:00000094       getreg_dp                  00401094     cpu_x86.obj
 0001:0000009c       getreg_dmy                 0040109c     cpu_x86.obj
 0001:000000a4       setreg                     004010a4     cpu_x86.obj
 0001:000000b0       setreg_table               004010b0     cpu_x86.obj
 0001:000000f0       setreg_d                   004010f0     cpu_x86.obj
 0001:000000f8       setreg_x                   004010f8     cpu_x86.obj
 0001:00000100       setreg_y                   00401100     cpu_x86.obj
 0001:00000108       setreg_u                   00401108     cpu_x86.obj
 0001:00000110       setreg_s                   00401110     cpu_x86.obj
 0001:0000011c       setreg_pc                  0040111c     cpu_x86.obj
 0001:00000124       setreg_a                   00401124     cpu_x86.obj
 0001:00000128       setreg_b                   00401128     cpu_x86.obj
 0001:0000012c       setreg_cc                  0040112c     cpu_x86.obj
 0001:00000130       setreg_dp                  00401130     cpu_x86.obj
 0001:00000134       setreg_dmy                 00401134     cpu_x86.obj
 0001:00000138       cycle_table1               00401138     cpu_x86.obj
 0001:00000238       cycle_table2               00401238     cpu_x86.obj
 0001:00000338       neg_di                     00401338     cpu_x86.obj
 0001:00000370       ngc_di                     00401370     cpu_x86.obj
 0001:00000378       com_di                     00401378     cpu_x86.obj
 0001:000003a8       lsr_di                     004013a8     cpu_x86.obj
 0001:000003d8       ror_di                     004013d8     cpu_x86.obj
 0001:0000040c       asr_di                     0040140c     cpu_x86.obj
 0001:0000043c       lsl_di                     0040143c     cpu_x86.obj
 0001:00000474       rol_di                     00401474     cpu_x86.obj
 0001:000004b0       dec_di                     004014b0     cpu_x86.obj
 0001:000004e4       dcc_di                     004014e4     cpu_x86.obj
 0001:00000520       inc_di                     00401520     cpu_x86.obj
 0001:00000554       tst_di                     00401554     cpu_x86.obj
 0001:00000578       jmp_di                     00401578     cpu_x86.obj
 0001:0000058c       clr_di                     0040158c     cpu_x86.obj
 0001:000005b0       nop_in                     004015b0     cpu_x86.obj
 0001:000005b4       sync_in                    004015b4     cpu_x86.obj
 0001:000005bc       hcf_in                     004015bc     cpu_x86.obj
 0001:000005c4       lbra_re                    004015c4     cpu_x86.obj
 0001:000005dc       lbsr_re                    004015dc     cpu_x86.obj
 0001:00000618       aslcc_in                   00401618     cpu_x86.obj
 0001:00000620       aslcc_in.next              00401620     cpu_x86.obj
 0001:00000628       daa_in                     00401628     cpu_x86.obj
 0001:00000636       daa_in.step1               00401636     cpu_x86.obj
 0001:0000063f       daa_in.step1ok             0040163f     cpu_x86.obj
 0001:00000642       daa_in.step2               00401642     cpu_x86.obj
 0001:0000064b       daa_in.step2ok             0040164b     cpu_x86.obj
 0001:0000064e       daa_in.step3               0040164e     cpu_x86.obj
 0001:00000658       daa_in.step3ok             00401658     cpu_x86.obj
 0001:0000065b       daa_in.ok                  0040165b     cpu_x86.obj
 0001:00000678       orcc_im                    00401678     cpu_x86.obj
 0001:00000684       andcc_im                   00401684     cpu_x86.obj
 0001:00000690       sex_in                     00401690     cpu_x86.obj
 0001:000006ac       exg_in                     004016ac     cpu_x86.obj
 0001:000006e0       tfr_in                     004016e0     cpu_x86.obj
 0001:000006fc       bra_re                     004016fc     cpu_x86.obj
 0001:0000070c       brn_re                     0040170c     cpu_x86.obj
 0001:00000714       lbrn_re                    00401714     cpu_x86.obj
 0001:0000071c       bhi_re                     0040171c     cpu_x86.obj
 0001:00000730       lbhi_re                    00401730     cpu_x86.obj
 0001:00000754       bls_re                     00401754     cpu_x86.obj
 0001:00000768       lbls_re                    00401768     cpu_x86.obj
 0001:0000078c       bcc_re                     0040178c     cpu_x86.obj
 0001:000007a4       lbcc_re                    004017a4     cpu_x86.obj
 0001:000007cc       bcs_re                     004017cc     cpu_x86.obj
 0001:000007e4       lbcs_re                    004017e4     cpu_x86.obj
 0001:0000080c       bne_re                     0040180c     cpu_x86.obj
 0001:00000824       lbne_re                    00401824     cpu_x86.obj
 0001:0000084c       beq_re                     0040184c     cpu_x86.obj
 0001:00000864       lbeq_re                    00401864     cpu_x86.obj
 0001:0000088c       bvc_re                     0040188c     cpu_x86.obj
 0001:000008a4       lbvc_re                    004018a4     cpu_x86.obj
 0001:000008cc       bvs_re                     004018cc     cpu_x86.obj
 0001:000008e4       lbvs_re                    004018e4     cpu_x86.obj
 0001:0000090c       bpl_re                     0040190c     cpu_x86.obj
 0001:00000924       lbpl_re                    00401924     cpu_x86.obj
 0001:0000094c       bmi_re                     0040194c     cpu_x86.obj
 0001:00000964       lbmi_re                    00401964     cpu_x86.obj
 0001:0000098c       bge_re                     0040198c     cpu_x86.obj
 0001:000009ac       lbge_re                    004019ac     cpu_x86.obj
 0001:000009dc       blt_re                     004019dc     cpu_x86.obj
 0001:000009fc       lblt_re                    004019fc     cpu_x86.obj
 0001:00000a2c       bgt_re                     00401a2c     cpu_x86.obj
 0001:00000a54       lbgt_re                    00401a54     cpu_x86.obj
 0001:00000a8c       ble_re                     00401a8c     cpu_x86.obj
 0001:00000aa4       ble_re.jump                00401aa4     cpu_x86.obj
 0001:00000ab4       lble_re                    00401ab4     cpu_x86.obj
 0001:00000acc       lble_re.jump               00401acc     cpu_x86.obj
 0001:00000ae8       leax_ix                    00401ae8     cpu_x86.obj
 0001:00000afc       leay_ix                    00401afc     cpu_x86.obj
 0001:00000b10       leas_ix                    00401b10     cpu_x86.obj
 0001:00000b18       leau_ix                    00401b18     cpu_x86.obj
 0001:00000b20       pshs_in                    00401b20     cpu_x86.obj
 0001:00000b36       pshs_in.pcreg              00401b36     cpu_x86.obj
 0001:00000b61       pshs_in.ureg               00401b61     cpu_x86.obj
 0001:00000b8c       pshs_in.yreg               00401b8c     cpu_x86.obj
 0001:00000bb7       pshs_in.xreg               00401bb7     cpu_x86.obj
 0001:00000be2       pshs_in.dpreg              00401be2     cpu_x86.obj
 0001:00000c00       pshs_in.breg               00401c00     cpu_x86.obj
 0001:00000c1e       pshs_in.areg               00401c1e     cpu_x86.obj
 0001:00000c3c       pshs_in.ccreg              00401c3c     cpu_x86.obj
 0001:00000c55       pshs_in.exit               00401c55     cpu_x86.obj
 0001:00000c58       puls_in                    00401c58     cpu_x86.obj
 0001:00000c61       puls_in.ccreg              00401c61     cpu_x86.obj
 0001:00000c7c       puls_in.areg               00401c7c     cpu_x86.obj
 0001:00000c98       puls_in.breg               00401c98     cpu_x86.obj
 0001:00000cb4       puls_in.dpreg              00401cb4     cpu_x86.obj
 0001:00000cd0       puls_in.xreg               00401cd0     cpu_x86.obj
 0001:00000cf9       puls_in.yreg               00401cf9     cpu_x86.obj
 0001:00000d22       puls_in.ureg               00401d22     cpu_x86.obj
 0001:00000d4b       puls_in.pcreg              00401d4b     cpu_x86.obj
 0001:00000d70       puls_in.exit               00401d70     cpu_x86.obj
 0001:00000d80       pshu_in                    00401d80     cpu_x86.obj
 0001:00000d96       pshu_in.pcreg              00401d96     cpu_x86.obj
 0001:00000dc1       pshu_in.sreg               00401dc1     cpu_x86.obj
 0001:00000dec       pshu_in.yreg               00401dec     cpu_x86.obj
 0001:00000e17       pshu_in.xreg               00401e17     cpu_x86.obj
 0001:00000e42       pshu_in.dpreg              00401e42     cpu_x86.obj
 0001:00000e60       pshu_in.breg               00401e60     cpu_x86.obj
 0001:00000e7e       pshu_in.areg               00401e7e     cpu_x86.obj
 0001:00000e9c       pshu_in.ccreg              00401e9c     cpu_x86.obj
 0001:00000eb5       pshu_in.exit               00401eb5     cpu_x86.obj
 0001:00000eb8       pulu_in                    00401eb8     cpu_x86.obj
 0001:00000ec1       pulu_in.ccreg              00401ec1     cpu_x86.obj
 0001:00000edc       pulu_in.areg               00401edc     cpu_x86.obj
 0001:00000ef8       pulu_in.breg               00401ef8     cpu_x86.obj
 0001:00000f14       pulu_in.dpreg              00401f14     cpu_x86.obj
 0001:00000f30       pulu_in.xreg               00401f30     cpu_x86.obj
 0001:00000f59       pulu_in.yreg               00401f59     cpu_x86.obj
 0001:00000f82       pulu_in.sreg               00401f82     cpu_x86.obj
 0001:00000fab       pulu_in.pcreg              00401fab     cpu_x86.obj
 0001:00000fd0       pulu_in.exit               00401fd0     cpu_x86.obj
 0001:00000fe0       rts_in                     00401fe0     cpu_x86.obj
 0001:00001000       abx_in                     00402000     cpu_x86.obj
 0001:0000100c       rti_in                     0040200c     cpu_x86.obj
 0001:00001040       rti_in.nmiirq              00402040     cpu_x86.obj
 0001:000010e8       cwai_im                    004020e8     cpu_x86.obj
 0001:000011bc       mul_in                     004021bc     cpu_x86.obj
 0001:000011d8       mul_in.cy                  004021d8     cpu_x86.obj
 0001:000011e0       rst_in                     004021e0     cpu_x86.obj
 0001:000011e8       swi_in                     004021e8     cpu_x86.obj
 0001:000012c8       swi2_in                    004022c8     cpu_x86.obj
 0001:000013a4       swi3_in                    004023a4     cpu_x86.obj
 0001:00001480       nega_in                    00402480     cpu_x86.obj
 0001:000014a0       ngca_in                    004024a0     cpu_x86.obj
 0001:000014a8       coma_in                    004024a8     cpu_x86.obj
 0001:000014c4       lsra_in                    004024c4     cpu_x86.obj
 0001:000014dc       rora_in                    004024dc     cpu_x86.obj
 0001:000014f8       asra_in                    004024f8     cpu_x86.obj
 0001:00001510       lsla_in                    00402510     cpu_x86.obj
 0001:00001530       rola_in                    00402530     cpu_x86.obj
 0001:00001558       deca_in                    00402558     cpu_x86.obj
 0001:00001570       dcca_in                    00402570     cpu_x86.obj
 0001:00001594       inca_in                    00402594     cpu_x86.obj
 0001:000015ac       tsta_in                    004025ac     cpu_x86.obj
 0001:000015c0       clca_in                    004025c0     cpu_x86.obj
 0001:000015cc       clra_in                    004025cc     cpu_x86.obj
 0001:000015d8       negb_in                    004025d8     cpu_x86.obj
 0001:000015f8       ngcb_in                    004025f8     cpu_x86.obj
 0001:00001600       comb_in                    00402600     cpu_x86.obj
 0001:0000161c       lsrb_in                    0040261c     cpu_x86.obj
 0001:00001634       rorb_in                    00402634     cpu_x86.obj
 0001:00001650       asrb_in                    00402650     cpu_x86.obj
 0001:00001668       lslb_in                    00402668     cpu_x86.obj
 0001:00001688       rolb_in                    00402688     cpu_x86.obj
 0001:000016b0       decb_in                    004026b0     cpu_x86.obj
 0001:000016c8       dccb_in                    004026c8     cpu_x86.obj
 0001:000016ec       incb_in                    004026ec     cpu_x86.obj
 0001:00001704       tstb_in                    00402704     cpu_x86.obj
 0001:00001718       clcb_in                    00402718     cpu_x86.obj
 0001:00001724       clrb_in                    00402724     cpu_x86.obj
 0001:00001730       neg_ix                     00402730     cpu_x86.obj
 0001:0000175c       ngc_ix                     0040275c     cpu_x86.obj
 0001:00001764       com_ix                     00402764     cpu_x86.obj
 0001:00001784       lsr_ix                     00402784     cpu_x86.obj
 0001:000017a8       ror_ix                     004027a8     cpu_x86.obj
 0001:000017cc       asr_ix                     004027cc     cpu_x86.obj
 0001:000017f0       lsl_ix                     004027f0     cpu_x86.obj
 0001:0000181c       rol_ix                     0040281c     cpu_x86.obj
 0001:0000184c       dec_ix                     0040284c     cpu_x86.obj
 0001:00001870       dcc_ix                     00402870     cpu_x86.obj
 0001:000018a0       inc_ix                     004028a0     cpu_x86.obj
 0001:000018c4       tst_ix                     004028c4     cpu_x86.obj
 0001:000018d8       jmp_ix                     004028d8     cpu_x86.obj
 0001:000018e0       clr_ix                     004028e0     cpu_x86.obj
 0001:000018f8       neg_ex                     004028f8     cpu_x86.obj
 0001:00001938       ngc_ex                     00402938     cpu_x86.obj
 0001:00001940       com_ex                     00402940     cpu_x86.obj
 0001:00001978       lsr_ex                     00402978     cpu_x86.obj
 0001:000019b0       ror_ex                     004029b0     cpu_x86.obj
 0001:000019ec       asr_ex                     004029ec     cpu_x86.obj
 0001:00001a24       lsl_ex                     00402a24     cpu_x86.obj
 0001:00001a64       rol_ex                     00402a64     cpu_x86.obj
 0001:00001aa8       dec_ex                     00402aa8     cpu_x86.obj
 0001:00001ae4       dcc_ex                     00402ae4     cpu_x86.obj
 0001:00001b28       inc_ex                     00402b28     cpu_x86.obj
 0001:00001b64       tst_ex                     00402b64     cpu_x86.obj
 0001:00001b90       jmp_ex                     00402b90     cpu_x86.obj
 0001:00001bac       clr_ex                     00402bac     cpu_x86.obj
 0001:00001bd8       suba_im                    00402bd8     cpu_x86.obj
 0001:00001c00       cmpa_im                    00402c00     cpu_x86.obj
 0001:00001c2c       sbca_im                    00402c2c     cpu_x86.obj
 0001:00001c58       subd_im                    00402c58     cpu_x86.obj
 0001:00001c8c       cmpd_im                    00402c8c     cpu_x86.obj
 0001:00001cc4       cmpu_im                    00402cc4     cpu_x86.obj
 0001:00001cfc       anda_im                    00402cfc     cpu_x86.obj
 0001:00001d18       bita_im                    00402d18     cpu_x86.obj
 0001:00001d3c       lda_im                     00402d3c     cpu_x86.obj
 0001:00001d58       flag8_im                   00402d58     cpu_x86.obj
 0001:00001d68       eora_im                    00402d68     cpu_x86.obj
 0001:00001d84       adca_im                    00402d84     cpu_x86.obj
 0001:00001dbc       ora_im                     00402dbc     cpu_x86.obj
 0001:00001dd8       adda_im                    00402dd8     cpu_x86.obj
 0001:00001e0c       cmpx_im                    00402e0c     cpu_x86.obj
 0001:00001e44       cmps_im                    00402e44     cpu_x86.obj
 0001:00001e7c       cmpy_im                    00402e7c     cpu_x86.obj
 0001:00001eb4       bsr_re                     00402eb4     cpu_x86.obj
 0001:00001ee8       ldx_im                     00402ee8     cpu_x86.obj
 0001:00001f10       ldy_im                     00402f10     cpu_x86.obj
 0001:00001f38       flag16_im                  00402f38     cpu_x86.obj
 0001:00001f54       suba_di                    00402f54     cpu_x86.obj
 0001:00001f88       cmpa_di                    00402f88     cpu_x86.obj
 0001:00001fbc       sbca_di                    00402fbc     cpu_x86.obj
 0001:00001ff4       subd_di                    00402ff4     cpu_x86.obj
 0001:00002034       cmpd_di                    00403034     cpu_x86.obj
 0001:00002074       cmpu_di                    00403074     cpu_x86.obj
 0001:000020b4       anda_di                    004030b4     cpu_x86.obj
 0001:000020d8       bita_di                    004030d8     cpu_x86.obj
 0001:00002104       lda_di                     00403104     cpu_x86.obj
 0001:0000212c       sta_di                     0040312c     cpu_x86.obj
 0001:00002158       eora_di                    00403158     cpu_x86.obj
 0001:0000217c       adca_di                    0040317c     cpu_x86.obj
 0001:000021bc       ora_di                     004031bc     cpu_x86.obj
 0001:000021e0       adda_di                    004031e0     cpu_x86.obj
 0001:0000221c       cmpx_di                    0040321c     cpu_x86.obj
 0001:0000225c       cmps_di                    0040325c     cpu_x86.obj
 0001:0000229c       cmpy_di                    0040329c     cpu_x86.obj
 0001:000022dc       jsr_di                     004032dc     cpu_x86.obj
 0001:00002310       ldx_di                     00403310     cpu_x86.obj
 0001:00002344       ldy_di                     00403344     cpu_x86.obj
 0001:00002378       stx_di                     00403378     cpu_x86.obj
 0001:000023b0       sty_di                     004033b0     cpu_x86.obj
 0001:000023e8       suba_ix                    004033e8     cpu_x86.obj
 0001:0000240c       cmpa_ix                    0040340c     cpu_x86.obj
 0001:00002434       sbca_ix                    00403434     cpu_x86.obj
 0001:0000245c       subd_ix                    0040345c     cpu_x86.obj
 0001:0000248c       cmpd_ix                    0040348c     cpu_x86.obj
 0001:000024c0       cmpu_ix                    004034c0     cpu_x86.obj
 0001:000024f4       anda_ix                    004034f4     cpu_x86.obj
 0001:0000250c       bita_ix                    0040350c     cpu_x86.obj
 0001:0000252c       lda_ix                     0040352c     cpu_x86.obj
 0001:00002544       sta_ix                     00403544     cpu_x86.obj
 0001:00002560       eora_ix                    00403560     cpu_x86.obj
 0001:00002578       adca_ix                    00403578     cpu_x86.obj
 0001:000025ac       ora_ix                     004035ac     cpu_x86.obj
 0001:000025c4       adda_ix                    004035c4     cpu_x86.obj
 0001:000025f4       cmpx_ix                    004035f4     cpu_x86.obj
 0001:00002628       cmps_ix                    00403628     cpu_x86.obj
 0001:0000265c       cmpy_ix                    0040365c     cpu_x86.obj
 0001:00002690       jsr_ix                     00403690     cpu_x86.obj
 0001:000026b8       ldx_ix                     004036b8     cpu_x86.obj
 0001:000026dc       ldy_ix                     004036dc     cpu_x86.obj
 0001:00002700       stx_ix                     00403700     cpu_x86.obj
 0001:0000272c       sty_ix                     0040372c     cpu_x86.obj
 0001:00002758       suba_ex                    00403758     cpu_x86.obj
 0001:00002794       cmpa_ex                    00403794     cpu_x86.obj
 0001:000027d0       sbca_ex                    004037d0     cpu_x86.obj
 0001:00002810       subd_ex                    00403810     cpu_x86.obj
 0001:00002858       cmpd_ex                    00403858     cpu_x86.obj
 0001:000028a0       cmpu_ex                    004038a0     cpu_x86.obj
 0001:000028e8       anda_ex                    004038e8     cpu_x86.obj
 0001:00002914       bita_ex                    00403914     cpu_x86.obj
 0001:00002948       lda_ex                     00403948     cpu_x86.obj
 0001:00002978       sta_ex                     00403978     cpu_x86.obj
 0001:000029ac       eora_ex                    004039ac     cpu_x86.obj
 0001:000029d8       adca_ex                    004039d8     cpu_x86.obj
 0001:00002a20       ora_ex                     00403a20     cpu_x86.obj
 0001:00002a4c       adda_ex                    00403a4c     cpu_x86.obj
 0001:00002a90       cmpx_ex                    00403a90     cpu_x86.obj
 0001:00002ad8       cmps_ex                    00403ad8     cpu_x86.obj
 0001:00002b20       cmpy_ex                    00403b20     cpu_x86.obj
 0001:00002b68       jsr_ex                     00403b68     cpu_x86.obj
 0001:00002ba4       ldx_ex                     00403ba4     cpu_x86.obj
 0001:00002be0       ldy_ex                     00403be0     cpu_x86.obj
 0001:00002c1c       stx_ex                     00403c1c     cpu_x86.obj
 0001:00002c5c       sty_ex                     00403c5c     cpu_x86.obj
 0001:00002c9c       subb_im                    00403c9c     cpu_x86.obj
 0001:00002cc4       cmpb_im                    00403cc4     cpu_x86.obj
 0001:00002cf0       sbcb_im                    00403cf0     cpu_x86.obj
 0001:00002d1c       addd_im                    00403d1c     cpu_x86.obj
 0001:00002d5c       andb_im                    00403d5c     cpu_x86.obj
 0001:00002d78       bitb_im                    00403d78     cpu_x86.obj
 0001:00002d9c       ldb_im                     00403d9c     cpu_x86.obj
 0001:00002db8       eorb_im                    00403db8     cpu_x86.obj
 0001:00002dd4       adcb_im                    00403dd4     cpu_x86.obj
 0001:00002e0c       orb_im                     00403e0c     cpu_x86.obj
 0001:00002e28       addb_im                    00403e28     cpu_x86.obj
 0001:00002e5c       ldd_im                     00403e5c     cpu_x86.obj
 0001:00002e84       ldu_im                     00403e84     cpu_x86.obj
 0001:00002eac       lds_im                     00403eac     cpu_x86.obj
 0001:00002edc       subb_di                    00403edc     cpu_x86.obj
 0001:00002f10       cmpb_di                    00403f10     cpu_x86.obj
 0001:00002f44       sbcb_di                    00403f44     cpu_x86.obj
 0001:00002f7c       addd_di                    00403f7c     cpu_x86.obj
 0001:00002fc4       andb_di                    00403fc4     cpu_x86.obj
 0001:00002fe8       bitb_di                    00403fe8     cpu_x86.obj
 0001:00003014       ldb_di                     00404014     cpu_x86.obj
 0001:0000303c       stb_di                     0040403c     cpu_x86.obj
 0001:00003068       eorb_di                    00404068     cpu_x86.obj
 0001:0000308c       adcb_di                    0040408c     cpu_x86.obj
 0001:000030cc       orb_di                     004040cc     cpu_x86.obj
 0001:000030f0       addb_di                    004040f0     cpu_x86.obj
 0001:0000312c       ldd_di                     0040412c     cpu_x86.obj
 0001:00003160       std_di                     00404160     cpu_x86.obj
 0001:00003198       ldu_di                     00404198     cpu_x86.obj
 0001:000031cc       lds_di                     004041cc     cpu_x86.obj
 0001:00003204       stu_di                     00404204     cpu_x86.obj
 0001:0000323c       sts_di                     0040423c     cpu_x86.obj
 0001:00003274       subb_ix                    00404274     cpu_x86.obj
 0001:00003298       cmpb_ix                    00404298     cpu_x86.obj
 0001:000032c0       sbcb_ix                    004042c0     cpu_x86.obj
 0001:000032e8       addd_ix                    004042e8     cpu_x86.obj
 0001:00003320       andb_ix                    00404320     cpu_x86.obj
 0001:00003338       bitb_ix                    00404338     cpu_x86.obj
 0001:00003358       ldb_ix                     00404358     cpu_x86.obj
 0001:00003370       stb_ix                     00404370     cpu_x86.obj
 0001:0000338c       eorb_ix                    0040438c     cpu_x86.obj
 0001:000033a4       adcb_ix                    004043a4     cpu_x86.obj
 0001:000033d8       orb_ix                     004043d8     cpu_x86.obj
 0001:000033f0       addb_ix                    004043f0     cpu_x86.obj
 0001:00003420       ldd_ix                     00404420     cpu_x86.obj
 0001:00003444       std_ix                     00404444     cpu_x86.obj
 0001:00003470       ldu_ix                     00404470     cpu_x86.obj
 0001:00003494       lds_ix                     00404494     cpu_x86.obj
 0001:000034bc       stu_ix                     004044bc     cpu_x86.obj
 0001:000034e8       sts_ix                     004044e8     cpu_x86.obj
 0001:00003514       subb_ex                    00404514     cpu_x86.obj
 0001:00003550       cmpb_ex                    00404550     cpu_x86.obj
 0001:0000358c       sbcb_ex                    0040458c     cpu_x86.obj
 0001:000035cc       addd_ex                    004045cc     cpu_x86.obj
 0001:0000361c       andb_ex                    0040461c     cpu_x86.obj
 0001:00003648       bitb_ex                    00404648     cpu_x86.obj
 0001:0000367c       ldb_ex                     0040467c     cpu_x86.obj
 0001:000036ac       stb_ex                     004046ac     cpu_x86.obj
 0001:000036e0       eorb_ex                    004046e0     cpu_x86.obj
 0001:0000370c       adcb_ex                    0040470c     cpu_x86.obj
 0001:00003754       orb_ex                     00404754     cpu_x86.obj
 0001:00003780       addb_ex                    00404780     cpu_x86.obj
 0001:000037c4       ldd_ex                     004047c4     cpu_x86.obj
 0001:00003800       std_ex                     00404800     cpu_x86.obj
 0001:00003840       ldu_ex                     00404840     cpu_x86.obj
 0001:0000387c       lds_ex                     0040487c     cpu_x86.obj
 0001:000038bc       stu_ex                     004048bc     cpu_x86.obj
 0001:000038fc       sts_ex                     004048fc     cpu_x86.obj
 0001:0000393c       jump_table1                0040493c     cpu_x86.obj
 0001:00003d3c       jump_table2                00404d3c     cpu_x86.obj
 0001:0000413c       jump_table3                0040513c     cpu_x86.obj
 0001:0000418c       xinc                       0040518c     cpu_x86.obj
 0001:0000419c       xincinc                    0040519c     cpu_x86.obj
 0001:000041ac       xdec                       004051ac     cpu_x86.obj
 0001:000041bc       xdecdec                    004051bc     cpu_x86.obj
 0001:000041cc       xnormal                    004051cc     cpu_x86.obj
 0001:000041d4       xbreg                      004051d4     cpu_x86.obj
 0001:000041e8       xareg                      004051e8     cpu_x86.obj
 0001:000041fc       x8off                      004051fc     cpu_x86.obj
 0001:00004214       x16off                     00405214     cpu_x86.obj
 0001:00004238       pcp1orFF                   00405238     cpu_x86.obj
 0001:00004244       xdreg                      00405244     cpu_x86.obj
 0001:00004254       pcr8                       00405254     cpu_x86.obj
 0001:0000426c       pcr16                      0040526c     cpu_x86.obj
 0001:00004294       eaFFFF                     00405294     cpu_x86.obj
 0001:0000429c       iextend                    0040529c     cpu_x86.obj
 0001:000042b8       ixinc                      004052b8     cpu_x86.obj
 0001:000042d8       ixincinc                   004052d8     cpu_x86.obj
 0001:000042fc       ixdec                      004052fc     cpu_x86.obj
 0001:0000431c       ixdecdec                   0040531c     cpu_x86.obj
 0001:00004340       ixnormal                   00405340     cpu_x86.obj
 0001:00004358       ixbreg                     00405358     cpu_x86.obj
 0001:0000437c       ixareg                     0040537c     cpu_x86.obj
 0001:000043a0       ix8off                     004053a0     cpu_x86.obj
 0001:000043cc       ix16off                    004053cc     cpu_x86.obj
 0001:00004400       ipcp1orFF                  00405400     cpu_x86.obj
 0001:00004424       ixdreg                     00405424     cpu_x86.obj
 0001:00004444       ipcr8                      00405444     cpu_x86.obj
 0001:00004470       ipcr16                     00405470     cpu_x86.obj
 0001:000044a8       iFFFF                      004054a8     cpu_x86.obj
 0001:000044c4       indirect                   004054c4     cpu_x86.obj
 0001:000044f4       yinc                       004054f4     cpu_x86.obj
 0001:00004504       yincinc                    00405504     cpu_x86.obj
 0001:00004514       ydec                       00405514     cpu_x86.obj
 0001:00004524       ydecdec                    00405524     cpu_x86.obj
 0001:00004534       ynormal                    00405534     cpu_x86.obj
 0001:0000453c       ybreg                      0040553c     cpu_x86.obj
 0001:00004550       yareg                      00405550     cpu_x86.obj
 0001:00004564       y8off                      00405564     cpu_x86.obj
 0001:0000457c       y16off                     0040557c     cpu_x86.obj
 0001:000045a0       ydreg                      004055a0     cpu_x86.obj
 0001:000045b0       iyinc                      004055b0     cpu_x86.obj
 0001:000045d0       iyincinc                   004055d0     cpu_x86.obj
 0001:000045f4       iydec                      004055f4     cpu_x86.obj
 0001:00004614       iydecdec                   00405614     cpu_x86.obj
 0001:00004638       iynormal                   00405638     cpu_x86.obj
 0001:00004650       iybreg                     00405650     cpu_x86.obj
 0001:00004674       iyareg                     00405674     cpu_x86.obj
 0001:00004698       iy8off                     00405698     cpu_x86.obj
 0001:000046c4       iy16off                    004056c4     cpu_x86.obj
 0001:000046f8       iydreg                     004056f8     cpu_x86.obj
 0001:00004718       uinc                       00405718     cpu_x86.obj
 0001:00004728       uincinc                    00405728     cpu_x86.obj
 0001:00004738       udec                       00405738     cpu_x86.obj
 0001:00004748       udecdec                    00405748     cpu_x86.obj
 0001:00004758       unormal                    00405758     cpu_x86.obj
 0001:00004760       ubreg                      00405760     cpu_x86.obj
 0001:00004774       uareg                      00405774     cpu_x86.obj
 0001:00004788       u8off                      00405788     cpu_x86.obj
 0001:000047a0       u16off                     004057a0     cpu_x86.obj
 0001:000047c4       udreg                      004057c4     cpu_x86.obj
 0001:000047d4       iuinc                      004057d4     cpu_x86.obj
 0001:000047f4       iuincinc                   004057f4     cpu_x86.obj
 0001:00004818       iudec                      00405818     cpu_x86.obj
 0001:00004838       iudecdec                   00405838     cpu_x86.obj
 0001:0000485c       iunormal                   0040585c     cpu_x86.obj
 0001:00004874       iubreg                     00405874     cpu_x86.obj
 0001:00004898       iuareg                     00405898     cpu_x86.obj
 0001:000048bc       iu8off                     004058bc     cpu_x86.obj
 0001:000048e8       iu16off                    004058e8     cpu_x86.obj
 0001:0000491c       iudreg                     0040591c     cpu_x86.obj
 0001:0000493c       sinc                       0040593c     cpu_x86.obj
 0001:0000494c       sincinc                    0040594c     cpu_x86.obj
 0001:0000495c       sdec                       0040595c     cpu_x86.obj
 0001:0000496c       sdecdec                    0040596c     cpu_x86.obj
 0001:0000497c       snormal                    0040597c     cpu_x86.obj
 0001:00004984       sbreg                      00405984     cpu_x86.obj
 0001:00004998       sareg                      00405998     cpu_x86.obj
 0001:000049ac       s8off                      004059ac     cpu_x86.obj
 0001:000049c4       s16off                     004059c4     cpu_x86.obj
 0001:000049e8       sdreg                      004059e8     cpu_x86.obj
 0001:000049f8       isinc                      004059f8     cpu_x86.obj
 0001:00004a18       isincinc                   00405a18     cpu_x86.obj
 0001:00004a3c       isdec                      00405a3c     cpu_x86.obj
 0001:00004a5c       isdecdec                   00405a5c     cpu_x86.obj
 0001:00004a80       isnormal                   00405a80     cpu_x86.obj
 0001:00004a98       isbreg                     00405a98     cpu_x86.obj
 0001:00004abc       isareg                     00405abc     cpu_x86.obj
 0001:00004ae0       is8off                     00405ae0     cpu_x86.obj
 0001:00004b0c       is16off                    00405b0c     cpu_x86.obj
 0001:00004b40       isdreg                     00405b40     cpu_x86.obj
 0001:00004b60       jump_table_idx             00405b60     cpu_x86.obj
 0001:00004d60       cpu_index                  00405d60     cpu_x86.obj
 0001:00004d8b       cpu_index.bitok            00405d8b     cpu_x86.obj
 0001:00004da0       cpu_index.bitminus         00405da0     cpu_x86.obj
 0001:00004dac       cpu_index.jump             00405dac     cpu_x86.obj
 0001:00004dbc       cpu_error                  00405dbc     cpu_x86.obj
 0001:00004dc0       cpu_exec                   00405dc0     cpu_x86.obj
 0001:00004de1       cpu_exec.nmi_chk           00405de1     cpu_x86.obj
 0001:00004e08       cpu_exec.firq_chk          00405e08     cpu_x86.obj
 0001:00004e28       cpu_exec.irq_chk           00405e28     cpu_x86.obj
 0001:00004e48       cpu_exec.ok                00405e48     cpu_x86.obj
 0001:00004e48       cpu_execline               00405e48     cpu_x86.obj
 0001:00004e60       cpu_execline.cwai_chk      00405e60     cpu_x86.obj
 0001:00004e70       cpu_execline.execline      00405e70     cpu_x86.obj
 0001:00004e84       cpu_execline.first         00405e84     cpu_x86.obj
 0001:00004ea9       cpu_execline.normal        00405ea9     cpu_x86.obj
 0001:00004eb4       cpu_execline.second        00405eb4     cpu_x86.obj
 0001:00004ee5       cpu_execline.sec_norm      00405ee5     cpu_x86.obj
 0001:00004ef0       cpu_execline.third         00405ef0     cpu_x86.obj
 0001:00004f1f       cpu_execline.third_idx     00405f1f     cpu_x86.obj
 0001:00004f28       cpu_execline.third_ok      00405f28     cpu_x86.obj
 0001:00004f2d       cpu_execline.third_loop    00405f2d     cpu_x86.obj
 0001:00004f3b       cpu_execline.third_jump    00405f3b     cpu_x86.obj
 0001:00004f40       cpu_execline.error         00405f40     cpu_x86.obj
 0001:00004f48       cpu_reset                  00405f48     cpu_x86.obj
 0001:00004f8c       cpu_nmi                    00405f8c     cpu_x86.obj
 0001:00005068       cpu_nmi.nmi_cwai           00406068     cpu_x86.obj
 0001:0000508c       cpu_firq                   0040608c     cpu_x86.obj
 0001:000050d4       cpu_firq.firq_cwai         004060d4     cpu_x86.obj
 0001:000050f8       cpu_irq                    004060f8     cpu_x86.obj
 0001:000051d4       cpu_irq.irq_cwai           004061d4     cpu_x86.obj
 0001:0000527f       end                        0040627f     cpu_x86.obj
 0001:00005290       _memcpy400l.loop           00406290     vm_sub.obj
 0001:000052a1       _memcpy400l.exit           004062a1     vm_sub.obj
 0001:000052a4       end                        004062a4     vm_sub.obj
 0001:000052c8       _CopySndBufMMX.loop        004062c8     w32_sub.obj
 0001:000052dc       _CopySndBufMMX.copysbm1    004062dc     w32_sub.obj
 0001:000052ec       _CopySndBufMMX.exit        004062ec     w32_sub.obj
 0001:00005308       _CopySndBuf.loop           00406308     w32_sub.obj
 0001:0000533d       _CopySndBuf.exit           0040633d     w32_sub.obj
 0001:00005354       _CheckInst                 00406354     w32_sub.obj
 0001:0000537a       _CheckInst.nommxinst       0040637a     w32_sub.obj
 0001:0000537c       _CheckInst.exit            0040637c     w32_sub.obj
 0001:00005380       end                        00406380     w32_sub.obj
 0001:000053c8       _Render640DD2.line_loop    004063c8     ddrend16.obj
 0001:000053dc       _Render640DD2.byte_loop    004063dc     ddrend16.obj
 0001:000054c8       _Render640DD2.next_byte    004064c8     ddrend16.obj
 0001:000054d6       _Render640DD2.next_line    004064d6     ddrend16.obj
 0001:000054e1       _Render640DD2.exit         004064e1     ddrend16.obj
 0001:00005538       _Render640wDD2.line_loop   00406538     ddrend16.obj
 0001:00005550       _Render640wDD2.byte_loop   00406550     ddrend16.obj
 0001:00005561       _Render640wDD2.change_dbank1 00406561     ddrend16.obj
 0001:00005569       _Render640wDD2.change_dbank2 00406569     ddrend16.obj
 0001:0000556f       _Render640wDD2.draw_byte   0040656f     ddrend16.obj
 0001:00005660       _Render640wDD2.next_byte   00406660     ddrend16.obj
 0001:0000566c       _Render640wDD2.next_line   0040666c     ddrend16.obj
 0001:0000566f       _Render640wDD2.next_line2  0040666f     ddrend16.obj
 0001:0000567a       _Render640wDD2.exit        0040667a     ddrend16.obj
 0001:000056c4       _Render320DD.line_loop     004066c4     ddrend16.obj
 0001:000056d8       _Render320DD.byte_loop     004066d8     ddrend16.obj
 0001:00005704       _Render320DD.g_loop        00406704     ddrend16.obj
 0001:0000573a       _Render320DD.r_loop        0040673a     ddrend16.obj
 0001:00005774       _Render320DD.b_loop        00406774     ddrend16.obj
 0001:0000579d       _Render320DD.next_byte0    0040679d     ddrend16.obj
 0001:000057aa       _Render320DD.next_byte2    004067aa     ddrend16.obj
 0001:000057af       _Render320DD.next_line     004067af     ddrend16.obj
 0001:000057b1       _Render320DD.next_line2    004067b1     ddrend16.obj
 0001:000057c5       _Render320DD.exit          004067c5     ddrend16.obj
 0001:00005810       _Render320wDD.line_loop    00406810     ddrend16.obj
 0001:00005828       _Render320wDD.byte_loop    00406828     ddrend16.obj
 0001:0000583d       _Render320wDD.change_dbank1 0040683d     ddrend16.obj
 0001:00005845       _Render320wDD.change_dbank2 00406845     ddrend16.obj
 0001:0000584b       _Render320wDD.draw_byte    0040684b     ddrend16.obj
 0001:0000587b       _Render320wDD.g_loop       0040687b     ddrend16.obj
 0001:000058b5       _Render320wDD.r_loop       004068b5     ddrend16.obj
 0001:000058f3       _Render320wDD.b_loop       004068f3     ddrend16.obj
 0001:0000591c       _Render320wDD.next_byte0   0040691c     ddrend16.obj
 0001:00005926       _Render320wDD.next_byte2   00406926     ddrend16.obj
 0001:0000592c       _Render320wDD.next_line    0040692c     ddrend16.obj
 0001:0000592f       _Render320wDD.next_line2   0040692f     ddrend16.obj
 0001:00005943       _Render320wDD.exit         00406943     ddrend16.obj
 0001:00005984       _Render256k555DD.line_loop 00406984     ddrend16.obj
 0001:00005998       _Render256k555DD.byte_loop 00406998     ddrend16.obj
 0001:000059cd       _Render256k555DD.r_loop    004069cd     ddrend16.obj
 0001:000059f4       _Render256k555DD.skip_red  004069f4     ddrend16.obj
 0001:000059f8       _Render256k555DD.skipr_loop 004069f8     ddrend16.obj
 0001:00005a04       _Render256k555DD.green     00406a04     ddrend16.obj
 0001:00005a2e       _Render256k555DD.g_loop    00406a2e     ddrend16.obj
 0001:00005a58       _Render256k555DD.skip_green 00406a58     ddrend16.obj
 0001:00005a5a       _Render256k555DD.skipg_loop 00406a5a     ddrend16.obj
 0001:00005a68       _Render256k555DD.blue      00406a68     ddrend16.obj
 0001:00005a92       _Render256k555DD.b_loop    00406a92     ddrend16.obj
 0001:00005ac4       _Render256k555DD.skip_blue 00406ac4     ddrend16.obj
 0001:00005ac6       _Render256k555DD.skipb_loop 00406ac6     ddrend16.obj
 0001:00005ae0       _Render256k555DD.next_byte 00406ae0     ddrend16.obj
 0001:00005ae2       _Render256k555DD.next_byte0 00406ae2     ddrend16.obj
 0001:00005aef       _Render256k555DD.next_byte2 00406aef     ddrend16.obj
 0001:00005af4       _Render256k555DD.next_line 00406af4     ddrend16.obj
 0001:00005af6       _Render256k555DD.next_line2 00406af6     ddrend16.obj
 0001:00005b4c       _Render256k565DD.line_loop 00406b4c     ddrend16.obj
 0001:00005b60       _Render256k565DD.byte_loop 00406b60     ddrend16.obj
 0001:00005b95       _Render256k565DD.r_loop    00406b95     ddrend16.obj
 0001:00005bbc       _Render256k565DD.skip_red  00406bbc     ddrend16.obj
 0001:00005bc0       _Render256k565DD.skipr_loop 00406bc0     ddrend16.obj
 0001:00005bcc       _Render256k565DD.green     00406bcc     ddrend16.obj
 0001:00005c00       _Render256k565DD.g_loop    00406c00     ddrend16.obj
 0001:00005c2c       _Render256k565DD.skip_green 00406c2c     ddrend16.obj
 0001:00005c2e       _Render256k565DD.skipg_loop 00406c2e     ddrend16.obj
 0001:00005c3c       _Render256k565DD.blue      00406c3c     ddrend16.obj
 0001:00005c66       _Render256k565DD.b_loop    00406c66     ddrend16.obj
 0001:00005c98       _Render256k565DD.skip_blue 00406c98     ddrend16.obj
 0001:00005c9a       _Render256k565DD.skipb_loop 00406c9a     ddrend16.obj
 0001:00005cb4       _Render256k565DD.next_byte 00406cb4     ddrend16.obj
 0001:00005cb6       _Render256k565DD.next_byte0 00406cb6     ddrend16.obj
 0001:00005cc3       _Render256k565DD.next_byte2 00406cc3     ddrend16.obj
 0001:00005cc8       _Render256k565DD.next_line 00406cc8     ddrend16.obj
 0001:00005cca       _Render256k565DD.next_line2 00406cca     ddrend16.obj
 0001:00005d20       _Render640cDD.line_loop    00406d20     ddrend16.obj
 0001:00005d34       _Render640cDD.byte_loop    00406d34     ddrend16.obj
 0001:00005f13       _Render640cDD.next_byte    00406f13     ddrend16.obj
 0001:00005f21       _Render640cDD.next_line    00406f21     ddrend16.obj
 0001:00005f35       _Render640cDD.exit         00406f35     ddrend16.obj
 0001:00005f84       _Render640cwDD.line_loop   00406f84     ddrend16.obj
 0001:00005f98       _Render640cwDD.byte_loop   00406f98     ddrend16.obj
 0001:00005fa9       _Render640cwDD.change_dbank1 00406fa9     ddrend16.obj
 0001:00005fb1       _Render640cwDD.change_dbank2 00406fb1     ddrend16.obj
 0001:00005fb7       _Render640cwDD.draw_byte   00406fb7     ddrend16.obj
 0001:000061a0       _Render640cwDD.next_byte   004071a0     ddrend16.obj
 0001:000061ac       _Render640cwDD.next_line   004071ac     ddrend16.obj
 0001:000061af       _Render640cwDD.next_line2  004071af     ddrend16.obj
 0001:000061c3       _Render640cwDD.exit        004071c3     ddrend16.obj
 0001:000061c8       end                        004071c8     ddrend16.obj
 0001:00006218       _Render640Tc24DD2.line_loop 00407218     ddrend24.obj
 0001:0000622c       _Render640Tc24DD2.byte_loop 0040722c     ddrend24.obj
 0001:00006368       _Render640Tc24DD2.next_byte 00407368     ddrend24.obj
 0001:00006376       _Render640Tc24DD2.next_line 00407376     ddrend24.obj
 0001:00006381       _Render640Tc24DD2.exit     00407381     ddrend24.obj
 0001:000063d8       _Render640wTc24DD2.line_loop 004073d8     ddrend24.obj
 0001:000063f0       _Render640wTc24DD2.byte_loop 004073f0     ddrend24.obj
 0001:00006401       _Render640wTc24DD2.change_dbank1 00407401     ddrend24.obj
 0001:00006409       _Render640wTc24DD2.change_dbank2 00407409     ddrend24.obj
 0001:0000640f       _Render640wTc24DD2.draw_byte 0040740f     ddrend24.obj
 0001:00006550       _Render640wTc24DD2.next_byte 00407550     ddrend24.obj
 0001:0000655c       _Render640wTc24DD2.next_line 0040755c     ddrend24.obj
 0001:0000655f       _Render640wTc24DD2.next_line2 0040755f     ddrend24.obj
 0001:0000656a       _Render640wTc24DD2.exit    0040756a     ddrend24.obj
 0001:000065b4       _Render320Tc24DD.line_loop 004075b4     ddrend24.obj
 0001:000065c8       _Render320Tc24DD.byte_loop 004075c8     ddrend24.obj
 0001:000065f1       _Render320Tc24DD.g_loop    004075f1     ddrend24.obj
 0001:00006626       _Render320Tc24DD.r_loop    00407626     ddrend24.obj
 0001:00006660       _Render320Tc24DD.b_loop    00407660     ddrend24.obj
 0001:0000669f       _Render320Tc24DD.next_byte0 0040769f     ddrend24.obj
 0001:000066ac       _Render320Tc24DD.next_byte2 004076ac     ddrend24.obj
 0001:000066b1       _Render320Tc24DD.next_line 004076b1     ddrend24.obj
 0001:000066b3       _Render320Tc24DD.next_line2 004076b3     ddrend24.obj
 0001:000066c7       _Render320Tc24DD.exit      004076c7     ddrend24.obj
 0001:00006708       _Render320wTc24DD.line_loop 00407708     ddrend24.obj
 0001:00006720       _Render320wTc24DD.byte_loop 00407720     ddrend24.obj
 0001:00006735       _Render320wTc24DD.change_dbank1 00407735     ddrend24.obj
 0001:0000673d       _Render320wTc24DD.change_dbank2 0040773d     ddrend24.obj
 0001:00006743       _Render320wTc24DD.draw_byte 00407743     ddrend24.obj
 0001:00006770       _Render320wTc24DD.g_loop   00407770     ddrend24.obj
 0001:000067a9       _Render320wTc24DD.r_loop   004077a9     ddrend24.obj
 0001:000067e6       _Render320wTc24DD.b_loop   004077e6     ddrend24.obj
 0001:00006824       _Render320wTc24DD.next_byte0 00407824     ddrend24.obj
 0001:0000682e       _Render320wTc24DD.next_byte2 0040782e     ddrend24.obj
 0001:00006834       _Render320wTc24DD.next_line 00407834     ddrend24.obj
 0001:00006837       _Render320wTc24DD.next_line2 00407837     ddrend24.obj
 0001:0000684b       _Render320wTc24DD.exit     0040784b     ddrend24.obj
 0001:0000688c       _Render256kTc24DD.line_loop 0040788c     ddrend24.obj
 0001:000068a0       _Render256kTc24DD.byte_loop 004078a0     ddrend24.obj
 0001:000068b8       _Render256kTc24DD.clr_loop 004078b8     ddrend24.obj
 0001:000068f0       _Render256kTc24DD.r_loop   004078f0     ddrend24.obj
 0001:00006920       _Render256kTc24DD.green    00407920     ddrend24.obj
 0001:00006954       _Render256kTc24DD.g_loop   00407954     ddrend24.obj
 0001:00006984       _Render256kTc24DD.blue     00407984     ddrend24.obj
 0001:000069b8       _Render256kTc24DD.b_loop   004079b8     ddrend24.obj
 0001:000069e8       _Render256kTc24DD.skip_blue 004079e8     ddrend24.obj
 0001:000069ec       _Render256kTc24DD.next_byte 004079ec     ddrend24.obj
 0001:000069ee       _Render256kTc24DD.next_byte0 004079ee     ddrend24.obj
 0001:000069fb       _Render256kTc24DD.next_byte2 004079fb     ddrend24.obj
 0001:00006a00       _Render256kTc24DD.next_line 00407a00     ddrend24.obj
 0001:00006a02       _Render256kTc24DD.next_line2 00407a02     ddrend24.obj
 0001:00006a64       _Render640cTc24DD.line_loop 00407a64     ddrend24.obj
 0001:00006a78       _Render640cTc24DD.byte_loop 00407a78     ddrend24.obj
 0001:00006cf7       _Render640cTc24DD.next_byte 00407cf7     ddrend24.obj
 0001:00006d05       _Render640cTc24DD.next_line 00407d05     ddrend24.obj
 0001:00006d19       _Render640cTc24DD.exit     00407d19     ddrend24.obj
 0001:00006d68       _Render640cwTc24DD.line_loop 00407d68     ddrend24.obj
 0001:00006d7c       _Render640cwTc24DD.byte_loop 00407d7c     ddrend24.obj
 0001:00006d8d       _Render640cwTc24DD.change_dbank1 00407d8d     ddrend24.obj
 0001:00006d95       _Render640cwTc24DD.change_dbank2 00407d95     ddrend24.obj
 0001:00006d9b       _Render640cwTc24DD.draw_byte 00407d9b     ddrend24.obj
 0001:00007024       _Render640cwTc24DD.next_byte 00408024     ddrend24.obj
 0001:00007030       _Render640cwTc24DD.next_line 00408030     ddrend24.obj
 0001:00007033       _Render640cwTc24DD.next_line2 00408033     ddrend24.obj
 0001:00007047       _Render640cwTc24DD.exit    00408047     ddrend24.obj
 0001:0000704c       end                        0040804c     ddrend24.obj
 0001:00007098       _Render640Tc32DD2.line_loop 00408098     ddrend32.obj
 0001:000070ac       _Render640Tc32DD2.byte_loop 004080ac     ddrend32.obj
 0001:00007188       _Render640Tc32DD2.next_byte 00408188     ddrend32.obj
 0001:00007196       _Render640Tc32DD2.next_line 00408196     ddrend32.obj
 0001:000071a1       _Render640Tc32DD2.exit     004081a1     ddrend32.obj
 0001:000071f8       _Render640wTc32DD2.line_loop 004081f8     ddrend32.obj
 0001:00007210       _Render640wTc32DD2.byte_loop 00408210     ddrend32.obj
 0001:00007221       _Render640wTc32DD2.change_dbank1 00408221     ddrend32.obj
 0001:00007229       _Render640wTc32DD2.change_dbank2 00408229     ddrend32.obj
 0001:0000722f       _Render640wTc32DD2.draw_byte 0040822f     ddrend32.obj
 0001:00007310       _Render640wTc32DD2.next_byte 00408310     ddrend32.obj
 0001:0000731c       _Render640wTc32DD2.next_line 0040831c     ddrend32.obj
 0001:0000731f       _Render640wTc32DD2.next_line2 0040831f     ddrend32.obj
 0001:0000732a       _Render640wTc32DD2.exit    0040832a     ddrend32.obj
 0001:00007374       _Render320Tc32DD.line_loop 00408374     ddrend32.obj
 0001:00007388       _Render320Tc32DD.byte_loop 00408388     ddrend32.obj
 0001:000073b4       _Render320Tc32DD.g_loop    004083b4     ddrend32.obj
 0001:000073ea       _Render320Tc32DD.r_loop    004083ea     ddrend32.obj
 0001:00007424       _Render320Tc32DD.b_loop    00408424     ddrend32.obj
 0001:00007450       _Render320Tc32DD.next_byte0 00408450     ddrend32.obj
 0001:0000745d       _Render320Tc32DD.next_byte2 0040845d     ddrend32.obj
 0001:00007462       _Render320Tc32DD.next_line 00408462     ddrend32.obj
 0001:00007464       _Render320Tc32DD.next_line2 00408464     ddrend32.obj
 0001:00007478       _Render320Tc32DD.exit      00408478     ddrend32.obj
 0001:000074c4       _Render320wTc32DD.line_loop 004084c4     ddrend32.obj
 0001:000074dc       _Render320wTc32DD.byte_loop 004084dc     ddrend32.obj
 0001:000074f1       _Render320wTc32DD.change_dbank1 004084f1     ddrend32.obj
 0001:000074f9       _Render320wTc32DD.change_dbank2 004084f9     ddrend32.obj
 0001:000074ff       _Render320wTc32DD.draw_byte 004084ff     ddrend32.obj
 0001:0000752f       _Render320wTc32DD.g_loop   0040852f     ddrend32.obj
 0001:00007569       _Render320wTc32DD.r_loop   00408569     ddrend32.obj
 0001:000075a7       _Render320wTc32DD.b_loop   004085a7     ddrend32.obj
 0001:000075d3       _Render320wTc32DD.next_byte0 004085d3     ddrend32.obj
 0001:000075dd       _Render320wTc32DD.next_byte2 004085dd     ddrend32.obj
 0001:000075e4       _Render320wTc32DD.next_line 004085e4     ddrend32.obj
 0001:000075e7       _Render320wTc32DD.next_line2 004085e7     ddrend32.obj
 0001:000075fb       _Render320wTc32DD.exit     004085fb     ddrend32.obj
 0001:0000763c       _Render256kTc32DD.line_loop 0040863c     ddrend32.obj
 0001:00007650       _Render256kTc32DD.byte_loop 00408650     ddrend32.obj
 0001:00007668       _Render256kTc32DD.clr_loop 00408668     ddrend32.obj
 0001:000076a0       _Render256kTc32DD.r_loop   004086a0     ddrend32.obj
 0001:000076d0       _Render256kTc32DD.green    004086d0     ddrend32.obj
 0001:00007704       _Render256kTc32DD.g_loop   00408704     ddrend32.obj
 0001:00007734       _Render256kTc32DD.blue     00408734     ddrend32.obj
 0001:00007768       _Render256kTc32DD.b_loop   00408768     ddrend32.obj
 0001:00007798       _Render256kTc32DD.skip_blue 00408798     ddrend32.obj
 0001:0000779c       _Render256kTc32DD.next_byte 0040879c     ddrend32.obj
 0001:0000779e       _Render256kTc32DD.next_byte0 0040879e     ddrend32.obj
 0001:000077ab       _Render256kTc32DD.next_byte2 004087ab     ddrend32.obj
 0001:000077b0       _Render256kTc32DD.next_line 004087b0     ddrend32.obj
 0001:000077b2       _Render256kTc32DD.next_line2 004087b2     ddrend32.obj
 0001:0000780c       _Render640cTc32DD.line_loop 0040880c     ddrend32.obj
 0001:00007820       _Render640cTc32DD.byte_loop 00408820     ddrend32.obj
 0001:000079df       _Render640cTc32DD.next_byte 004089df     ddrend32.obj
 0001:000079ed       _Render640cTc32DD.next_line 004089ed     ddrend32.obj
 0001:00007a01       _Render640cTc32DD.exit     00408a01     ddrend32.obj
 0001:00007a50       _Render640cwTc32DD.line_loop 00408a50     ddrend32.obj
 0001:00007a64       _Render640cwTc32DD.byte_loop 00408a64     ddrend32.obj
 0001:00007a75       _Render640cwTc32DD.change_dbank1 00408a75     ddrend32.obj
 0001:00007a7d       _Render640cwTc32DD.change_dbank2 00408a7d     ddrend32.obj
 0001:00007a83       _Render640cwTc32DD.draw_byte 00408a83     ddrend32.obj
 0001:00007c4c       _Render640cwTc32DD.next_byte 00408c4c     ddrend32.obj
 0001:00007c58       _Render640cwTc32DD.next_line 00408c58     ddrend32.obj
 0001:00007c5b       _Render640cwTc32DD.next_line2 00408c5b     ddrend32.obj
 0001:00007c6f       _Render640cwTc32DD.exit    00408c6f     ddrend32.obj
 0001:00007c74       end                        00408c74     ddrend32.obj
 0001:00007cb8       _Render640GDI2.line_loop   00408cb8     gdi_rend.obj
 0001:00007ccc       _Render640GDI2.byte_loop   00408ccc     gdi_rend.obj
 0001:00007ce8       _Render640GDI2.bytedraw    00408ce8     gdi_rend.obj
 0001:00007d66       _Render640GDI2.bytewrite   00408d66     gdi_rend.obj
 0001:00007d6b       _Render640GDI2.next_byte   00408d6b     gdi_rend.obj
 0001:00007d7c       _Render640GDI2.next_line   00408d7c     gdi_rend.obj
 0001:00007d89       _Render640GDI2.exit        00408d89     gdi_rend.obj
 0001:00007dcc       _Render640wGDI2.line_loop  00408dcc     gdi_rend.obj
 0001:00007de4       _Render640wGDI2.byte_loop  00408de4     gdi_rend.obj
 0001:00007df5       _Render640wGDI2.change_dbank1 00408df5     gdi_rend.obj
 0001:00007dfd       _Render640wGDI2.change_dbank2 00408dfd     gdi_rend.obj
 0001:00007e03       _Render640wGDI2.draw_byte  00408e03     gdi_rend.obj
 0001:00007e24       _Render640wGDI2.bytedraw   00408e24     gdi_rend.obj
 0001:00007ea5       _Render640wGDI2.bytewrite  00408ea5     gdi_rend.obj
 0001:00007eab       _Render640wGDI2.next_byte  00408eab     gdi_rend.obj
 0001:00007eb8       _Render640wGDI2.next_line  00408eb8     gdi_rend.obj
 0001:00007ebe       _Render640wGDI2.next_line2 00408ebe     gdi_rend.obj
 0001:00007ec6       _Render640wGDI2.exit       00408ec6     gdi_rend.obj
 0001:00007f0c       _Render320GDI.line_loop    00408f0c     gdi_rend.obj
 0001:00007f20       _Render320GDI.byte_loop    00408f20     gdi_rend.obj
 0001:00007f4c       _Render320GDI.g_loop       00408f4c     gdi_rend.obj
 0001:00007f82       _Render320GDI.r_loop       00408f82     gdi_rend.obj
 0001:00007fbc       _Render320GDI.b_loop       00408fbc     gdi_rend.obj
 0001:00007fda       _Render320GDI.next_byte    00408fda     gdi_rend.obj
 0001:00007fe2       _Render320GDI.next_byte3   00408fe2     gdi_rend.obj
 0001:00007fed       _Render320GDI.next_line    00408fed     gdi_rend.obj
 0001:00007ff5       _Render320GDI.next_line2   00408ff5     gdi_rend.obj
 0001:00008000       _Render320GDI.next_byte2   00409000     gdi_rend.obj
 0001:00008005       _Render320GDI.exit         00409005     gdi_rend.obj
 0001:0000804c       _Render320GDI32bpp.line_loop 0040904c     gdi_rend.obj
 0001:00008060       _Render320GDI32bpp.byte_loop 00409060     gdi_rend.obj
 0001:0000808c       _Render320GDI32bpp.g_loop  0040908c     gdi_rend.obj
 0001:000080c2       _Render320GDI32bpp.r_loop  004090c2     gdi_rend.obj
 0001:000080fc       _Render320GDI32bpp.b_loop  004090fc     gdi_rend.obj
 0001:0000811d       _Render320GDI32bpp.next_byte 0040911d     gdi_rend.obj
 0001:00008125       _Render320GDI32bpp.next_byte3 00409125     gdi_rend.obj
 0001:00008130       _Render320GDI32bpp.next_line 00409130     gdi_rend.obj
 0001:00008138       _Render320GDI32bpp.next_line2 00409138     gdi_rend.obj
 0001:00008144       _Render320GDI32bpp.next_byte2 00409144     gdi_rend.obj
 0001:00008149       _Render320GDI32bpp.exit    00409149     gdi_rend.obj
 0001:0000818c       _Render320wGDI.line_loop   0040918c     gdi_rend.obj
 0001:000081a4       _Render320wGDI.byte_loop   004091a4     gdi_rend.obj
 0001:000081b9       _Render320wGDI.change_dbank1 004091b9     gdi_rend.obj
 0001:000081c1       _Render320wGDI.change_dbank2 004091c1     gdi_rend.obj
 0001:000081c7       _Render320wGDI.draw_byte   004091c7     gdi_rend.obj
 0001:000081f7       _Render320wGDI.g_loop      004091f7     gdi_rend.obj
 0001:00008231       _Render320wGDI.r_loop      00409231     gdi_rend.obj
 0001:0000826f       _Render320wGDI.b_loop      0040926f     gdi_rend.obj
 0001:00008298       _Render320wGDI.next_byte   00409298     gdi_rend.obj
 0001:000082a4       _Render320wGDI.next_byte2  004092a4     gdi_rend.obj
 0001:000082ac       _Render320wGDI.next_line   004092ac     gdi_rend.obj
 0001:000082b4       _Render320wGDI.next_line2  004092b4     gdi_rend.obj
 0001:000082bc       _Render320wGDI.exit        004092bc     gdi_rend.obj
 0001:00008300       _Render320wGDI32bpp.line_loop 00409300     gdi_rend.obj
 0001:00008318       _Render320wGDI32bpp.byte_loop 00409318     gdi_rend.obj
 0001:0000832d       _Render320wGDI32bpp.change_dbank1 0040932d     gdi_rend.obj
 0001:00008335       _Render320wGDI32bpp.change_dbank2 00409335     gdi_rend.obj
 0001:0000833b       _Render320wGDI32bpp.draw_byte 0040933b     gdi_rend.obj
 0001:0000836b       _Render320wGDI32bpp.g_loop 0040936b     gdi_rend.obj
 0001:000083a5       _Render320wGDI32bpp.r_loop 004093a5     gdi_rend.obj
 0001:000083e3       _Render320wGDI32bpp.b_loop 004093e3     gdi_rend.obj
 0001:0000840f       _Render320wGDI32bpp.next_byte 0040940f     gdi_rend.obj
 0001:0000841c       _Render320wGDI32bpp.next_byte2 0040941c     gdi_rend.obj
 0001:00008424       _Render320wGDI32bpp.next_line 00409424     gdi_rend.obj
 0001:0000842c       _Render320wGDI32bpp.next_line2 0040942c     gdi_rend.obj
 0001:00008434       _Render320wGDI32bpp.exit   00409434     gdi_rend.obj
 0001:00008470       _Render256kGDI.line_loop   00409470     gdi_rend.obj
 0001:00008484       _Render256kGDI.byte_loop   00409484     gdi_rend.obj
 0001:0000849c       _Render256kGDI.clr_loop    0040949c     gdi_rend.obj
 0001:000084d4       _Render256kGDI.r_loop      004094d4     gdi_rend.obj
 0001:00008504       _Render256kGDI.green       00409504     gdi_rend.obj
 0001:00008538       _Render256kGDI.g_loop      00409538     gdi_rend.obj
 0001:00008568       _Render256kGDI.blue        00409568     gdi_rend.obj
 0001:0000859c       _Render256kGDI.b_loop      0040959c     gdi_rend.obj
 0001:000085cc       _Render256kGDI.skip_blue   004095cc     gdi_rend.obj
 0001:000085d0       _Render256kGDI.next_byte   004095d0     gdi_rend.obj
 0001:000085d2       _Render256kGDI.next_byte3  004095d2     gdi_rend.obj
 0001:000085e5       _Render256kGDI.next_line2  004095e5     gdi_rend.obj
 0001:000085f0       _Render256kGDI.next_byte2  004095f0     gdi_rend.obj
 0001:000085f5       _Render256kGDI.exit        004095f5     gdi_rend.obj
 0001:00008630       _Render640cGDI.line_loop   00409630     gdi_rend.obj
 0001:00008644       _Render640cGDI.byte_loop   00409644     gdi_rend.obj
 0001:0000875f       _Render640cGDI.next_byte   0040975f     gdi_rend.obj
 0001:00008772       _Render640cGDI.next_line   00409772     gdi_rend.obj
 0001:0000877f       _Render640cGDI.exit        0040977f     gdi_rend.obj
 0001:000087bc       _Render640cwGDI.line_loop  004097bc     gdi_rend.obj
 0001:000087d0       _Render640cwGDI.byte_loop  004097d0     gdi_rend.obj
 0001:000087e1       _Render640cwGDI.change_dbank1 004097e1     gdi_rend.obj
 0001:000087e9       _Render640cwGDI.change_dbank2 004097e9     gdi_rend.obj
 0001:000087ef       _Render640cwGDI.draw_byte  004097ef     gdi_rend.obj
 0001:00008912       _Render640cwGDI.next_byte  00409912     gdi_rend.obj
 0001:00008920       _Render640cwGDI.next_line  00409920     gdi_rend.obj
 0001:00008928       _Render640cwGDI.next_line2 00409928     gdi_rend.obj
 0001:00008930       _Render640cwGDI.exit       00409930     gdi_rend.obj
 0001:00008935       end                        00409935     gdi_rend.obj
 0001:00008940       _c_rgodfDIMouse            00409940     dinput:dilib1.obj
 0001:000089b0       _c_rgodfDIKeyboard         004099b0     dinput:dilib2.obj
 0001:000099b0       @alu_and@4                 0040a9b0 f   aluline.obj
 0001:00009b60       @alu_cmp@4                 0040ab60 f   aluline.obj
 0001:00009cc0       @alu_not@4                 0040acc0 f   aluline.obj
 0001:00009e90       @alu_or@4                  0040ae90 f   aluline.obj
 0001:0000a050       @alu_prohibit@4            0040b050 f   aluline.obj
 0001:0000a210       @alu_pset@4                0040b210 f   aluline.obj
 0001:0000a3c0       @alu_read@4                0040b3c0 f   aluline.obj
 0001:0000a410       @alu_tile@4                0040b410 f   aluline.obj
 0001:0000a5f0       @alu_xor@4                 0040b5f0 f   aluline.obj
 0001:0000a7a0       @aluline_event@0           0040b7a0 f   aluline.obj
 0001:0000a85c       $LN15                      0040b85c     aluline.obj
 0001:0000a8c0       $LN16                      0040b8c0     aluline.obj
 0001:0000a8f0       @aluline_line@0            0040b8f0 f   aluline.obj
 0001:0000abd0       @aluline_pset@8            0040bbd0 f   aluline.obj
 0001:0000ad0c       $LN17                      0040bd0c     aluline.obj
 0001:0000ad24       $LN14                      0040bd24     aluline.obj
 0001:0000b1c8       $LN31                      0040c1c8     aluline.obj
 0001:0000b20c       $LN26                      0040c20c     aluline.obj
 0001:0000b33c       $LN14                      0040c33c     apalet.obj
 0001:0000b4c8       $LN19                      0040c4c8     apalet.obj
 0001:0000ba88       $LN171                     0040ca88     disasm.obj
 0001:0000baa0       $LN131                     0040caa0     disasm.obj
 0001:0000bab0       $LN172                     0040cab0     disasm.obj
 0001:0000bac0       @except2@0                 0040cac0 f   disasm.obj
 0001:0000bf74       $LN116                     0040cf74     disasm.obj
 0001:0000bf88       $LN91                      0040cf88     disasm.obj
 0001:0000bfe0       @extend@0                  0040cfe0 f   disasm.obj
 0001:0000c0c0       @fetch@0                   0040d0c0 f   disasm.obj
 0001:0000c120       @idx@0                     0040d120 f   disasm.obj
 0001:0000c8bc       $LN133                     0040d8bc     disasm.obj
 0001:0000c8e0       @imm2@0                    0040d8e0 f   disasm.obj
 0001:0000c9e0       @page2@0                   0040d9e0 f   disasm.obj
 0001:0000cdac       $LN108                     0040ddac     disasm.obj
 0001:0000cdc0       $LN88                      0040ddc0     disasm.obj
 0001:0000cdf4       $LN109                     0040ddf4     disasm.obj
 0001:0000ce08       $LN91                      0040de08     disasm.obj
 0001:0000ce18       $LN110                     0040de18     disasm.obj
 0001:0000ce2c       $LN93                      0040de2c     disasm.obj
 0001:0000ce60       @regaxbdu@0                0040de60 f   disasm.obj
 0001:0000d138       $LN75                      0040e138     disasm.obj
 0001:0000d150       @rel1@0                    0040e150 f   disasm.obj
 0001:0000d210       @rel2@0                    0040e210 f   disasm.obj
 0001:0000d320       @set2dec@4                 0040e320 f   disasm.obj
 0001:0000d3b0       @strcat_mnemonic@4         0040e3b0 f   disasm.obj
 0001:0000d430       @sub2hex@8                 0040e430 f   disasm.obj
 0001:0000d4d0       @display_blank@0           0040e4d0 f   display.obj
 0001:0000da8c       $LN31                      0040ea8c     display.obj
 0001:0000dab8       $LN28                      0040eab8     display.obj
 0001:0000e010       @display_setup@0           0040f010 f   display.obj
 0001:0000e070       @display_vsync@0           0040f070 f   display.obj
 0001:0000e5f0       $LN80                      0040f5f0     display.obj
 0001:0000e620       $LN75                      0040f620     display.obj
 0001:0000e65c       $LN81                      0040f65c     display.obj
 0001:0000e760       @subcpu_event@0            0040f760 f   display.obj
 0001:0000e780       @vram_scroll@4             0040f780 f   display.obj
 0001:0000e8d0       @vram_scroll_analog@8      0040f8d0 f   display.obj
 0001:0000ea10       @fdc_datamark@8            0040fa10 f   fdc.obj
 0001:0000eaa0       @fdc_drq_event@0           0040faa0 f   fdc.obj
 0001:0000ead0       @fdc_idmark@4              0040fad0 f   fdc.obj
 0001:0000f0d0       @fdc_lost_event@0          004100d0 f   fdc.obj
 0001:0000f130       @fdc_make_stat@0           00410130 f   fdc.obj
 0001:0000f200       @fdc_make_track@0          00410200 f   fdc.obj
 0001:0000f860       @fdc_makeaddr@4            00410860 f   fdc.obj
 0001:0000fa70       @fdc_multi_event@0         00410a70 f   fdc.obj
 0001:0000faf0       @fdc_next_index@0          00410af0 f   fdc.obj
 0001:0000fbe0       @fdc_process_cmd@0         00410be0 f   fdc.obj
 0001:00010184       $LN110                     00411184     fdc.obj
 0001:000101c4       $LN111                     004111c4     fdc.obj
 0001:000101e0       @fdc_read_data@0           004111e0 f   fdc.obj
 0001:00010624       $LN49                      00411624     fdc.obj
 0001:00010650       @fdc_readbuf@4             00411650 f   fdc.obj
 0001:00010a10       @fdc_readsec@16            00411a10 f   fdc.obj
 0001:00011690       @fdc_setseekevent@4        00412690 f   fdc.obj
 0001:000117f0       @fdc_step_in@0             004127f0 f   fdc.obj
 0001:00011930       @fdc_step_out@0            00412930 f   fdc.obj
 0001:00011a60       @fdc_write_data@0          00412a60 f   fdc.obj
 0001:00011ef0       $LN51                      00412ef0     fdc.obj
 0001:00011f10       @fdc_writetrk@0            00412f10 f   fdc.obj
 0001:000121f0       @fdd_seek_event@0          004131f0 f   fdc.obj
 0001:0001299c       $LN19                      0041399c     kanji.obj
 0001:000129ac       $LN16                      004139ac     kanji.obj
 0001:00012aa8       $LN23                      00413aa8     kanji.obj
 0001:00012ac4       $LN19                      00413ac4     kanji.obj
 0001:00012ae0       @key_send_ack@0            00413ae0 f   keyboard.obj
 0001:00012bc0       @keyboard_event@0          00413bc0 f   keyboard.obj
 0001:000131b8       $LN43                      004141b8     keyboard.obj
 0001:0001330c       $LN24                      0041430c     keyboard.obj
 0001:00013324       $LN22                      00414324     keyboard.obj
 0001:00013a10       @keyboard_update_shift@4   00414a10 f   keyboard.obj
 0001:00013b6c       $LN24                      00414b6c     keyboard.obj
 0001:00013ba0       $LN22                      00414ba0     keyboard.obj
 0001:00014024       $LN104                     00415024     keyboard.obj
 0001:00014034       $LN98                      00415034     keyboard.obj
 0001:00014068       $LN105                     00415068     keyboard.obj
 0001:00014098       $LN99                      00415098     keyboard.obj
 0001:00014120       $LN106                     00415120     keyboard.obj
 0001:00014130       $LN107                     00415130     keyboard.obj
 0001:00014140       @keyenc_hidden_message_event@0 00415140 f   keyboard.obj
 0001:000141f0       @keyencbeep_event@0        004151f0 f   keyboard.obj
 0001:00014570       @mainetc_event@0           00415570 f   mainetc.obj
 0001:00014900       $LN18                      00415900     mainetc.obj
 0001:00014914       $LN16                      00415914     mainetc.obj
 0001:00015190       @mainmem_iowait@0          00416190 f   mainmem.obj
 0001:000160fc       $LN11                      004170fc     mouse.obj
 0001:00016220       @mos_timeout@0             00417220 f   mouse.obj
 0001:0001631c       $LN19                      0041731c     mouse.obj
 0001:000169f8       $LN42                      004179f8     mmr.obj
 0001:00016a10       $LN39                      00417a10     mmr.obj
 0001:00017034       $LN76                      00418034     mmr.obj
 0001:00017058       $LN69                      00418058     mmr.obj
 0001:00017350       @opn_load_common@8         00418350 f   opn.obj
 0001:00017460       @opn_read_data_reg@8       00418460 f   opn.obj
 0001:00017538       $LN21                      00418538     opn.obj
 0001:00017548       $LN19                      00418548     opn.obj
 0001:000175e4       $LN21                      004185e4     opn.obj
 0001:000175fc       $LN19                      004185fc     opn.obj
 0001:00017630       @opn_reset_common@4        00418630 f   opn.obj
 0001:00017990       @opn_save_common@8         00418990 f   opn.obj
 0001:00017aa0       @opn_set_irq_flag@8        00418aa0 f   opn.obj
 0001:00017ad0       @opn_timera_calc@4         00418ad0 f   opn.obj
 0001:00017b80       @opn_timera_event@0        00418b80 f   opn.obj
 0001:00017bd0       @opn_timerb_calc@4         00418bd0 f   opn.obj
 0001:00017c60       @opn_timerb_event@0        00418c60 f   opn.obj
 0001:00017cb0       @opn_write_command_reg@8   00418cb0 f   opn.obj
 0001:00017d78       $LN21                      00418d78     opn.obj
 0001:00017e94       $LN29                      00418e94     opn.obj
 0001:00017eac       $LN25                      00418eac     opn.obj
 0001:00017ec0       @opn_writereg@12           00418ec0 f   opn.obj
 0001:00018128       $LN53                      00419128     opn.obj
 0001:00018144       $LN51                      00419144     opn.obj
 0001:0001837c       $LN21                      0041937c     opn.obj
 0001:00018394       $LN19                      00419394     opn.obj
 0001:000185b0       @thg_timera_event@0        004195b0 f   opn.obj
 0001:00018600       @thg_timerb_event@0        00419600 f   opn.obj
 0001:00018788       $LN38                      00419788     opn.obj
 0001:0001879c       $LN31                      0041979c     opn.obj
 0001:00018a40       $LN39                      00419a40     opn.obj
 0001:00018a50       $LN34                      00419a50     opn.obj
 0001:00018c30       @whg_timera_event@0        00419c30 f   opn.obj
 0001:00018c80       @whg_timerb_event@0        00419c80 f   opn.obj
 0001:00018db0       @ptm_control_set@8         00419db0 f   ptm.obj
 0001:00018e40       $LN20                      00419e40     ptm.obj
 0001:00018e4c       $LN16                      00419e4c     ptm.obj
 0001:00018e80       @ptm_counter_reset@0       00419e80 f   ptm.obj
 0001:00018f40       @ptm_event@0               00419f40 f   ptm.obj
 0001:000191b0       @ptm_preset_counter@4      0041a1b0 f   ptm.obj
 0001:00019308       $LN16                      0041a308     ptm.obj
 0001:00019640       $LN22                      0041a640     ptm.obj
 0001:000196f4       $LN14                      0041a6f4     rs232c.obj
 0001:00019708       $LN12                      0041a708     rs232c.obj
 0001:00019da4       $LN26                      0041ada4     rs232c.obj
 0001:00019dc0       @rtc_event@0               0041adc0 f   rtc.obj
 0001:00019f00       @rtc_event_adjust@0        0041af00 f   rtc.obj
 0001:0001a2a0       @rtc_time_adjust_sub@0     0041b2a0 f   rtc.obj
 0001:0001a330       @schedule_chkbreak@0       0041b330 f   schedule.obj
 0001:0001b9f4       $LN28                      0041c9f4     subctrl.obj
 0001:0001ba08       $LN26                      0041ca08     subctrl.obj
 0001:0001bdb4       $LN36                      0041cdb4     subctrl.obj
 0001:0001bdc8       $LN33                      0041cdc8     subctrl.obj
 0001:0001c560       $LN42                      0041d560     submem.obj
 0001:0001c778       $LN33                      0041d778     submem.obj
 0001:0001d980       @tape_input@4              0041e980 f   tapelp.obj
 0001:0001dae0       @tape_mark@0               0041eae0 f   tapelp.obj
 0001:0001dbe0       @tape_output@4             0041ebe0 f   tapelp.obj
 0001:0001dd40       @tape_outsnd@0             0041ed40 f   tapelp.obj
 0001:0001ea50       @bmp_256k_sub2@4           0041fa50 f   tools.obj
 0001:0001ed60       @bmp_256k_sub@8            0041fd60 f   tools.obj
 0001:0001f0c0       @bmp_320_sub2@8            004200c0 f   tools.obj
 0001:0001f3c0       @bmp_320_sub@12            004203c0 f   tools.obj
 0001:0001f710       @bmp_400l_sub2@4           00420710 f   tools.obj
 0001:0001fa60       @bmp_400l_sub@4            00420a60 f   tools.obj
 0001:0001fbf0       @bmp_640_sub2@8            00420bf0 f   tools.obj
 0001:0001fea0       @bmp_640_sub@8             00420ea0 f   tools.obj
 0001:00020090       @bmp_p400c_sub2@4          00421090 f   tools.obj
 0001:000203c0       @bmp_p400c_sub@4           004213c0 f   tools.obj
 0001:00020710       $LN34                      00421710     tools.obj
 0001:00020944       $LN67                      00421944     tools.obj
 0001:00021050       $LN79                      00422050     tools.obj
 0001:00021060       $LN80                      00422060     tools.obj
 0001:000218f0       @vtp_conv_write@8          004228f0 f   tools.obj
 0001:00021e38       $LN24                      00422e38     dmac.obj
 0001:00021e5c       $LN20                      00422e5c     dmac.obj
 0001:00021ff0       @dmac_start_ch0@0          00422ff0 f   dmac.obj
 0001:00022174       $LN24                      00423174     dmac.obj
 0001:00022194       $LN20                      00423194     dmac.obj
 0001:00022630       @DrawDrive@8               00423630 f   w32_bar.obj
 0001:00022800       @DrawMainCaption@0         00423800 f   w32_bar.obj
 0001:0002320c       $LN66                      0042420c     w32_bar.obj
 0001:00023b7c       $LN56                      00424b7c     w32_cfg.obj
 0001:00023b90       @GeneralPageCmd@16         00424b90 f   w32_cfg.obj
 0001:00023db8       $LN38                      00424db8     w32_cfg.obj
 0001:00023dc8       $LN39                      00424dc8     w32_cfg.obj
 0001:00023dd8       $LN40                      00424dd8     w32_cfg.obj
 0001:00023df0       @GeneralPageInit@4         00424df0 f   w32_cfg.obj
 0001:00024110       @JoyPageCombo@8            00425110 f   w32_cfg.obj
 0001:00024360       @JoyPageGet@4              00425360 f   w32_cfg.obj
 0001:000244a0       @JoyPageInit@4             004254a0 f   w32_cfg.obj
 0001:00024690       @JoyPageSet@4              00425690 f   w32_cfg.obj
 0001:00024710       @KbdPageDblClk@4           00425710 f   w32_cfg.obj
 0001:000247f0       @KbdPageInit@4             004257f0 f   w32_cfg.obj
 0001:00024a30       @KbdPageSubItem@4          00425a30 f   w32_cfg.obj
 0001:00024ad0       @KeyInDlgInit@4            00425ad0 f   w32_cfg.obj
 0001:00024c80       @KeyInTimer@4              00425c80 f   w32_cfg.obj
 0001:000260d0       @OptPageInit@4             004270d0 f   w32_cfg.obj
 0001:00026290       @PageHelp@8                00427290 f   w32_cfg.obj
 0001:00026390       @PortPageInit@4            00427390 f   w32_cfg.obj
 0001:00026680       @PortPageVScroll@12        00427680 f   w32_cfg.obj
 0001:000279d0       @ScrPageInit@4             004289d0 f   w32_cfg.obj
 0001:00027b50       @SetCfgFile@0              00428b50 f   w32_cfg.obj
 0001:00027c70       @SheetInit@4               00428c70 f   w32_cfg.obj
 0001:00027d90       @SoundPageApply@4          00428d90 f   w32_cfg.obj
 0001:00027f60       @SoundPageInit@4           00428f60 f   w32_cfg.obj
 0001:00028250       @SoundPageVScroll@12       00429250 f   w32_cfg.obj
 0001:00028300       @UpdateVolumeSlider@4      00429300 f   w32_cfg.obj
 0001:000284f0       @VolumePageInit@4          004294f0 f   w32_cfg.obj
 0001:000286d0       _AltPageProc@16            004296d0 f   w32_cfg.obj
 0001:00028850       _GeneralPageProc@16        00429850 f   w32_cfg.obj
 0001:00028a48       $LN44                      00429a48     w32_cfg.obj
 0001:00028a60       $LN42                      00429a60     w32_cfg.obj
 0001:00028b58       $LN45                      00429b58     w32_cfg.obj
 0001:00028b70       _JoyPageProc@16            00429b70 f   w32_cfg.obj
 0001:00028c6c       $LN28                      00429c6c     w32_cfg.obj
 0001:00028c80       $LN24                      00429c80     w32_cfg.obj
 0001:00028d80       _KbdPageProc@16            00429d80 f   w32_cfg.obj
 0001:00028eac       $LN33                      00429eac     w32_cfg.obj
 0001:00028ec0       $LN29                      00429ec0     w32_cfg.obj
 0001:00028fc0       _KeyInDlgProc@16           00429fc0 f   w32_cfg.obj
 0001:000290b0       _LprPageProc@16            0042a0b0 f   w32_cfg.obj
 0001:000292b8       $LN48                      0042a2b8     w32_cfg.obj
 0001:000292cc       $LN42                      0042a2cc     w32_cfg.obj
 0001:000293c0       $LN49                      0042a3c0     w32_cfg.obj
 0001:000293d0       _OptPageProc@16            0042a3d0 f   w32_cfg.obj
 0001:00029520       _PortPageProc@16           0042a520 f   w32_cfg.obj
 0001:0002979c       $LN34                      0042a79c     w32_cfg.obj
 0001:000297b4       $LN32                      0042a7b4     w32_cfg.obj
 0001:000298b0       _ScrPageProc@16            0042a8b0 f   w32_cfg.obj
 0001:000299f0       _SoundPageProc@16          0042a9f0 f   w32_cfg.obj
 0001:00029b48       $LN29                      0042ab48     w32_cfg.obj
 0001:00029b60       $LN26                      0042ab60     w32_cfg.obj
 0001:00029c60       _VolumePageProc@16         0042ac60 f   w32_cfg.obj
 0001:00029e24       $LN18                      0042ae24     w32_cfg.obj
 0001:00029e3c       $LN16                      0042ae3c     w32_cfg.obj
 0001:0002a1b0       @OnCPURegister@4           0042b1b0 f   w32_cmd.obj
 0001:0002aecc       $LN223                     0042becc     w32_cmd.obj
 0001:0002aef8       $LN224                     0042bef8     w32_cmd.obj
 0001:0002af20       $LN214                     0042bf20     w32_cmd.obj
 0001:0002af3c       $LN225                     0042bf3c     w32_cmd.obj
 0001:0002af58       $LN215                     0042bf58     w32_cmd.obj
 0001:0002afdc       $LN226                     0042bfdc     w32_cmd.obj
 0001:0002b018       $LN227                     0042c018     w32_cmd.obj
 0001:0002b040       @OnDebugPopup@4            0042c040 f   w32_cmd.obj
 0001:0002b220       @OnDisAsm@4                0042c220 f   w32_cmd.obj
 0001:0002b260       @OnDiskOpen@4              0042c260 f   w32_cmd.obj
 0001:0002b2d0       @OnDiskPopup@8             0042c2d0 f   w32_cmd.obj
 0001:0002b700       @OnDiskProtect@4           0042c700 f   w32_cmd.obj
 0001:0002b730       @OnDiskTemp@4              0042c730 f   w32_cmd.obj
 0001:0002bbc0       @OnMemory@4                0042cbc0 f   w32_cmd.obj
 0001:0002be5c       $LN58                      0042ce5c     w32_cmd.obj
 0001:0002bf10       @OnSaveAs@4                0042cf10 f   w32_cmd.obj
 0001:0002bfd0       @OnTapePopup@4             0042cfd0 f   w32_cmd.obj
 0001:0002c260       @OnTool@8                  0042d260 f   w32_cmd.obj
 0001:0002ca0c       $LN126                     0042da0c     w32_cmd.obj
 0001:0002ca54       $LN115                     0042da54     w32_cmd.obj
 0001:0002ca80       @OnView@8                  0042da80 f   w32_cmd.obj
 0001:0002ce38       $LN79                      0042de38     w32_cmd.obj
 0001:0002ce80       @OnViewPopup@4             0042de80 f   w32_cmd.obj
 0001:0002d090       @OnWindowPopup@4           0042e090 f   w32_cmd.obj
 0001:0002d2b0       @StateLoad@4               0042e2b0 f   w32_cmd.obj
 0001:0002d360       _FileSelectHook@16         0042e360 f   w32_cmd.obj
 0001:0002d430       _KeyStrokeDlgProc@16       0042e430 f   w32_cmd.obj
 0001:0002d6a0       _TitleDlg2DProc@16         0042e6a0 f   w32_cmd.obj
 0001:0002d840       _TitleDlgProc@16           0042e840 f   w32_cmd.obj
 0001:0002e24c       $LN31                      0042f24c     w32_comm.obj
 0001:0002e260       $LN28                      0042f260     w32_comm.obj
 0001:0002e270       _ThreadRcv@4               0042f270 f   w32_comm.obj
 0001:0002eb58       $LN18                      0042fb58     w32_draw.obj
 0001:0002eea0       @AllClear@0                0042fea0 f   w32_gdi.obj
 0001:0002efa0       @Draw256k@8                0042ffa0 f   w32_gdi.obj
 0001:0002f100       @Draw320@8                 00430100 f   w32_gdi.obj
 0001:0002f340       @Draw400l@8                00430340 f   w32_gdi.obj
 0001:0002f5d0       @Draw640@8                 004305d0 f   w32_gdi.obj
 0001:0002f960       $LN12                      00430960     w32_gdi.obj
 0001:0002fd4c       $LN49                      00430d4c     w32_gdi.obj
 0001:0002fe80       @Palet320@0                00430e80 f   w32_gdi.obj
 0001:0002ff70       @Palet640@0                00430f70 f   w32_gdi.obj
 0001:000300e0       @RenderFullScan@0          004310e0 f   w32_gdi.obj
 0001:00030170       @RenderSetOddLineDigital@0 00431170 f   w32_gdi.obj
 0001:000301f0       @Select256k@4              004311f0 f   w32_gdi.obj
 0001:00030270       @Select320@4               00431270 f   w32_gdi.obj
 0001:00030310       @Select400l@4              00431310 f   w32_gdi.obj
 0001:00030390       @Select640@4               00431390 f   w32_gdi.obj
 0001:00030474       $LN25                      00431474     w32_gdi.obj
 0001:00030490       @SelectSub@4               00431490 f   w32_gdi.obj
 0001:000306b8       $LN22                      004316b8     w32_gdi.obj
 0001:00030a00       @InitInstance@8            00431a00 f   w32_main.obj
 0001:00030ca0       @OnCreate@4                00431ca0 f   w32_main.obj
 0001:000310e0       _DrawWndProc@16            004320e0 f   w32_main.obj
 0001:00031770       $LN86                      00432770     w32_main.obj
 0001:00031780       $LN79                      00432780     w32_main.obj
 0001:00031870       _WndProc@16                00432870 f   w32_main.obj
 0001:00031f18       $LN115                     00432f18     w32_main.obj
 0001:00031f48       $LN107                     00432f48     w32_main.obj
 0001:00031fe8       $LN116                     00432fe8     w32_main.obj
 0001:00031ff8       $LN108                     00432ff8     w32_main.obj
 0001:00032010       @AllNoteOff@0              00433010 f   w32_midi.obj
 0001:000324e4       $LN42                      004334e4     w32_midi.obj
 0001:000324ec       $LN37                      004334ec     w32_midi.obj
 0001:000324f4       $LN43                      004334f4     w32_midi.obj
 0001:00032500       $LN38                      00433500     w32_midi.obj
 0001:00032564       $LN44                      00433564     w32_midi.obj
 0001:00032580       $LN45                      00433580     w32_midi.obj
 0001:000327a0       @DrawSch@0                 004337a0 f   w32_sch.obj
 0001:00032a90       _ThreadSch@4               00433a90 f   w32_sch.obj
 0001:00032f30       @AddAddrHistory@8          00433f30 f   w32_sub1.obj
 0001:00033080       @AddrDlg@16                00434080 f   w32_sub1.obj
 0001:00033260       @CPURegDlg@16              00434260 f   w32_sub1.obj
 0001:000332e0       @CPURegDlgInit@4           004342e0 f   w32_sub1.obj
 0001:000334ec       $LN27                      004344ec     w32_sub1.obj
 0001:00033520       @CmdBreakPoint@8           00434520 f   w32_sub1.obj
 0001:00033720       $LN39                      00434720     w32_sub1.obj
 0001:00033740       @CmdDisAsm@12              00434740 f   w32_sub1.obj
 0001:00033a80       $LN40                      00434a80     w32_sub1.obj
 0001:00033ad0       @CmdMemory@12              00434ad0 f   w32_sub1.obj
 0001:00034064       $LN137                     00435064     w32_sub1.obj
 0001:000340b8       $LN125                     004350b8     w32_sub1.obj
 0001:000350f0       @DrawBreakPoint@8          004360f0 f   w32_sub1.obj
 0001:000352f0       @DrawCPURegister@12        004362f0 f   w32_sub1.obj
 0001:000354d0       @DrawDisAsm@8              004364d0 f   w32_sub1.obj
 0001:000356a0       @DrawMemory@8              004366a0 f   w32_sub1.obj
 0001:00035890       @DrawScheduler@8           00436890 f   w32_sub1.obj
 0001:00035b50       @InsertHistory@8           00436b50 f   w32_sub1.obj
 0001:00035c70       @InsertStackJumpMenu@12    00436c70 f   w32_sub1.obj
 0001:00035dd0       @LButtonDisAsm@16          00436dd0 f   w32_sub1.obj
 0001:00035f00       @MemorySearch@8            00436f00 f   w32_sub1.obj
 0001:000362a0       @PaintCPURegister@4        004372a0 f   w32_sub1.obj
 0001:00036530       @PaintDisAsm@4             00437530 f   w32_sub1.obj
 0001:000367a0       @PaintMemory@4             004377a0 f   w32_sub1.obj
 0001:00036d20       @ResizeMemory@16           00437d20 f   w32_sub1.obj
 0001:00036f00       @ResizeMemoryLines@12      00437f00 f   w32_sub1.obj
 0001:00036f50       @SetupDisAsm@16            00437f50 f   w32_sub1.obj
 0001:00037170       @SetupMemory@16            00438170 f   w32_sub1.obj
 0001:00037780       @SetupScheduler@12         00438780 f   w32_sub1.obj
 0001:00037b50       @WindowSizing@12           00438b50 f   w32_sub1.obj
 0001:00037c90       _AddrDlgProc@16            00438c90 f   w32_sub1.obj
 0001:00037f20       _BreakPointDlgProc@16      00438f20 f   w32_sub1.obj
 0001:00038150       _BreakPointProc@16         00439150 f   w32_sub1.obj
 0001:00038400       _CPURegDlgProc@16          00439400 f   w32_sub1.obj
 0001:00038554       $LN33                      00439554     w32_sub1.obj
 0001:00038590       _CPURegisterProc@20        00439590 f   w32_sub1.obj
 0001:00038710       _CPURegisterProcMain@16    00439710 f   w32_sub1.obj
 0001:00038730       _CPURegisterProcSub@16     00439730 f   w32_sub1.obj
 0001:00038750       _DisAsmProc@20             00439750 f   w32_sub1.obj
 0001:00038d50       $LN74                      00439d50     w32_sub1.obj
 0001:00038d68       $LN61                      00439d68     w32_sub1.obj
 0001:00038db0       $LN75                      00439db0     w32_sub1.obj
 0001:00038dd0       _DisAsmProcMain@16         00439dd0 f   w32_sub1.obj
 0001:00038df0       _DisAsmProcSub@16          00439df0 f   w32_sub1.obj
 0001:00038e10       _MemoryChangeDlgProc@16    00439e10 f   w32_sub1.obj
 0001:00039080       _MemoryProc@20             0043a080 f   w32_sub1.obj
 0001:00039adc       $LN254                     0043aadc     w32_sub1.obj
 0001:00039af4       $LN244                     0043aaf4     w32_sub1.obj
 0001:00039b3c       $LN255                     0043ab3c     w32_sub1.obj
 0001:00039b60       _MemoryProcMain@16         0043ab60 f   w32_sub1.obj
 0001:00039b80       _MemoryProcSub@16          0043ab80 f   w32_sub1.obj
 0001:00039ba0       _MemorySearchDlgProc@16    0043aba0 f   w32_sub1.obj
 0001:00039e10       _SchedulerProc@16          0043ae10 f   w32_sub1.obj
 0001:00039f40       @ConvOPNDisp@8             0043af40 f   w32_sub2.obj
 0001:0003aa10       @DrawALULine@8             0043ba10 f   w32_sub2.obj
 0001:0003aa90       @DrawFDC@8                 0043ba90 f   w32_sub2.obj
 0001:0003ab40       @DrawOPNDisp@8             0043bb40 f   w32_sub2.obj
 0001:0003adb0       @DrawOPNReg@8              0043bdb0 f   w32_sub2.obj
 0001:0003ae30       @DrawSubCtrl@8             0043be30 f   w32_sub2.obj
 0001:0003b020       @KbdOPNDisp@16             0043c020 f   w32_sub2.obj
 0001:0003bab0       $LN322                     0043cab0     w32_sub2.obj
 0001:0003bac0       @LvlOPNDisp@28             0043cac0 f   w32_sub2.obj
 0001:0003bc30       @PaintOPNDisp@8            0043cc30 f   w32_sub2.obj
 0001:0003c390       @SetupALULine@12           0043d390 f   w32_sub2.obj
 0001:0003c940       @SetupFDCCmd@12            0043d940 f   w32_sub2.obj
 0001:0003d060       $LN64                      0043e060     w32_sub2.obj
 0001:0003d080       $LN65                      0043e080     w32_sub2.obj
 0001:0003d0a0       @SetupFDCFlag@16           0043e0a0 f   w32_sub2.obj
 0001:0003d140       @SetupFDCReg@12            0043e140 f   w32_sub2.obj
 0001:0003d3b0       @SetupFDCStat@12           0043e3b0 f   w32_sub2.obj
 0001:0003d644       $LN55                      0043e644     w32_sub2.obj
 0001:0003d658       $LN56                      0043e658     w32_sub2.obj
 0001:0003d680       @SetupOPNDisp@8            0043e680 f   w32_sub2.obj
 0001:0003dcc0       @SetupOPNReg@12            0043ecc0 f   w32_sub2.obj
 0001:0003e000       @SetupOPNRegPs@20          0043f000 f   w32_sub2.obj
 0001:0003e0d0       @SetupOPNRegSub@24         0043f0d0 f   w32_sub2.obj
 0001:0003e220       @SetupSubCtrl@12           0043f220 f   w32_sub2.obj
 0001:0003ee48       $LN115                     0043fe48     w32_sub2.obj
 0001:0003ee60       @StatChrOPNDisp@0          0043fe60 f   w32_sub2.obj
 0001:0003f318       $LN140                     00440318     w32_sub2.obj
 0001:0003f32c       $LN119                     0044032c     w32_sub2.obj
 0001:0003f340       @StatKbdOPNDisp@0          00440340 f   w32_sub2.obj
 0001:0003f950       _ALULineProc@16            00440950 f   w32_sub2.obj
 0001:0003fa50       _CalcCh                    00440a50 f   w32_sub2.obj
 0001:0003fad0       _FDCProc@16                00440ad0 f   w32_sub2.obj
 0001:0003fbd0       _OPNDispProc@16            00440bd0 f   w32_sub2.obj
 0001:0003fd70       _OPNRegProc@16             00440d70 f   w32_sub2.obj
 0001:0003fe70       _SubCtrlProc@16            00440e70 f   w32_sub2.obj
 0001:0003ff70       @ChrPaletteReg@20          00440f70 f   w32_sub3.obj
 0001:00040970       @DrawDMAC@8                00441970 f   w32_sub3.obj
 0001:000409f0       @DrawKeyboard@8            004419f0 f   w32_sub3.obj
 0001:00040a70       @DrawMMR@8                 00441a70 f   w32_sub3.obj
 0001:00040af0       @DrawPaletteReg@8          00441af0 f   w32_sub3.obj
 0001:00040c30       @SetupDMAC@12              00441c30 f   w32_sub3.obj
 0001:00041090       @SetupKeyboard@12          00442090 f   w32_sub3.obj
 0001:00041858       $LN59                      00442858     w32_sub3.obj
 0001:00041870       @SetupKeyboardFlag@12      00442870 f   w32_sub3.obj
 0001:00041920       @SetupMMR@12               00442920 f   w32_sub3.obj
 0001:00041d70       @SetupMMRMemory@12         00442d70 f   w32_sub3.obj
 0001:00041fc0       $LN62                      00442fc0     w32_sub3.obj
 0001:00041fd4       $LN56                      00442fd4     w32_sub3.obj
 0001:00041ff0       @SetupPaletteReg@0         00442ff0 f   w32_sub3.obj
 0001:00042390       @StrPaletteReg@20          00443390 f   w32_sub3.obj
 0001:00042530       _DMACProc@16               00443530 f   w32_sub3.obj
 0001:00042630       _KeyboardProc@16           00443630 f   w32_sub3.obj
 0001:00042730       _MMRProc@16                00443730 f   w32_sub3.obj
 0001:00042830       _PaletteRegProc@16         00443830 f   w32_sub3.obj
 0001:00042990       @AboutDlgInit@4            00443990 f   w32_ver.obj
 0001:00042c40       _AboutDlgProc@16           00443c40 f   w32_ver.obj
 0001:00043314       $LN54                      00444314     fmgen.obj
 0001:00043d4c       $LN42                      00444d4c     fmgen.obj
 0001:00044270       $LN63                      00445270     fmgen.obj
 0001:0004534c       $LN70                      0044634c     opna.obj
 0001:00045378       $LN66                      00446378     opna.obj
 0001:0004542c       $LN71                      0044642c     opna.obj
 0001:0004726c       $LN131                     0044826c     psg.obj
 0001:00047634       $LN32                      00448634     psg.obj
 0001:000477e0       ?AllClear@@YIXH@Z          004487e0 f   w32_dd.obj
 0001:00047b30       ?DDEnumCallback@@YGHPAU_GUID@@PAD1PAXPAUHMONITOR__@@@Z 00448b30 f   w32_dd.obj
 0001:00047b60       ?Draw256k@@YIXXZ           00448b60 f   w32_dd.obj
 0001:00047e70       ?Draw320@@YIXXZ            00448e70 f   w32_dd.obj
 0001:00048240       ?Draw400l@@YIXXZ           00449240 f   w32_dd.obj
 0001:000485f0       ?Draw640@@YIXXZ            004495f0 f   w32_dd.obj
 0001:00048a50       ?DrawRaster640@@YIXH@Z     00449a50 f   w32_dd.obj
 0001:00048bb0       ?Palet320@@YIXXZ           00449bb0 f   w32_dd.obj
 0001:00048ce0       ?Palet640@@YIXXZ           00449ce0 f   w32_dd.obj
 0001:00048d80       ?RenderFullScan@@YIXPAEJ@Z 00449d80 f   w32_dd.obj
 0001:00048e60       ?SetDisplayMode@@YIHHH@Z   00449e60 f   w32_dd.obj
 0001:00048f50       ?StatusCAP@@YIHXZ          00449f50 f   w32_dd.obj
 0001:00049120       ?StatusCaption@@YIHXZ      0044a120 f   w32_dd.obj
 0001:00049490       ?StatusDrive@@YIHH@Z       0044a490 f   w32_dd.obj
 0001:00049860       ?StatusINS@@YIHXZ          0044a860 f   w32_dd.obj
 0001:00049a20       ?StatusKANA@@YIHXZ         0044aa20 f   w32_dd.obj
 0001:00049be0       ?StatusLine@@YIXXZ         0044abe0 f   w32_dd.obj
 0001:00049e80       ?StatusTape@@YIHXZ         0044ae80 f   w32_dd.obj
 0001:0004a330       $LN14                      0044b330     w32_dd.obj
 0001:0004a8ec       $LN56                      0044b8ec     w32_dd.obj
 0001:0004b3b0       $LN76                      0044c3b0     w32_dd.obj
 0001:0004b4f8       $LN22                      0044c4f8     w32_dd.obj
 0001:0004b7e0       ?GetRapidJoy@@YIEHH@Z      0044c7e0 f   w32_kbd.obj
 0001:0004ba20       ?PollJoyKbd@@YIXHE@Z       0044ca20 f   w32_kbd.obj
 0001:0004bb30       ?PollJoySub@@YIEHE@Z       0044cb30 f   w32_kbd.obj
 0001:0004bc78       $LN65                      0044cc78     w32_kbd.obj
 0001:0004bc90       $LN66                      0044cc90     w32_kbd.obj
 0001:0004bca8       $LN67                      0044cca8     w32_kbd.obj
 0001:0004bcc0       $LN68                      0044ccc0     w32_kbd.obj
 0001:0004bce0       ?PushKeyCode@@YIXE@Z       0044cce0 f   w32_kbd.obj
 0001:0004bf04       $LN44                      0044cf04     w32_kbd.obj
 0001:0004c4d8       $LN22                      0044d4d8     w32_kbd.obj
 0001:0004ccb0       $LN170                     0044dcb0     w32_kbd.obj
 0001:0004ccc4       $LN171                     0044dcc4     w32_kbd.obj
 0001:0004ccd8       $LN172                     0044dcd8     w32_kbd.obj
 0001:0004ccec       $LN173                     0044dcec     w32_kbd.obj
 0001:0004cd00       $LN174                     0044dd00     w32_kbd.obj
 0001:0004e2c0       ?AddSnd@@YIXHH@Z           0044f2c0 f   w32_snd.obj
 0001:0004e390       ?FMReg_Dequeue@@YIXH@Z     0044f390 f   w32_snd.obj
 0001:0004e470       ?MixingSound@@YIXPAKHH@Z   0044f470 f   w32_snd.obj
 0001:0004ea20       ?ROMEO_ChangePrescaler@@YIXXZ 0044fa20 f   w32_snd.obj
 0001:00050c60       ?YMF288W@@YAXEEE@Z         00451c60 f   juliet.obj
 0001:00050d10       ?YMF288volset@@YAXEED@Z    00451d10 f   juliet.obj
 0001:00051b30       $$000000                   00452b30     LIBCMT:_ftol3_.obj
 0001:00051eb0       $$000000                   00452eb0     LIBCMT:chkstk.obj
 0001:00052080       $$000000                   00453080     LIBCMT:_svml_dpow2_dispatch_.obj
 0001:000520e6       ?pre_c_initialization@@YAHXZ 004530e6 f   LIBCMT:exe_winmain.obj
 0001:0005218a       ?post_pgo_initialization@@YAHXZ 0045318a f   LIBCMT:exe_winmain.obj
 0001:00052192       ?pre_cpp_initialization@@YAXXZ 00453192 f   LIBCMT:exe_winmain.obj
 0001:000521a4       ?__scrt_common_main_seh@@YAHXZ 004531a4 f   LIBCMT:exe_winmain.obj
 0001:00052320       _TestInt                   00453320 f   LIBCMT:_svml_dpow2_sse2_.obj
 0001:00052320       $$000000                   00453320     LIBCMT:_svml_dpow2_sse2_.obj
 0001:000523b0       __vmldPow_HA_scalar        004533b0 f   LIBCMT:_svml_dpow2_sse2_.obj
 0001:00052890       __raise_zerodivide         00453890 f   LIBCMT:_svml_dpow2_sse2_.obj
 0001:000528b0       _pow_scalar                004538b0 f   LIBCMT:_svml_dpow2_sse2_.obj
 0001:00053400       __raise_invalid            00454400 f   LIBCMT:_svml_dpow2_sse2_.obj
 0001:00053549       ?find_pe_section@@YAPAU_IMAGE_SECTION_HEADER@@QAEI@Z 00454549 f   LIBCMT:utility.obj
 0001:000537c4       ___get_entropy             004547c4 f   LIBCMT:gs_support.obj
 0001:00053ae0       $$000000                   00454ae0     LIBCMT:_sehprolg4_.obj
 0001:00053b50       $$000000                   00454b50     libvcruntime:memset.obj
 0001:00053cb0       $$000000                   00454cb0     libvcruntime:memcpy.obj
 0001:00053f14       TrailingUpVec              00454f14     libvcruntime:memcpy.obj
 0001:00053fc0       TrailingDownVec            00454fc0     libvcruntime:memcpy.obj
 0001:00054230       _ValidateLocalCookies      00455230 f   libvcruntime:_chandler4_.obj
 0001:00054510       $$000000                   00455510     libvcruntime:_exsup4_.obj
 0001:000545a0       __unwind_handler4          004555a0 f   libvcruntime:_exsup4_.obj
 0001:000547bc       ?try_get_first_available_module@@YAPAUHINSTANCE__@@QBW4module_id@?A0xb1b306fc@@0@Z 004557bc f   libvcruntime:winapi_downlevel.obj
 0001:00054882       ?try_get_function@@YAPAXW4function_id@?A0xb1b306fc@@QBDQBW4module_id@2@2@Z 00455882 f   libvcruntime:winapi_downlevel.obj
 0001:00054a90       $$000000                   00455a90     libvcruntime:_exsup_.obj
 0001:00054ab1       __unwind_handler           00455ab1 f   libvcruntime:_exsup_.obj
 0001:00054bf6       ??$common_localtime_s@_J@@YAHQAUtm@@QB_J@Z 00455bf6 f   libucrt:localtime.obj
 0001:00054ea4       ??$common_timespec_get@U_timespec64@@@@YAHQAU_timespec64@@H@Z 00455ea4 f   libucrt:time.obj
 0001:00054f80       $$000000                   00455f80     libucrt:pow_sse2_precise.obj
 0001:00055ad0       $$000000                   00456ad0     libucrt:strncat.obj
 0001:00055c10       $$000000                   00456c10     libucrt:strncpy.obj
 0001:00055d34       ??$common_splitpath_internal@DV<lambda_81dbc9fe9823f496b2e24900666b26ca>@@V<lambda_2fb3ae78730702381aca7250c89aa958>@@@@YAHQBDQAU?$component_buffers@D@?A0x95109fda@@V<lambda_81dbc9fe9823f496b2e24900666b26ca>@@V<lambda_2fb3ae78730702381aca7250c89aa958>@@@Z 00456d34 f   libucrt:splitpath.obj
 0001:00055f3a       ??$reset_buffers@DV<lambda_81dbc9fe9823f496b2e24900666b26ca>@@@@YAXQAU?$component_buffers@D@?A0x95109fda@@V<lambda_81dbc9fe9823f496b2e24900666b26ca>@@@Z 00456f3a f   libucrt:splitpath.obj
 0001:00055fe8       ??$common_vsprintf@Vstandard_base@__crt_stdio_output@@D@@YAH_KQADIQBDQAU__crt_locale_pointers@@1@Z 00456fe8 f   libucrt:output.obj
 0001:00056706       $LN54                      00457706     libucrt:output.obj
 0001:00056c22       $LN19                      00457c22     libucrt:output.obj
 0001:00057288       ??$common_fullpath_dynamic_buffer@D@@YAPADQBDIH0H@Z 00458288 f   libucrt:fullpath.obj
 0001:000572fe       ??$common_fullpath_user_buffer@D@@YAPADQADQBDI@Z 004582fe f   libucrt:fullpath.obj
 0001:000573af       ??$thread_start@P6GIPAX@Z@@YGKQAX@Z 004583af f   libucrt:thread.obj
 0001:0005742d       ??1?$__crt_unique_heap_ptr@U__acrt_thread_parameter@@Uthread_parameter_free_policy@?A0x4e93fcdd@@@@QAE@XZ 0045842d f   libucrt:thread.obj
 0001:00057464       ?common_end_thread@@YAXI@Z 00458464 f   libucrt:thread.obj
 0001:000574bb       ?create_thread_parameter@@YAPAU__acrt_thread_parameter@@QAX0@Z 004584bb f   libucrt:thread.obj
 0001:000575a0       ??$cleanup_after_error@D@@YAHQADI@Z 004585a0 f   libucrt:makepath.obj
 0001:000575c0       ??$common_makepath_s@D@@YAHQADIQBD111@Z 004585c0 f   libucrt:makepath.obj
 0001:00057a60       $$000000                   00458a60     libucrt:log_sse2_precise.obj
 0001:00057cf0       $$000000                   00458cf0     libucrt:sin_sse2_precise.obj
 0001:00057ec0       $$000000                   00458ec0     libucrt:floor_pentium4.obj
 0001:00057fc0       $$000000                   00458fc0     libucrt:log10_sse2_precise.obj
 0001:00058bf6       ??$common_configure_argv@D@@YAHW4_crt_argv_mode@@@Z 00459bf6 f   libucrt:argv_parsing.obj
 0001:00058d2c       ??$parse_command_line@D@@YAXPADPAPAD0PAI2@Z 00459d2c f   libucrt:argv_parsing.obj
 0001:00058efa       ??$common_get_or_create_environment_nolock@D@@YAPAPADXZ 00459efa f   libucrt:environment_initialization.obj
 0001:00058f26       ??$common_initialize_environment_nolock@D@@YAHXZ 00459f26 f   libucrt:environment_initialization.obj
 0001:00058f79       ??$create_environment@D@@YAQAPADQAD@Z 00459f79 f   libucrt:environment_initialization.obj
 0001:0005904a       ??$free_environment@_W@@YAXQAPA_W@Z 0045a04a f   libucrt:environment_initialization.obj
 0001:0005904a       ??$free_environment@D@@YAXQAPAD@Z 0045a04a f   libucrt:environment_initialization.obj
 0001:00059079       ??$initialize_environment_by_cloning_nolock@D@@YAHXZ 0045a079 f   libucrt:environment_initialization.obj
 0001:00059138       ??$uninitialize_environment_internal@D@@YAXAAPAPAD@Z 0045a138 f   libucrt:environment_initialization.obj
 0001:00059153       ??$uninitialize_environment_internal@_W@@YAXAAPAPA_W@Z 0045a153 f   libucrt:environment_initialization.obj
 0001:000592a3       ??$?RV<lambda_03b1d95aef87969028cfba75ccab2455>@@AAV<lambda_6e4b09c48022b2350581041d5f6b0c4c>@@V<lambda_22bdf7517842c4b3e53723af5aa32b9e>@@@?$__crt_seh_guarded_call@X@@QAEX$$QAV<lambda_03b1d95aef87969028cfba75ccab2455>@@AAV<lambda_6e4b09c48022b2350581041d5f6b0c4c>@@$$QAV<lambda_22bdf7517842c4b3e53723af5aa32b9e>@@@Z 0045a2a3 f   libucrt:exit.obj
 0001:00059305       ??R<lambda_6e4b09c48022b2350581041d5f6b0c4c>@@QBE@XZ 0045a305 f   libucrt:exit.obj
 0001:000593e1       ?atexit_exception_filter@@YAHK@Z 0045a3e1 f   libucrt:exit.obj
 0001:000593f4       ?common_exit@@YAXHW4_crt_exit_cleanup_mode@@W4_crt_exit_return_mode@@@Z 0045a3f4 f   libucrt:exit.obj
 0001:0005945a       ?exit_or_terminate_process@@YAXI@Z 0045a45a f   libucrt:exit.obj
 0001:0005949c       ?is_managed_app@@YA_NXZ    0045a49c f   libucrt:exit.obj
 0001:000594e0       ?try_cor_exit_process@@YAXI@Z 0045a4e0 f   libucrt:exit.obj
 0001:00059715       ??$?RV<lambda_e5124f882df8998aaf41531e079ba474>@@AAV<lambda_3e16ef9562a7dcce91392c22ab16ea36>@@V<lambda_e25ca0880e6ef98be67edffd8c599615>@@@?$__crt_seh_guarded_call@X@@QAEX$$QAV<lambda_e5124f882df8998aaf41531e079ba474>@@AAV<lambda_3e16ef9562a7dcce91392c22ab16ea36>@@$$QAV<lambda_e25ca0880e6ef98be67edffd8c599615>@@@Z 0045a715 f   libucrt:wsetlocale.obj
 0001:0005984a       ??$?RV<lambda_69a2805e680e0e292e8ba93315fe43a8>@@AAV<lambda_f03950bc5685219e0bcd2087efbe011e>@@V<lambda_03fcd07e894ec930e3f35da366ca99d6>@@@?$__crt_seh_guarded_call@H@@QAEH$$QAV<lambda_69a2805e680e0e292e8ba93315fe43a8>@@AAV<lambda_f03950bc5685219e0bcd2087efbe011e>@@$$QAV<lambda_03fcd07e894ec930e3f35da366ca99d6>@@@Z 0045a84a f   libucrt:onexit.obj
 0001:0005989b       ??$?RV<lambda_7ac4055421038abea736e08bd20712a4>@@AAV<lambda_a10e4b102d4a2c3aac6f4f48bbdf488f>@@V<lambda_1da61822885009acd1bf848af4f9644b>@@@?$__crt_seh_guarded_call@H@@QAEH$$QAV<lambda_7ac4055421038abea736e08bd20712a4>@@AAV<lambda_a10e4b102d4a2c3aac6f4f48bbdf488f>@@$$QAV<lambda_1da61822885009acd1bf848af4f9644b>@@@Z 0045a89b f   libucrt:onexit.obj
 0001:000598ec       ??R<lambda_a10e4b102d4a2c3aac6f4f48bbdf488f>@@QBEHXZ 0045a8ec f   libucrt:onexit.obj
 0001:00059a2d       ??R<lambda_f03950bc5685219e0bcd2087efbe011e>@@QBEHXZ 0045aa2d f   libucrt:onexit.obj
 0001:00059c08       _initialize_global_variables 0045ac08 f   libucrt:initialization.obj
 0001:00059c15       _initialize_c              0045ac15 f   libucrt:initialization.obj
 0001:00059c2f       _uninitialize_environment  0045ac2f f   libucrt:initialization.obj
 0001:00059c37       _initialize_pointers       0045ac37 f   libucrt:initialization.obj
 0001:00059c74       _uninitialize_vcruntime    0045ac74 f   libucrt:initialization.obj
 0001:00059c7d       _uninitialize_allocated_memory 0045ac7d f   libucrt:initialization.obj
 0001:00059c96       _uninitialize_allocated_io_buffers 0045ac96 f   libucrt:initialization.obj
 0001:00059ce6       ??R<lambda_af42a3ee9806e9a7305d451646e05244>@@QBEXAAPAU__crt_multibyte_data@@@Z 0045ace6 f   libucrt:initialization.obj
 0001:00059f7c       ??$?RV<lambda_218ce3db14220d0be481dae8ef3383b6>@@AAV<lambda_628dfdc04ba53c8bfc02c9951375f3f5>@@V<lambda_57dc472bd5c9d5f3b2cbca59b8a843ae>@@@?$__crt_seh_guarded_call@H@@QAEH$$QAV<lambda_218ce3db14220d0be481dae8ef3383b6>@@AAV<lambda_628dfdc04ba53c8bfc02c9951375f3f5>@@$$QAV<lambda_57dc472bd5c9d5f3b2cbca59b8a843ae>@@@Z 0045af7c f   libucrt:close.obj
 0001:0005a129       ??$common_lseek@J@@YAJHJH@Z 0045b129 f   libucrt:lseek.obj
 0001:0005a211       ??$common_lseek_nolock@J@@YAJHJH@Z 0045b211 f   libucrt:lseek.obj
 0001:0005a268       ??$common_lseek_nolock@_J@@YA_JH_JH@Z 0045b268 f   libucrt:lseek.obj
 0001:0005a2e6       ?common_lseek_do_seek_nolock@@YAJQAXJH@Z 0045b2e6 f   libucrt:lseek.obj
 0001:0005a390       ??$common_open@D@@YAHQBDHH@Z 0045b390 f   libucrt:open.obj
 0001:0005a43a       ?configure_text_mode@@YAHHUfile_options@?A0xa9d50aae@@HAAW4__crt_lowio_text_mode@@@Z 0045b43a f   libucrt:open.obj
 0001:0005a683       ?create_file@@YAPAXQB_WQAU_SECURITY_ATTRIBUTES@@Ufile_options@?A0xa9d50aae@@@Z 0045b683 f   libucrt:open.obj
 0001:0005a6a8       ?decode_open_create_flags@@YAKH@Z 0045b6a8 f   libucrt:open.obj
 0001:0005a718       ?decode_options@@YA?AUfile_options@?A0xa9d50aae@@HHH@Z 0045b718 f   libucrt:open.obj
 0001:0005a894       ?truncate_ctrl_z_if_present@@YAHH@Z 0045b894 f   libucrt:open.obj
 0001:0005acd6       ??$translate_text_mode_nolock@D@@YAHHQADI@Z 0045bcd6 f   libucrt:read.obj
 0001:0005ae22       ??$translate_text_mode_nolock@_W@@YAHHQA_WI@Z 0045be22 f   libucrt:read.obj
 0001:0005afca       ?translate_ansi_or_utf8_nolock@@YAHHQADIQA_WI@Z 0045bfca f   libucrt:read.obj
 0001:0005b121       ?translate_utf16_from_console_nolock@@YAHHQA_WI@Z 0045c121 f   libucrt:read.obj
 0001:0005b66c       ?write_double_translated_ansi_nolock@@YA?AUwrite_result@?A0x17268360@@HQBDI@Z 0045c66c f   libucrt:write.obj
 0001:0005b830       ?write_double_translated_unicode_nolock@@YA?AUwrite_result@?A0x17268360@@QBDI@Z 0045c830 f   libucrt:write.obj
 0001:0005b89d       ?write_requires_double_translation_nolock@@YA_NH@Z 0045c89d f   libucrt:write.obj
 0001:0005b913       ?write_text_ansi_nolock@@YA?AUwrite_result@?A0x17268360@@HQBDI@Z 0045c913 f   libucrt:write.obj
 0001:0005b9f2       ?write_text_utf16le_nolock@@YA?AUwrite_result@?A0x17268360@@HQBDI@Z 0045c9f2 f   libucrt:write.obj
 0001:0005bae0       ?write_text_utf8_nolock@@YA?AUwrite_result@?A0x17268360@@HQBDI@Z 0045cae0 f   libucrt:write.obj
 0001:0005c4c0       ??$common_gmtime_s@_J@@YAHQAUtm@@QB_J@Z 0045d4c0 f   libucrt:gmtime.obj
 0001:0005c60c       ?compute_year@@YAHAA_JAA_N@Z 0045d60c f   libucrt:gmtime.obj
 0001:0005c6f1       ?_isindst_nolock@@YAHQAUtm@@@Z 0045d6f1 f   libucrt:tzset.obj
 0001:0005c8d8       ?cvtdate@@YAXW4transition_type@?A0x7639d0b4@@W4date_type@2@HHHHHHHHH@Z 0045d8d8 f   libucrt:tzset.obj
 0001:0005ca27       ?tzset_from_environment_nolock@@YAXPAD@Z 0045da27 f   libucrt:tzset.obj
 0001:0005cbfa       ?tzset_from_system_nolock@@YAXXZ 0045dbfa f   libucrt:tzset.obj
 0001:0005cd55       ?tzset_nolock@@YAXXZ       0045dd55 f   libucrt:tzset.obj
 0001:0005ced0       ?try_get_AreFileApisANSI@@YAP6GHXZXZ 0045ded0 f   libucrt:winapi_thunks.obj
 0001:0005ceea       ?try_get_CompareStringEx@@YAP6GHPB_WK0H0HPAU_nlsversioninfo@@PAXJ@ZXZ 0045deea f   libucrt:winapi_thunks.obj
 0001:0005cf04       ?try_get_LCMapStringEx@@YAP6GHPB_WK0HPA_WHPAU_nlsversioninfo@@PAXJ@ZXZ 0045df04 f   libucrt:winapi_thunks.obj
 0001:0005cf1e       ?try_get_LocaleNameToLCID@@YAP6GKPB_WK@ZXZ 0045df1e f   libucrt:winapi_thunks.obj
 0001:0005cf38       ?try_get_first_available_module@@YAPAUHINSTANCE__@@QBW4module_id@?A0x391cf84c@@0@Z 0045df38 f   libucrt:winapi_thunks.obj
 0001:0005d000       ?try_get_function@@YAPAXW4function_id@?A0x391cf84c@@QBDQBW4module_id@2@2@Z 0045e000 f   libucrt:winapi_thunks.obj
 0001:0005d7e0       $$000000                   0045e7e0     libucrt:pow_impl.obj
 0001:0005da29       ??$common_tcsncpy_s@D@@YAHQADIQBDI@Z 0045ea29 f   libucrt:strncpy_s.obj
 0001:0005dae5       ?x_ismbbtype_l@@YAHPAU__crt_locale_pointers@@IHH@Z 0045eae5 f   libucrt:ismbbyte.obj
 0001:0005dbbb       ??$common_tox_l@$1?internal_isupper_l@@YA_NHQAU__crt_locale_pointers@@@Z$1?internal_map_lower@@YAHH0@Z@@YAHHKQAU__crt_locale_pointers@@@Z 0045ebbb f   libucrt:tolower_toupper.obj
 0001:0005dd05       ?internal_isupper_l@@YA_NHQAU__crt_locale_pointers@@@Z 0045ed05 f   libucrt:tolower_toupper.obj
 0001:0005e290       ??$?RV<lambda_15ade71b0218206bbe3333a0c9b79046>@@AAV<lambda_da44e0f8b0f19ba52fefafb335991732>@@V<lambda_207f2d024fc103971653565357d6cd41>@@@?$__crt_seh_guarded_call@X@@QAEX$$QAV<lambda_15ade71b0218206bbe3333a0c9b79046>@@AAV<lambda_da44e0f8b0f19ba52fefafb335991732>@@$$QAV<lambda_207f2d024fc103971653565357d6cd41>@@@Z 0045f290 f   libucrt:per_thread_data.obj
 0001:0005e2d8       ??$?RV<lambda_38edbb1296d33220d7e4dd0ed76b244a>@@AAV<lambda_5ce1d447e08cb34b2473517608e21441>@@V<lambda_fb385d3da700c9147fc39e65dd577a8c>@@@?$__crt_seh_guarded_call@X@@QAEX$$QAV<lambda_38edbb1296d33220d7e4dd0ed76b244a>@@AAV<lambda_5ce1d447e08cb34b2473517608e21441>@@$$QAV<lambda_fb385d3da700c9147fc39e65dd577a8c>@@@Z 0045f2d8 f   libucrt:per_thread_data.obj
 0001:0005e339       ??$?RV<lambda_6affb1475c98b40b75cdec977db92e3c>@@AAV<lambda_b8d4b9c228a6ecc3f80208dbb4b4a104>@@V<lambda_608742c3c92a14382c1684fc64f96c88>@@@?$__crt_seh_guarded_call@X@@QAEX$$QAV<lambda_6affb1475c98b40b75cdec977db92e3c>@@AAV<lambda_b8d4b9c228a6ecc3f80208dbb4b4a104>@@$$QAV<lambda_608742c3c92a14382c1684fc64f96c88>@@@Z 0045f339 f   libucrt:per_thread_data.obj
 0001:0005e384       ??$?RV<lambda_a7e850c220f1c8d1e6efeecdedd162c6>@@AAV<lambda_46720907175c18b6c9d2717bc0d2d362>@@V<lambda_9048902d66e8d99359bc9897bbb930a8>@@@?$__crt_seh_guarded_call@X@@QAEX$$QAV<lambda_a7e850c220f1c8d1e6efeecdedd162c6>@@AAV<lambda_46720907175c18b6c9d2717bc0d2d362>@@$$QAV<lambda_9048902d66e8d99359bc9897bbb930a8>@@@Z 0045f384 f   libucrt:per_thread_data.obj
 0001:0005e3d4       ?construct_ptd@@YAXQAU__acrt_ptd@@QAPAU__crt_locale_data@@@Z 0045f3d4 f   libucrt:per_thread_data.obj
 0001:0005e46f       ?destroy_fls@@YGXPAX@Z     0045f46f f   libucrt:per_thread_data.obj
 0001:0005e490       ?destroy_ptd@@YAXQAU__acrt_ptd@@@Z 0045f490 f   libucrt:per_thread_data.obj
 0001:0005e55f       ?replace_current_thread_locale_nolock@@YAXQAU__acrt_ptd@@QAU__crt_locale_data@@@Z 0045f55f f   libucrt:per_thread_data.obj
 0001:0005e8b4       ?fp_format_a@@YAHQBNPADIQADIH_NIQAU__crt_locale_pointers@@@Z 0045f8b4 f   libucrt:cvt.obj
 0001:0005ebc1       ?fp_format_e@@YAHQBNQADI1IH_NIQAU__crt_locale_pointers@@@Z 0045fbc1 f   libucrt:cvt.obj
 0001:0005ec65       ?fp_format_e_internal@@YAHQADIH_NIQAU_strflt@@1QAU__crt_locale_pointers@@@Z 0045fc65 f   libucrt:cvt.obj
 0001:0005edaf       ?fp_format_f@@YAHQBNQADI1IHQAU__crt_locale_pointers@@@Z 0045fdaf f   libucrt:cvt.obj
 0001:0005ee3c       ?fp_format_f_internal@@YAHQADIHQAU_strflt@@_NQAU__crt_locale_pointers@@@Z 0045fe3c f   libucrt:cvt.obj
 0001:0005ef25       ?fp_format_g@@YAHQBNQADI1IH_NIQAU__crt_locale_pointers@@@Z 0045ff25 f   libucrt:cvt.obj
 0001:0005efe8       ?fp_format_nan_or_infinity@@YAHW4__acrt_fp_class@@_NPADI1@Z 0045ffe8 f   libucrt:cvt.obj
 0001:0005f0dd       ?shift_bytes@@YAXQADI0H@Z  004600dd f   libucrt:cvt.obj
 0001:0005f3c1       ?initialize_inherited_file_handles_nolock@@YAXXZ 004603c1 f   libucrt:ioinit.obj
 0001:0005f479       ?initialize_stdio_handles_nolock@@YAXXZ 00460479 f   libucrt:ioinit.obj
 0001:0005f5af       ??$common_getdcwd@D@@YAPADHQADHHQBDH@Z 004605af f   libucrt:getcwd.obj
 0001:0005f670       ??$common_getdcwd_dynamic_buffer@D@@YAPADQADIHQBDH@Z 00460670 f   libucrt:getcwd.obj
 0001:0005f6f1       ??$common_getdcwd_user_buffer@D@@YAPADQAD0I@Z 004606f1 f   libucrt:getcwd.obj
 0001:0005f74b       ?is_valid_drive@@YAHI@Z    0046074b f   libucrt:getcwd.obj
 0001:0005fa60       $$000000                   00460a60     libucrt:log_impl.obj
 0001:0005fb70       $$000000                   00460b70     libucrt:sin_impl.obj
 0001:0005fd20       $$000000                   00460d20     libucrt:log10_impl.obj
 0001:00060153       ?<lambda_invoker_cdecl>@<lambda_86056e3c024bff449830248dc1621ed2>@@CAHPBX0@Z 00461153 f   libucrt:argv_wildcards.obj
 0001:0006016b       ??$common_expand_argv_wildcards@D@@YAHQAPADQAPAPAD@Z 0046116b f   libucrt:argv_wildcards.obj
 0001:0006034b       ??$copy_and_add_argument_to_buffer@D@@YAHQBD0IAAV?$argument_list@D@?A0x5f5c8891@@@Z 0046134b f   libucrt:argv_wildcards.obj
 0001:000603fe       ??$expand_argument_wildcards@D@@YAHQAD0AAV?$argument_list@D@?A0x5f5c8891@@@Z 004613fe f   libucrt:argv_wildcards.obj
 0001:0006057e       ?expand_if_necessary@?$argument_list@D@?A0x5f5c8891@@AAEHXZ 0046157e f   libucrt:argv_wildcards.obj
 0001:00060610       ??$?RV<lambda_ceb1ee4838e85a9d631eb091e2fbe199>@@AAV<lambda_ae742caa10f662c28703da3d2ea5e57e>@@V<lambda_cd08b5d6af4937fe54fc07d0c9bf6b37>@@@?$__crt_seh_guarded_call@X@@QAEX$$QAV<lambda_ceb1ee4838e85a9d631eb091e2fbe199>@@AAV<lambda_ae742caa10f662c28703da3d2ea5e57e>@@$$QAV<lambda_cd08b5d6af4937fe54fc07d0c9bf6b37>@@@Z 00461610 f   libucrt:mbctype.obj
 0001:00060653       ??R<lambda_ae742caa10f662c28703da3d2ea5e57e>@@QBEXXZ 00461653 f   libucrt:mbctype.obj
 0001:000606d6       ?CPtoLocaleName@@YAPB_WH@Z 004616d6 f   libucrt:mbctype.obj
 0001:00060714       ?getSystemCP@@YAHH@Z       00461714 f   libucrt:mbctype.obj
 0001:00060787       ?setSBCS@@YAXPAU__crt_multibyte_data@@@Z 00461787 f   libucrt:mbctype.obj
 0001:000607ec       ?setSBUpLow@@YAXPAU__crt_multibyte_data@@@Z 004617ec f   libucrt:mbctype.obj
 0001:00060980       ?setmbcp_internal@@YAHH_NQAU__acrt_ptd@@QAPAU__crt_multibyte_data@@@Z 00461980 f   libucrt:mbctype.obj
 0001:00060a9b       ?update_thread_multibyte_data_internal@@YAPAU__crt_multibyte_data@@QAU__acrt_ptd@@QAPAU1@@Z 00461a9b f   libucrt:mbctype.obj
 0001:00060d9c       _uninitialize_c            00461d9c f   libucrt:initialization.obj
 0001:00060d9c       _initialize_global_state_isolation 00461d9c f   libucrt:initialization.obj
 0001:00060d9c       _initialize_environment    00461d9c f   libucrt:initialization.obj
 0001:00060d9c       _report_memory_leaks       00461d9c f   libucrt:initialization.obj
 0001:00060d9c       _uninitialize_global_state_isolation 00461d9c f   libucrt:initialization.obj
 0001:00060d9f       ?find_end_of_double_null_terminated_sequence@@YAPB_WQB_W@Z 00461d9f f   libucrt:get_environment_from_os.obj
 0001:00060e59       ??$common_set_variable_in_environment_nolock@D@@YAHQADH@Z 00461e59 f   libucrt:setenv.obj
 0001:00061098       ??$copy_environment@D@@YAPAPADQAPAD@Z 00462098 f   libucrt:setenv.obj
 0001:00061149       ??$ensure_current_environment_is_not_initial_environment_nolock@D@@YAXXZ 00462149 f   libucrt:setenv.obj
 0001:00061163       ??$find_in_environment_nolock@D@@YAHQBDI@Z 00462163 f   libucrt:setenv.obj
 0001:00061771       ?free_crt_array_internal@@YAXQAPBXI@Z 00462771 f   libucrt:inittime.obj
 0001:00061ea0       ??$?RV<lambda_cbab9ec6f41b0180b23cc171c22676b0>@@AAV<lambda_44731a7d0e6d81c3e6aa82d741081786>@@V<lambda_4b292cb8dd18144e164572427af410ab>@@@?$__crt_seh_guarded_call@P6AXH@Z@@QAEP6AXH@Z$$QAV<lambda_cbab9ec6f41b0180b23cc171c22676b0>@@AAV<lambda_44731a7d0e6d81c3e6aa82d741081786>@@$$QAV<lambda_4b292cb8dd18144e164572427af410ab>@@@Z 00462ea0 f   libucrt:signal.obj
 0001:00061efa       ?get_global_action_nolock@@YAPAP6AXH@ZH@Z 00462efa f   libucrt:signal.obj
 0001:00061f3c       ?siglookup@@YAPAU__crt_signal_action_t@@HQAU1@@Z 00462f3c f   libucrt:signal.obj
 0001:000621aa       ??$?RV<lambda_2866be3712abc81a800a822484c830d8>@@AAV<lambda_39ca0ed439415581b5b15c265174cece>@@V<lambda_2b24c74d71094a6cd0cb82e44167d71b>@@@?$__crt_seh_guarded_call@X@@QAEX$$QAV<lambda_2866be3712abc81a800a822484c830d8>@@AAV<lambda_39ca0ed439415581b5b15c265174cece>@@$$QAV<lambda_2b24c74d71094a6cd0cb82e44167d71b>@@@Z 004631aa f   libucrt:fflush.obj
 0001:0006222b       ??$?RV<lambda_2cc53f568c5a2bb6f192f930a45d44ea>@@AAV<lambda_ab61a845afdef5b7c387490eaf3616ee>@@V<lambda_c2ffc0b7726aa6be21d5f0026187e748>@@@?$__crt_seh_guarded_call@X@@QAEX$$QAV<lambda_2cc53f568c5a2bb6f192f930a45d44ea>@@AAV<lambda_ab61a845afdef5b7c387490eaf3616ee>@@$$QAV<lambda_c2ffc0b7726aa6be21d5f0026187e748>@@@Z 0046322b f   libucrt:fflush.obj
 0001:000622cd       ?common_flush_all@@YAH_N@Z 004632cd f   libucrt:fflush.obj
 0001:0006231c       ?common_flush_all_should_try_to_flush_stream@@YA_NV__crt_stdio_stream@@QAH@Z 0046331c f   libucrt:fflush.obj
 0001:0006234e       ?is_stream_flushable_or_commitable@@YA_NJ@Z 0046334e f   libucrt:fflush.obj
 0001:00062424       ___hw_cw_sse2              00463424 f   libucrt:ieee87.obj
 0001:000628ab       __hw_cw                    004638ab f   libucrt:ieee87.obj
 0001:00062ceb       ??$common_getenv_nolock@D@@YAPADQBD@Z 00463ceb f   libucrt:getenv.obj
 0001:00062d5b       ??$common_getenv_s@D@@YAHQAIQADIQBD@Z 00463d5b f   libucrt:getenv.obj
 0001:00062db0       ??$common_getenv_s_nolock@D@@YAHQAIQADIQBD@Z 00463db0 f   libucrt:getenv.obj
 0001:00062e63       ?GetTableIndexFromLocaleName@@YAHPB_W@Z 00463e63 f   libucrt:lcidtoname_downlevel.obj
 0001:00062f50       $$000000                   00463f50     libucrt:pow_pentium4.obj
 0001:00063a70       $$000000                   00464a70     libucrt:87tran.obj
 0001:00063c70       $$000000                   00464c70     libucrt:87disp.obj
 0001:00063e70       $$000000                   00464e70     libucrt:genexcep.obj
 0001:00063ed0       $$000000                   00464ed0     libucrt:common.obj
 0001:0006422a       ?__acrt_LCMapStringA_stat@@YAHPAU__crt_locale_pointers@@PB_WKPBDHPADHHH@Z 0046522a f   libucrt:lcmapstringa.obj
 0001:00065d75       _memcpy_s                  00466d75 f   libucrt:cfout.obj
 0001:00065d75       _memcpy_s                  00466d75 f   libucrt:mbctype.obj
 0001:00065ed4       ?get_drive_number_from_path@@YAHQB_W@Z 00466ed4 f   libucrt:drive.obj
 0001:00065fb0       $$000000                   00466fb0     libucrt:log_pentium4.obj
 0001:00066220       $$000000                   00467220     libucrt:sin_pentium4.obj
 0001:00066400       $$000000                   00467400     libucrt:log10_pentium4.obj
 0001:00066690       ?swap@@YAXPAD0I@Z          00467690 f   libucrt:qsort.obj
 0001:00066b20       $$000000                   00467b20     libucrt:strpbrk.obj
 0001:00066b60       ?initialize_multibyte@@YAHXZ 00467b60 f   libucrt:multibyte_initializer.obj
 0001:00066ca0       ??$?RV<lambda_9e9de3de5fa147e2223d7db92bc10aa6>@@AAV<lambda_38ce7e780aa69e748d6df282ebc68efe>@@V<lambda_8ca6da459f0f6780f1cff60fdc3d00e5>@@@?$__crt_seh_guarded_call@H@@QAEH$$QAV<lambda_9e9de3de5fa147e2223d7db92bc10aa6>@@AAV<lambda_38ce7e780aa69e748d6df282ebc68efe>@@$$QAV<lambda_8ca6da459f0f6780f1cff60fdc3d00e5>@@@Z 00467ca0 f   libucrt:commit.obj
 0001:00066db7       ?__dcrt_lowio_initialize_console_output@@YAXXZ 00467db7 f   libucrt:initcon.obj
 0001:000670f0       $$000000                   004680f0     libucrt:ceil_pentium4.obj
 0001:00067420       ?InternalCompareStringA@@YAHPAU__crt_locale_pointers@@PB_WKPBDH2HH@Z 00468420 f   libucrt:comparestringa.obj
 0001:000676db       ??$translate_control_exception_mask@W4__acrt_fenv_machine_sse_control@@W4__acrt_fenv_abstract_control@@@@YA?AW4__acrt_fenv_machine_sse_control@@W4__acrt_fenv_abstract_control@@@Z 004686db f   libucrt:_fenvutils.obj
 0001:00067764       ?to_abstract_control@@YA?AW4__acrt_fenv_abstract_control@@W4__acrt_fenv_machine_sse_control@@@Z 00468764 f   libucrt:_fenvutils.obj
 0001:00067820       ?to_abstract_control@@YA?AW4__acrt_fenv_abstract_control@@W4__acrt_fenv_machine_x87_control@@@Z 00468820 f   libucrt:_fenvutils.obj
 0001:000678dd       ?to_machine_sse_control@@YA?AW4__acrt_fenv_machine_sse_control@@W4__acrt_fenv_abstract_control@@@Z 004688dd f   libucrt:_fenvutils.obj
 0001:00067971       ?to_machine_x87_control@@YA?AW4__acrt_fenv_machine_x87_control@@W4__acrt_fenv_abstract_control@@@Z 00468971 f   libucrt:_fenvutils.obj
 0001:00067e00       $$000000                   00468e00     libucrt:_strnicm.obj
 0001:00067fc0       $$000000                   00468fc0     LIBCMT:ulldvrm.obj
 0001:00068060       $$000000                   00469060     LIBCMT:lldiv.obj
 0001:00068110       $$000000                   00469110     LIBCMT:llrem.obj
 0001:000681d0       $$000000                   004691d0     LIBCMT:lldvrm.obj
 0001:000682b0       $$000000                   004692b0     LIBCMT:_sehprolg4gs_.obj
 0001:00068310       $$000000                   00469310     LIBCMT:llmul.obj
 0001:00068350       $$000000                   00469350     LIBCMT:ullshr.obj
 0001:00068370       $$000000                   00469370     LIBCMT:alloca16.obj
 0001:000683a0       $$000000                   004693a0     LIBCMT:llshl.obj
 0001:000683c0       $$000000                   004693c0     LIBCMT:_ftol2_.obj
 0001:00068480       $$000000                   00469480     libvcruntime:memmove.obj
 0001:000686e4       TrailingUpVec              004696e4     libvcruntime:memmove.obj
 0001:00068790       TrailingDownVec            00469790     libvcruntime:memmove.obj
 0001:00068a00       $$000000                   00469a00     libvcruntime:strrchr.obj
 0001:00068b40       $$000000                   00469b40     libvcruntime:strchr.obj
 0002:00000470       ?pre_cpp_initializer@@3P6AXXZA 0046a470     LIBCMT:exe_winmain.obj
 0002:0000047c       ?pre_c_initializer@@3P6AHXZA 0046a47c     LIBCMT:exe_winmain.obj
 0002:00000480       ?post_pgo_initializer@@3P6AHXZA 0046a480     LIBCMT:exe_winmain.obj
 0002:00000760       ?max_x@?1??window_clip@@9@9 0046a760     display.obj
 0002:00000768       ?max_y@?1??window_clip@@9@9 0046a768     display.obj
 0002:000007b0       _fdc_steprate              0046a7b0     fdc.obj
 0002:000007f8       ?jis78_table@?1??kanji_make_jis78@@9@9 0046a7f8     kanji.obj
 0002:00000858       ?convert_table@?1??kanji_make_jis78@@9@9 0046a858     kanji.obj
 0002:00000950       _key_hidden_message        0046a950     keyboard.obj
 0002:00000a4c       _bootpatch1                0046aa4c     mainmem.obj
 0002:00000a78       _bootpatch2                0046aa78     mainmem.obj
 0002:00000ac8       ?opn_bitmask@?1??opn_readreg@@9@9 0046aac8     opn.obj
 0002:00000b60       ?dummyipl@?1??make_new_userdisk@@9@9 0046ab60     tools.obj
 0002:00000c68       ?JoyTable@?1??LoadCfg@@9@9 0046ac68     w32_cfg.obj
 0002:00000c84       _JoyPageComboTable         0046ac84     w32_cfg.obj
 0002:00000ca0       _PageHelpList              0046aca0     w32_cfg.obj
 0002:00000dcc       ?uHeaderTable@?1??KbdPageInitColumn@@9@9 0046adcc     w32_cfg.obj
 0002:00000ddc       _JoyPageCodeTable          0046addc     w32_cfg.obj
 0002:00001bd0       _dwBaudrateSlow            0046bbd0     w32_comm.obj
 0002:00001bf0       _dwBaudrateFast            0046bbf0     w32_comm.obj
 0002:00002030       ?x_table@?1??KbdOPNDisp@@9@9 0046c030     w32_sub2.obj
 0002:00002060       ?type_table@?1??KbdOPNDisp@@9@9 0046c060     w32_sub2.obj
 0002:00002090       _pitch_table               0046c090     w32_sub2.obj
 0002:00002398       _rgbOPNDisp                0046c398     w32_sub2.obj
 0002:00002ca0       _Palet16Tc                 0046cca0     w32_sub3.obj
 0002:000036b8       ?pms@?1??MakeLFOTable@FM@@YAXXZ@4QAY07$$CBNA 0046d6b8     fmgen.obj
 0002:00003738       ?amt@?1??MakeLFOTable@FM@@YAXXZ@4QAY03$$CBEA 0046d738     fmgen.obj
 0002:00003740       ?dt2lv@?1??MakeTable@Chip@FM@@AAEXXZ@4QBMB 0046d740     fmgen.obj
 0002:00003750       ?table1@?1??SetAlgorithm@Channel4@FM@@QAIXI@Z@4QAY05$$CBEA 0046d750     fmgen.obj
 0002:00003828       ?slottable@?1??SetParameter@OPNBase@FM@@IAEXPAVChannel4@3@II@Z@4QBIB 0046d828     opna.obj
 0002:00003838       ?sltable@?1??SetParameter@OPNBase@FM@@IAEXPAVChannel4@3@II@Z@4QBEB 0046d838     opna.obj
 0002:00003848       ?table@?1??SetPrescaler@OPNBase@FM@@IAEXI@Z@4QAY01$$CBDA 0046d848     opna.obj
 0002:000038d8       ?rgbTable@?1??Palet640@@YIXXZ@4QBGB 0046d8d8     w32_dd.obj
 0002:00003918       ?DI_keyno@@3QBEB           0046d918     w32_kbd.obj
 0002:0000391c       ?JoyRapidCounter@@3QBEB    0046d91c     w32_kbd.obj
 0002:00003964       ?nChannelMaskBit@@3QBGB    0046d964     w32_snd.obj
 0002:000039d0       ?dllproc@@3QBUDLLPROCESS@@B 0046d9d0     juliet.obj
 0002:00003a10       ?FMoutop@@3QBEB            0046da10     juliet.obj
 0002:00003b90       _GS_ExceptionPointers      0046db90     LIBCMT:gs_report.obj
 0002:00003ba0       _Int32ToUInt32             0046dba0     LIBCMT:_ftol3_.obj
 0002:00003ba8       _DP2to32                   0046dba8     LIBCMT:_ftol3_.obj
 0002:00003bb0       _MantissaMask              0046dbb0     LIBCMT:_ftol3_.obj
 0002:00003bb8       _IntegerBit                0046dbb8     LIBCMT:_ftol3_.obj
 0002:00003bc0       _SignBit64                 0046dbc0     LIBCMT:_ftol3_.obj
 0002:00003bc8       _MinFP64                   0046dbc8     LIBCMT:_ftol3_.obj
 0002:00003bd0       _MinInt64                  0046dbd0     LIBCMT:_ftol3_.obj
 0002:00003bd8       _MaxInt64                  0046dbd8     LIBCMT:_ftol3_.obj
 0002:00003be0       _MaxUInt64                 0046dbe0     LIBCMT:_ftol3_.obj
 0002:00003be8       _MaxFP32                   0046dbe8     LIBCMT:_ftol3_.obj
 0002:00003bf0       _MinFP32                   0046dbf0     LIBCMT:_ftol3_.obj
 0002:00003bf8       _MinSubInexact             0046dbf8     LIBCMT:_ftol3_.obj
 0002:00003c00       _FpExcptTable              0046dc00     LIBCMT:_ftol3_.obj
 0002:00003c10       _i1075                     0046dc10     LIBCMT:_ftol3_.obj
 0002:00003c14       _i1087                     0046dc14     LIBCMT:_ftol3_.obj
 0002:00003c18       _x0800                     0046dc18     LIBCMT:_ftol3_.obj
 0002:00003c1c       _x17FF                     0046dc1c     LIBCMT:_ftol3_.obj
 0002:00003c20       _CWMask                    0046dc20     LIBCMT:_ftol3_.obj
 0002:00003c30       _static_const_table        0046dc30     LIBCMT:_svml_dpow2_sse2_.obj
 0002:0000a6c0       _2il0floatpacket_5         004746c0     LIBCMT:_svml_dpow2_sse2_.obj
 0002:0000a6c8       _2il0floatpacket_6         004746c8     LIBCMT:_svml_dpow2_sse2_.obj
 0002:0000a72c       ?ExceptionTemplate@?1??_CxxThrowException@@9@8@4UEHExceptionRecord@@B 0047472c     libvcruntime:throw.obj
 0002:0000a74c       ?module_names@?A0xb1b306fc@@3QBQB_WB 0047474c     libvcruntime:winapi_downlevel.obj
 0002:0000a804       ?candidate_modules@?1??try_get_FlsAlloc@@YAP6GKP6GXPAX@Z@ZXZ@4QBW4module_id@?A0xb1b306fc@@B 00474804     libvcruntime:winapi_downlevel.obj
 0002:0000a818       ?candidate_modules@?1??try_get_FlsFree@@YAP6GHK@ZXZ@4QBW4module_id@?A0xb1b306fc@@B 00474818     libvcruntime:winapi_downlevel.obj
 0002:0000a834       ?candidate_modules@?1??try_get_FlsSetValue@@YAP6GHKPAX@ZXZ@4QBW4module_id@?A0xb1b306fc@@B 00474834     libvcruntime:winapi_downlevel.obj
 0002:0000a848       ?candidate_modules@?1??try_get_InitializeCriticalSectionEx@@YAP6GHPAU_RTL_CRITICAL_SECTION@@KK@ZXZ@4QBW4module_id@?A0xb1b306fc@@B 00474848     libvcruntime:winapi_downlevel.obj
 0002:0000a870       ?tokenTable@@3QBQBDB       00474870     libvcruntime:undname.obj
 0002:0000a8a8       ?nameTable@@3QBQBDB        004748a8     libvcruntime:undname.obj
 0002:0000a9f0       ?rttiTable@@3QBQBDB        004749f0     libvcruntime:undname.obj
 0002:0000afd0       Shifter                    00474fd0     libucrt:pow_sse2_precise.obj
 0002:0000afe0       SIGMASK                    00474fe0     libucrt:pow_sse2_precise.obj
 0002:0000aff0       ONEMASK                    00474ff0     libucrt:pow_sse2_precise.obj
 0002:0000b000       ABSVALMASK                 00475000     libucrt:pow_sse2_precise.obj
 0002:0000b010       cev                        00475010     libucrt:pow_sse2_precise.obj
 0002:0000b038       HALFSIG                    00475038     libucrt:pow_sse2_precise.obj
 0002:0000b040       LHN                        00475040     libucrt:pow_sse2_precise.obj
 0002:0000b048       sNaN                       00475048     libucrt:pow_sse2_precise.obj
 0002:0000b050       INF                        00475050     libucrt:pow_sse2_precise.obj
 0002:0000b058       NEG_INF                    00475058     libucrt:pow_sse2_precise.obj
 0002:0000b060       NEG_ZERO                   00475060     libucrt:pow_sse2_precise.obj
 0002:0000b068       NEG_BIG                    00475068     libucrt:pow_sse2_precise.obj
 0002:0000b070       POS_BIG                    00475070     libucrt:pow_sse2_precise.obj
 0002:0000b078       EMIN                       00475078     libucrt:pow_sse2_precise.obj
 0002:0000b080       QIND                       00475080     libucrt:pow_sse2_precise.obj
 0002:0000b110       emask                      00475110     libucrt:log_sse2_precise.obj
 0002:0000b120       Magic                      00475120     libucrt:log_sse2_precise.obj
 0002:0000b130       hi_mask                    00475130     libucrt:log_sse2_precise.obj
 0002:0000b140       LOG_2                      00475140     libucrt:log_sse2_precise.obj
 0002:0000b150       place_L                    00475150     libucrt:log_sse2_precise.obj
 0002:0000b170       One                        00475170     libucrt:log_sse2_precise.obj
 0002:0000b180       Zero                       00475180     libucrt:log_sse2_precise.obj
 0002:0000b190       Two52                      00475190     libucrt:log_sse2_precise.obj
 0002:0000b1a0       Infs                       004751a0     libucrt:log_sse2_precise.obj
 0002:0000b1b0       NaN                        004751b0     libucrt:log_sse2_precise.obj
 0002:0000b1c0       coeff                      004751c0     libucrt:log_sse2_precise.obj
 0002:0000b1f0       SC_1                       004751f0     libucrt:sin_sse2_precise.obj
 0002:0000b200       SC_2                       00475200     libucrt:sin_sse2_precise.obj
 0002:0000b210       SC_3                       00475210     libucrt:sin_sse2_precise.obj
 0002:0000b220       SC_4                       00475220     libucrt:sin_sse2_precise.obj
 0002:0000b230       PI32INV                    00475230     libucrt:sin_sse2_precise.obj
 0002:0000b238       SHIFTER                    00475238     libucrt:sin_sse2_precise.obj
 0002:0000b240       P_2                        00475240     libucrt:sin_sse2_precise.obj
 0002:0000b250       P_1                        00475250     libucrt:sin_sse2_precise.obj
 0002:0000b258       P_3                        00475258     libucrt:sin_sse2_precise.obj
 0002:0000b260       TWO_POW_55                 00475260     libucrt:sin_sse2_precise.obj
 0002:0000b268       TWO_POW_M55                00475268     libucrt:sin_sse2_precise.obj
 0002:0000b270       ALL_ONES                   00475270     libucrt:sin_sse2_precise.obj
 0002:0000b278       NEG_ZERO                   00475278     libucrt:sin_sse2_precise.obj
 0002:0000b280       ONE                        00475280     libucrt:sin_sse2_precise.obj
 0002:0000b290       _One                       00475290     libucrt:floor_pentium4.obj
 0002:0000b2a0       _Bns                       004752a0     libucrt:floor_pentium4.obj
 0002:0000b2b0       _NegOne                    004752b0     libucrt:floor_pentium4.obj
 0002:0000b2c0       _NegZero                   004752c0     libucrt:floor_pentium4.obj
 0002:0000b2d0       _S                         004752d0     libucrt:floor_pentium4.obj
 0002:0000b2e0       emask                      004752e0     libucrt:log10_sse2_precise.obj
 0002:0000b2f0       CC                         004752f0     libucrt:log10_sse2_precise.obj
 0002:0000b300       Magic                      00475300     libucrt:log10_sse2_precise.obj
 0002:0000b310       hi_mask                    00475310     libucrt:log10_sse2_precise.obj
 0002:0000b320       LOG10_2                    00475320     libucrt:log10_sse2_precise.obj
 0002:0000b330       place_L                    00475330     libucrt:log10_sse2_precise.obj
 0002:0000b350       One                        00475350     libucrt:log10_sse2_precise.obj
 0002:0000b360       Zero                       00475360     libucrt:log10_sse2_precise.obj
 0002:0000b370       Two52                      00475370     libucrt:log10_sse2_precise.obj
 0002:0000b380       Infs                       00475380     libucrt:log10_sse2_precise.obj
 0002:0000b390       NaN                        00475390     libucrt:log10_sse2_precise.obj
 0002:0000b3a0       coeff                      004753a0     libucrt:log10_sse2_precise.obj
 0002:0000b3e0       ?_names@?1??_get_fname@@9@9 004753e0     libucrt:fpexcept.obj
 0002:0000b658       ___acrt_initializers       00475658     libucrt:initialization.obj
 0002:0000b6d8       ?errtable@@3QBUerrentry@?A0x31fdb9ec@@B 004756d8     libucrt:errno.obj
 0002:0000b840       ?module_names@?A0x391cf84c@@3QBQB_WB 00475840     libucrt:winapi_thunks.obj
 0002:0000bca8       ?candidate_modules@?1??try_get_AreFileApisANSI@@YAP6GHXZXZ@4QBW4module_id@?A0x391cf84c@@B 00475ca8     libucrt:winapi_thunks.obj
 0002:0000bcbc       ?candidate_modules@?1??try_get_CompareStringEx@@YAP6GHPB_WK0H0HPAU_nlsversioninfo@@PAXJ@ZXZ@4QBW4module_id@?A0x391cf84c@@B 00475cbc     libucrt:winapi_thunks.obj
 0002:0000bcd4       ?candidate_modules@?1??try_get_FlsAlloc@@YAP6GKP6GXPAX@Z@ZXZ@4QBW4module_id@?A0x391cf84c@@B 00475cd4     libucrt:winapi_thunks.obj
 0002:0000bcdc       ?candidate_modules@?1??try_get_FlsFree@@YAP6GHK@ZXZ@4QBW4module_id@?A0x391cf84c@@B 00475cdc     libucrt:winapi_thunks.obj
 0002:0000bce4       ?candidate_modules@?1??try_get_FlsGetValue@@YAP6GPAXK@ZXZ@4QBW4module_id@?A0x391cf84c@@B 00475ce4     libucrt:winapi_thunks.obj
 0002:0000bcec       ?candidate_modules@?1??try_get_FlsSetValue@@YAP6GHKPAX@ZXZ@4QBW4module_id@?A0x391cf84c@@B 00475cec     libucrt:winapi_thunks.obj
 0002:0000bcf4       ?candidate_modules@?1??try_get_GetSystemTimePreciseAsFileTime@@YAP6GXPAU_FILETIME@@@ZXZ@4QBW4module_id@?A0x391cf84c@@B 00475cf4     libucrt:winapi_thunks.obj
 0002:0000bd18       ?candidate_modules@?1??try_get_InitializeCriticalSectionEx@@YAP6GHPAU_RTL_CRITICAL_SECTION@@KK@ZXZ@4QBW4module_id@?A0x391cf84c@@B 00475d18     libucrt:winapi_thunks.obj
 0002:0000bd20       ?candidate_modules@?1??try_get_LCMapStringEx@@YAP6GHPB_WK0HPA_WHPAU_nlsversioninfo@@PAXJ@ZXZ@4QBW4module_id@?A0x391cf84c@@B 00475d20     libucrt:winapi_thunks.obj
 0002:0000bd38       ?candidate_modules@?1??try_get_LocaleNameToLCID@@YAP6GKPB_WK@ZXZ@4QBW4module_id@?A0x391cf84c@@B 00475d38     libucrt:winapi_thunks.obj
 0002:0000bd54       ?candidate_modules@?1??try_get_RoInitialize@@YAP6GJW4RO_INIT_TYPE@@@ZXZ@4QBW4module_id@?A0x391cf84c@@B 00475d54     libucrt:winapi_thunks.obj
 0002:0000bd68       ?candidate_modules@?1??try_get_RoUninitialize@@YAP6GXXZXZ@4QBW4module_id@?A0x391cf84c@@B 00475d68     libucrt:winapi_thunks.obj
 0002:0000bd7c       ?candidate_modules@?1??try_get_AppPolicyGetProcessTerminationMethod@@YAP6GJPAXPAW4AppPolicyProcessTerminationMethod@@@ZXZ@4QBW4module_id@?A0x391cf84c@@B 00475d7c     libucrt:winapi_thunks.obj
 0002:0000bda8       ?candidate_modules@?1??try_get_AppPolicyGetThreadInitializationType@@YAP6GJPAXPAW4AppPolicyThreadInitializationType@@@ZXZ@4QBW4module_id@?A0x391cf84c@@B 00475da8     libucrt:winapi_thunks.obj
 0002:0000bde0       POW_name                   00475de0     libucrt:pow_impl.obj
 0002:00010180       LOG_name                   0047a180     libucrt:log_impl.obj
 0002:000109b0       _NAME_                     0047a9b0     libucrt:sin_impl.obj
 0002:000111c0       LOG_name                   0047b1c0     libucrt:log10_impl.obj
 0002:00011a08       _over                      0047ba08     libucrt:fpctrl.obj
 0002:00011a14       _under                     0047ba14     libucrt:fpctrl.obj
 0002:00011a20       ?_mb_locale_names@@3QBQB_WB 0047ba20     libucrt:mbctype.obj
 0002:00011ad0       ?LcidToLocaleNameTable@?A0x881e4c05@@3QBULcidToLocaleName@1@B 0047bad0     libucrt:lcidtoname_downlevel.obj
 0002:00012bf0       ?LocaleNameToIndexTable@?A0x881e4c05@@3QBULocaleNameIndex@1@B 0047cbf0     libucrt:lcidtoname_downlevel.obj
 0002:00013b40       Shifter                    0047db40     libucrt:pow_pentium4.obj
 0002:00013b50       SIGMASK                    0047db50     libucrt:pow_pentium4.obj
 0002:00013b60       ONEMASK                    0047db60     libucrt:pow_pentium4.obj
 0002:00013b70       ABSVALMASK                 0047db70     libucrt:pow_pentium4.obj
 0002:00013b80       cev                        0047db80     libucrt:pow_pentium4.obj
 0002:00013ba8       HALFSIG                    0047dba8     libucrt:pow_pentium4.obj
 0002:00013bb0       LHN                        0047dbb0     libucrt:pow_pentium4.obj
 0002:00013bb8       sNaN                       0047dbb8     libucrt:pow_pentium4.obj
 0002:00013bc0       INF                        0047dbc0     libucrt:pow_pentium4.obj
 0002:00013bc8       NEG_INF                    0047dbc8     libucrt:pow_pentium4.obj
 0002:00013bd0       NEG_ZERO                   0047dbd0     libucrt:pow_pentium4.obj
 0002:00013bd8       NEG_BIG                    0047dbd8     libucrt:pow_pentium4.obj
 0002:00013be0       POS_BIG                    0047dbe0     libucrt:pow_pentium4.obj
 0002:00013be8       EMIN                       0047dbe8     libucrt:pow_pentium4.obj
 0002:00013bf0       QIND                       0047dbf0     libucrt:pow_pentium4.obj
 0002:00013c1e       _log2max                   0047dc1e     libucrt:87tran.obj
 0002:00013c28       _smallarg                  0047dc28     libucrt:87tran.obj
 0002:00013c32       _half                      0047dc32     libucrt:87tran.obj
 0002:00013c7e       One                        0047dc7e     libucrt:87disp.obj
 0002:00013c86       Three                      0047dc86     libucrt:87disp.obj
 0002:00013c8e       XAMtoTagTab                0047dc8e     libucrt:87disp.obj
 0002:00013ca0       One                        0047dca0     libucrt:common.obj
 0002:00013cb4       DblMax                     0047dcb4     libucrt:common.obj
 0002:00013cbc       DblMin                     0047dcbc     libucrt:common.obj
 0002:00013cc4       IeeeAdjO                   0047dcc4     libucrt:common.obj
 0002:00013ccc       IeeeAdjU                   0047dccc     libucrt:common.obj
 0002:00013cd4       _infinity                  0047dcd4     libucrt:common.obj
 0002:00013cdc       _zero                      0047dcdc     libucrt:common.obj
 0002:000146d0       emask                      0047e6d0     libucrt:log_pentium4.obj
 0002:000146e0       Magic                      0047e6e0     libucrt:log_pentium4.obj
 0002:000146f0       hi_mask                    0047e6f0     libucrt:log_pentium4.obj
 0002:00014700       LOG_2                      0047e700     libucrt:log_pentium4.obj
 0002:00014710       place_L                    0047e710     libucrt:log_pentium4.obj
 0002:00014730       One                        0047e730     libucrt:log_pentium4.obj
 0002:00014740       Zero                       0047e740     libucrt:log_pentium4.obj
 0002:00014750       Two52                      0047e750     libucrt:log_pentium4.obj
 0002:00014760       Infs                       0047e760     libucrt:log_pentium4.obj
 0002:00014770       NaN                        0047e770     libucrt:log_pentium4.obj
 0002:00014780       coeff                      0047e780     libucrt:log_pentium4.obj
 0002:000147b0       SC_1                       0047e7b0     libucrt:sin_pentium4.obj
 0002:000147c0       SC_2                       0047e7c0     libucrt:sin_pentium4.obj
 0002:000147d0       SC_3                       0047e7d0     libucrt:sin_pentium4.obj
 0002:000147e0       SC_4                       0047e7e0     libucrt:sin_pentium4.obj
 0002:000147f0       PI32INV                    0047e7f0     libucrt:sin_pentium4.obj
 0002:000147f8       SHIFTER                    0047e7f8     libucrt:sin_pentium4.obj
 0002:00014800       P_2                        0047e800     libucrt:sin_pentium4.obj
 0002:00014810       P_1                        0047e810     libucrt:sin_pentium4.obj
 0002:00014818       P_3                        0047e818     libucrt:sin_pentium4.obj
 0002:00014820       TWO_POW_55                 0047e820     libucrt:sin_pentium4.obj
 0002:00014828       TWO_POW_M55                0047e828     libucrt:sin_pentium4.obj
 0002:00014830       ALL_ONES                   0047e830     libucrt:sin_pentium4.obj
 0002:00014838       NEG_ZERO                   0047e838     libucrt:sin_pentium4.obj
 0002:00014840       ONE                        0047e840     libucrt:sin_pentium4.obj
 0002:00014850       emask                      0047e850     libucrt:log10_pentium4.obj
 0002:00014860       CC                         0047e860     libucrt:log10_pentium4.obj
 0002:00014870       Magic                      0047e870     libucrt:log10_pentium4.obj
 0002:00014880       hi_mask                    0047e880     libucrt:log10_pentium4.obj
 0002:00014890       LOG10_2                    0047e890     libucrt:log10_pentium4.obj
 0002:000148a0       place_L                    0047e8a0     libucrt:log10_pentium4.obj
 0002:000148c0       One                        0047e8c0     libucrt:log10_pentium4.obj
 0002:000148d0       Zero                       0047e8d0     libucrt:log10_pentium4.obj
 0002:000148e0       Two52                      0047e8e0     libucrt:log10_pentium4.obj
 0002:000148f0       Infs                       0047e8f0     libucrt:log10_pentium4.obj
 0002:00014900       NaN                        0047e900     libucrt:log10_pentium4.obj
 0002:00014910       coeff                      0047e910     libucrt:log10_pentium4.obj
 0002:00014960       _One                       0047e960     libucrt:ceil_pentium4.obj
 0002:00014970       _Bns                       0047e970     libucrt:ceil_pentium4.obj
 0002:00014980       _Zero                      0047e980     libucrt:ceil_pentium4.obj
 0002:00014990       _S                         0047e990     libucrt:ceil_pentium4.obj
 0002:000149a0       _NegZero                   0047e9a0     libucrt:ceil_pentium4.obj
 0002:00014f00       __sehtable$?__scrt_common_main_seh@@YAHXZ 0047ef00     LIBCMT:exe_winmain.obj
 0002:00014fb0       __sehtable$___scrt_is_nonwritable_in_current_image 0047efb0     LIBCMT:utility.obj
 0002:00014fd0       __sehtable$??$thread_start@P6GIPAX@Z@@YGKQAX@Z 0047efd0     libucrt:thread.obj
 0002:00014ff0       __sehtable$__query_new_handler 0047eff0     libucrt:new_handler.obj
 0002:00015010       __sehtable$??R<lambda_6e4b09c48022b2350581041d5f6b0c4c>@@QBE@XZ 0047f010     libucrt:exit.obj
 0002:00015030       __sehtable$??$?RV<lambda_03b1d95aef87969028cfba75ccab2455>@@AAV<lambda_6e4b09c48022b2350581041d5f6b0c4c>@@V<lambda_22bdf7517842c4b3e53723af5aa32b9e>@@@?$__crt_seh_guarded_call@X@@QAEX$$QAV<lambda_03b1d95aef87969028cfba75ccab2455>@@AAV<lambda_6e4b09c48022b2350581041d5f6b0c4c>@@$$QAV<lambda_22bdf7517842c4b3e53723af5aa32b9e>@@@Z 0047f030     libucrt:exit.obj
 0002:00015050       __sehtable$??$?RV<lambda_e5124f882df8998aaf41531e079ba474>@@AAV<lambda_3e16ef9562a7dcce91392c22ab16ea36>@@V<lambda_e25ca0880e6ef98be67edffd8c599615>@@@?$__crt_seh_guarded_call@X@@QAEX$$QAV<lambda_e5124f882df8998aaf41531e079ba474>@@AAV<lambda_3e16ef9562a7dcce91392c22ab16ea36>@@$$QAV<lambda_e25ca0880e6ef98be67edffd8c599615>@@@Z 0047f050     libucrt:wsetlocale.obj
 0002:00015070       __sehtable$??$?RV<lambda_7ac4055421038abea736e08bd20712a4>@@AAV<lambda_a10e4b102d4a2c3aac6f4f48bbdf488f>@@V<lambda_1da61822885009acd1bf848af4f9644b>@@@?$__crt_seh_guarded_call@H@@QAEH$$QAV<lambda_7ac4055421038abea736e08bd20712a4>@@AAV<lambda_a10e4b102d4a2c3aac6f4f48bbdf488f>@@$$QAV<lambda_1da61822885009acd1bf848af4f9644b>@@@Z 0047f070     libucrt:onexit.obj
 0002:00015090       __sehtable$??$?RV<lambda_69a2805e680e0e292e8ba93315fe43a8>@@AAV<lambda_f03950bc5685219e0bcd2087efbe011e>@@V<lambda_03fcd07e894ec930e3f35da366ca99d6>@@@?$__crt_seh_guarded_call@H@@QAEH$$QAV<lambda_69a2805e680e0e292e8ba93315fe43a8>@@AAV<lambda_f03950bc5685219e0bcd2087efbe011e>@@$$QAV<lambda_03fcd07e894ec930e3f35da366ca99d6>@@@Z 0047f090     libucrt:onexit.obj
 0002:000150b0       __sehtable$_terminate      0047f0b0     libucrt:terminate.obj
 0002:000150d0       __sehtable$??$?RV<lambda_218ce3db14220d0be481dae8ef3383b6>@@AAV<lambda_628dfdc04ba53c8bfc02c9951375f3f5>@@V<lambda_57dc472bd5c9d5f3b2cbca59b8a843ae>@@@?$__crt_seh_guarded_call@H@@QAEH$$QAV<lambda_218ce3db14220d0be481dae8ef3383b6>@@AAV<lambda_628dfdc04ba53c8bfc02c9951375f3f5>@@$$QAV<lambda_57dc472bd5c9d5f3b2cbca59b8a843ae>@@@Z 0047f0d0     libucrt:close.obj
 0002:000150f0       __sehtable$??$common_lseek@J@@YAJHJH@Z 0047f0f0     libucrt:lseek.obj
 0002:00015110       __sehtable$??$common_open@D@@YAHQBDHH@Z 0047f110     libucrt:open.obj
 0002:00015130       __sehtable$__read          0047f130     libucrt:read.obj
 0002:00015150       __sehtable$__write         0047f150     libucrt:write.obj
 0002:00015170       __sehtable$__isindst       0047f170     libucrt:tzset.obj
 0002:00015190       __sehtable$___tzset        0047f190     libucrt:tzset.obj
 0002:000151b0       __sehtable$??$?RV<lambda_15ade71b0218206bbe3333a0c9b79046>@@AAV<lambda_da44e0f8b0f19ba52fefafb335991732>@@V<lambda_207f2d024fc103971653565357d6cd41>@@@?$__crt_seh_guarded_call@X@@QAEX$$QAV<lambda_15ade71b0218206bbe3333a0c9b79046>@@AAV<lambda_da44e0f8b0f19ba52fefafb335991732>@@$$QAV<lambda_207f2d024fc103971653565357d6cd41>@@@Z 0047f1b0     libucrt:per_thread_data.obj
 0002:000151d0       __sehtable$??$?RV<lambda_a7e850c220f1c8d1e6efeecdedd162c6>@@AAV<lambda_46720907175c18b6c9d2717bc0d2d362>@@V<lambda_9048902d66e8d99359bc9897bbb930a8>@@@?$__crt_seh_guarded_call@X@@QAEX$$QAV<lambda_a7e850c220f1c8d1e6efeecdedd162c6>@@AAV<lambda_46720907175c18b6c9d2717bc0d2d362>@@$$QAV<lambda_9048902d66e8d99359bc9897bbb930a8>@@@Z 0047f1d0     libucrt:per_thread_data.obj
 0002:000151f0       __sehtable$??$?RV<lambda_38edbb1296d33220d7e4dd0ed76b244a>@@AAV<lambda_5ce1d447e08cb34b2473517608e21441>@@V<lambda_fb385d3da700c9147fc39e65dd577a8c>@@@?$__crt_seh_guarded_call@X@@QAEX$$QAV<lambda_38edbb1296d33220d7e4dd0ed76b244a>@@AAV<lambda_5ce1d447e08cb34b2473517608e21441>@@$$QAV<lambda_fb385d3da700c9147fc39e65dd577a8c>@@@Z 0047f1f0     libucrt:per_thread_data.obj
 0002:00015210       __sehtable$??$?RV<lambda_6affb1475c98b40b75cdec977db92e3c>@@AAV<lambda_b8d4b9c228a6ecc3f80208dbb4b4a104>@@V<lambda_608742c3c92a14382c1684fc64f96c88>@@@?$__crt_seh_guarded_call@X@@QAEX$$QAV<lambda_6affb1475c98b40b75cdec977db92e3c>@@AAV<lambda_b8d4b9c228a6ecc3f80208dbb4b4a104>@@$$QAV<lambda_608742c3c92a14382c1684fc64f96c88>@@@Z 0047f210     libucrt:per_thread_data.obj
 0002:00015230       __sehtable$___acrt_initialize_lowio 0047f230     libucrt:ioinit.obj
 0002:00015250       __sehtable$___set_fpsr_sse2 0047f250     libucrt:fpctrl.obj
 0002:00015270       __sehtable$?update_thread_multibyte_data_internal@@YAPAU__crt_multibyte_data@@QAU__acrt_ptd@@QAPAU1@@Z 0047f270     libucrt:mbctype.obj
 0002:00015290       __sehtable$??$?RV<lambda_ceb1ee4838e85a9d631eb091e2fbe199>@@AAV<lambda_ae742caa10f662c28703da3d2ea5e57e>@@V<lambda_cd08b5d6af4937fe54fc07d0c9bf6b37>@@@?$__crt_seh_guarded_call@X@@QAEX$$QAV<lambda_ceb1ee4838e85a9d631eb091e2fbe199>@@AAV<lambda_ae742caa10f662c28703da3d2ea5e57e>@@$$QAV<lambda_cd08b5d6af4937fe54fc07d0c9bf6b37>@@@Z 0047f290     libucrt:mbctype.obj
 0002:000152b0       __sehtable$__alloc_osfhnd  0047f2b0     libucrt:osfinfo.obj
 0002:000152d0       __sehtable$___acrt_lowio_ensure_fh_exists 0047f2d0     libucrt:osfinfo.obj
 0002:000152f0       __sehtable$___acrt_update_thread_locale_data 0047f2f0     libucrt:locale_refcounting.obj
 0002:00015310       __sehtable$_raise          0047f310     libucrt:signal.obj
 0002:00015330       __sehtable$??$?RV<lambda_cbab9ec6f41b0180b23cc171c22676b0>@@AAV<lambda_44731a7d0e6d81c3e6aa82d741081786>@@V<lambda_4b292cb8dd18144e164572427af410ab>@@@?$__crt_seh_guarded_call@P6AXH@Z@@QAEP6AXH@Z$$QAV<lambda_cbab9ec6f41b0180b23cc171c22676b0>@@AAV<lambda_44731a7d0e6d81c3e6aa82d741081786>@@$$QAV<lambda_4b292cb8dd18144e164572427af410ab>@@@Z 0047f330     libucrt:signal.obj
 0002:00015350       __sehtable$??$?RV<lambda_2866be3712abc81a800a822484c830d8>@@AAV<lambda_39ca0ed439415581b5b15c265174cece>@@V<lambda_2b24c74d71094a6cd0cb82e44167d71b>@@@?$__crt_seh_guarded_call@X@@QAEX$$QAV<lambda_2866be3712abc81a800a822484c830d8>@@AAV<lambda_39ca0ed439415581b5b15c265174cece>@@$$QAV<lambda_2b24c74d71094a6cd0cb82e44167d71b>@@@Z 0047f350     libucrt:fflush.obj
 0002:00015370       __sehtable$??$?RV<lambda_2cc53f568c5a2bb6f192f930a45d44ea>@@AAV<lambda_ab61a845afdef5b7c387490eaf3616ee>@@V<lambda_c2ffc0b7726aa6be21d5f0026187e748>@@@?$__crt_seh_guarded_call@X@@QAEX$$QAV<lambda_2cc53f568c5a2bb6f192f930a45d44ea>@@AAV<lambda_ab61a845afdef5b7c387490eaf3616ee>@@$$QAV<lambda_c2ffc0b7726aa6be21d5f0026187e748>@@@Z 0047f370     libucrt:fflush.obj
 0002:00015390       __sehtable$??$common_getenv_s@D@@YAHQAIQADIQBD@Z 0047f390     libucrt:getenv.obj
 0002:000153b0       __sehtable$__fcloseall     0047f3b0     libucrt:closeall.obj
 0002:000153d0       __sehtable$??$?RV<lambda_9e9de3de5fa147e2223d7db92bc10aa6>@@AAV<lambda_38ce7e780aa69e748d6df282ebc68efe>@@V<lambda_8ca6da459f0f6780f1cff60fdc3d00e5>@@@?$__crt_seh_guarded_call@H@@QAEH$$QAV<lambda_9e9de3de5fa147e2223d7db92bc10aa6>@@AAV<lambda_38ce7e780aa69e748d6df282ebc68efe>@@$$QAV<lambda_8ca6da459f0f6780f1cff60fdc3d00e5>@@@Z 0047f3d0     libucrt:commit.obj
 0002:000153f0       __sehtable$_fclose         0047f3f0     libucrt:fclose.obj
 0002:00015410       __sehtable$__IsNonwritableInCurrentImage 0047f410     LIBCMT:pesect.obj
 0002:00015cb8       .idata$6                   0047fcb8     kernel32:KERNEL32.dll
 0002:00016288       .idata$6                   00480288     user32:USER32.dll
 0002:00016460       .idata$6                   00480460     gdi32:GDI32.dll
 0002:00016498       .idata$6                   00480498     comctl32:COMCTL32.dll
 0002:000164da       .idata$6                   004804da     comdlg32:COMDLG32.dll
 0002:0001653c       .idata$6                   0048053c     shell32:SHELL32.dll
 0002:00016656       .idata$6                   00480656     winmm:WINMM.dll
 0002:000166f6       .idata$6                   004806f6     imm32:IMM32.dll
 0002:00016714       .idata$6                   00480714     ddraw:DDRAW.dll
 0002:00016734       .idata$6                   00480734     dinput:DINPUT.dll
 0002:00016740       .idata$6                   00480740     dsound:DSOUND.dll
 0002:00016782       .idata$6                   00480782     ole32:ole32.dll
 0003:00000000       ?mask@?1??aluline_pset@@9@9 00481000     aluline.obj
 0003:00000008       _inh_tbl                   00481008     disasm.obj
 0003:00000048       _except2_tbl               00481048     disasm.obj
 0003:00000088       _branch_tbl                00481088     disasm.obj
 0003:000000c8       _leastack_tbl              004810c8     disasm.obj
 0003:00000108       _inhm_tbl                  00481108     disasm.obj
 0003:00000148       _regax_tbl                 00481148     disasm.obj
 0003:00000188       _regbdu_tbl                00481188     disasm.obj
 0003:000001c8       _tfrexg_tbl                004811c8     disasm.obj
 0003:00000200       _pshpul_tbl                00481200     disasm.obj
 0003:00000220       _idx_tbl                   00481220     disasm.obj
 0003:00000230       _crc_table                 00481230     fdc.obj
 0003:00000430       ?rand_s@?1??calc_rand@@9@9 00481430     fdc.obj
 0003:00001780       _rtc_day_table             00482780     rtc.obj
 0003:00001790       _bmp_palet_table           00482790     tools.obj
 0003:000017d0       _color_bit_mask            004827d0     tools.obj
 0003:000017d8       _InitDirStr                004827d8     w32_cfg.obj
 0003:000017f0       _KbdPageDirectInput        004827f0     w32_cfg.obj
 0003:00001bf0       _KbdPageFM77AV             00482bf0     w32_cfg.obj
 0003:00001f2c       ?rgbTable@?1??Palet640@@9@9 00482f2c     w32_gdi.obj
 0003:00001f58       _pszSchedulerTitle         00482f58     w32_sub1.obj
 0003:00001fd8       ?RegName@?1??CPURegDlgInit@@9@9 00482fd8     w32_sub1.obj
 0003:00002008       ?ALUString@?1??SetupALULine@@9@9 00483008     w32_sub2.obj
 0003:00002028       ?table1@?1??MakeEnvelopTable@PSG@@IAEXXZ@4PAEA 00483028     psg.obj
 0003:00002048       ?table2@?1??MakeEnvelopTable@PSG@@IAEXXZ@4PAEA 00483048     psg.obj
 0003:0000204c       ?table3@?1??MakeEnvelopTable@PSG@@IAEXXZ@4PAEA 0048304c     psg.obj
 0003:00002050       ?rgbTableTc@?1??Palet640@@YIXXZ@4PAKA 00483050     w32_dd.obj
 0003:00002090       ?kbd_106_table@@3PAEA      00483090     w32_kbd.obj
 0003:00002158       ?kbd_98_table@@3PAEA       00483158     w32_kbd.obj
 0003:00002220       ?kbd_101_table@@3PAEA      00483220     w32_kbd.obj
 0003:000022dc       ?TenDirTable@@3PAEA        004832dc     w32_kbd.obj
 0003:000022ec       ?WavName@@3PAPADA          004832ec     w32_snd.obj
 0003:000022f8       ?l_vol@@3PAY04HA           004832f8     w32_snd.obj
 0003:00002334       ?r_vol@@3PAY04HA           00483334     w32_snd.obj
 0003:000023a0       ?__vcrt_flsindex@@3KA      004833a0     libvcruntime:per_thread_data.obj
 0003:000024c4       ?errno_no_memory@@3HA      004834c4     libucrt:errno.obj
 0003:000024c8       ?doserrno_no_memory@@3KA   004834c8     libucrt:errno.obj
 0003:000024d0       ?tzstd_program@@3PADA      004834d0     libucrt:timeset.obj
 0003:00002510       ?tzdst_program@@3PADA      00483510     libucrt:timeset.obj
 0003:00002550       ?tzname_states@@3PAY01PADA 00483550     libucrt:timeset.obj
 0003:00002558       ?dststart@@3Utransitiondate@?A0x7639d0b4@@A 00483558     libucrt:tzset.obj
 0003:00002564       ?dstend@@3Utransitiondate@?A0x7639d0b4@@A 00483564     libucrt:tzset.obj
 0003:00002570       ?__acrt_flsindex@@3KA      00483570     libucrt:per_thread_data.obj
 0003:000026f0       ?__DAZ_ENABLED@?1??__set_fpsr_sse2@@9@9 004836f0     libucrt:fpctrl.obj
 0003:000026f8       __mbctypes                 004836f8     libucrt:mbctype.obj
 0003:00002800       __mbcasemaps               00483800     libucrt:mbctype.obj
 0003:00002900       ?__rgctypeflag@@3PADA      00483900     libucrt:mbctype.obj
 0003:00002908       ?__rgcode_page_info@@3PAUcode_page_info@@A 00483908     libucrt:mbctype.obj
 0003:00002c80       ?__dcrt_lowio_console_output_handle@@3PAXA 00483c80     libucrt:initcon.obj
 0003:00002d40       _alu_vram_bank             00483d40     aluline.obj
 0003:00002d41       _line_mask                 00483d41     aluline.obj
 0003:00002d42       _line_count_sub            00483d42     aluline.obj
 0003:00002d44       _line_addr_old             00483d44     aluline.obj
 0003:00002d48       _line_count                00483d48     aluline.obj
 0003:00002d4c       _cputype                   00483d4c     disasm.obj
 0003:00002d50       _opc                       00483d50     disasm.obj
 0003:00002d54       _pc                        00483d54     disasm.obj
 0003:00002d58       _addpc                     00483d58     disasm.obj
 0003:00002d5c       _linebuf                   00483d5c     disasm.obj
 0003:00002d7c       _vram_buf                  00483d7c     display.obj
 0003:00002d80       _vram_offset_count         00483d80     display.obj
 0003:00002d84       _blank_count               00483d84     display.obj
 0003:00002d88       _fdc_buffer                00483d88     fdc.obj
 0003:00004d88       _fdc_dataptr               00485d88     fdc.obj
 0003:00004d8c       _fdc_seekofs               00485d8c     fdc.obj
 0003:00004d9c       _fdc_secofs                00485d9c     fdc.obj
 0003:00004dac       _fdc_seekvct               00485dac     fdc.obj
 0003:00004db0       _fdc_foffset               00485db0     fdc.obj
 0003:00004eb0       _fdc_trklen                00485eb0     fdc.obj
 0003:00004eb8       _fdc_indexcnt              00485eb8     fdc.obj
 0003:00004ebc       _fdc_wait                  00485ebc     fdc.obj
 0003:00004ec0       _fdc_seek_track            00485ec0     fdc.obj
 0003:00004ec4       _kanji_rom_available       00485ec4     kanji.obj
 0003:00004ec8       _key_trans_ack             00485ec8     keyboard.obj
 0003:00004ecc       _patch_branewboottfr       00485ecc     mainmem.obj
 0003:00004ed0       _patch_jmpnewboot          00485ed0     mainmem.obj
 0003:00004ed4       _ioaccess_count            00485ed4     mainmem.obj
 0003:00004ed8       _ioaccess_flag             00485ed8     mainmem.obj
 0003:00004edc       _mos_x                     00485edc     mouse.obj
 0003:00004edd       _mos_y                     00485edd     mouse.obj
 0003:00004ede       _mos_phase                 00485ede     mouse.obj
 0003:00004edf       _mosset_x                  00485edf     mouse.obj
 0003:00004ee0       _mos_strobe                00485ee0     mouse.obj
 0003:00004ee4       _mosset_y                  00485ee4     mouse.obj
 0003:00004ee5       _mosset_phase              00485ee5     mouse.obj
 0003:00004ee8       _opn_pstate                00485ee8     opn.obj
 0003:00004eec       _opn_selreg                00485eec     opn.obj
 0003:00004ef0       _opn_seldat                00485ef0     opn.obj
 0003:00004ef4       _opn_timera_int            00485ef4     opn.obj
 0003:00004f00       _opn_timerb_int            00485f00     opn.obj
 0003:00004f0c       _opn_timera_en             00485f0c     opn.obj
 0003:00004f18       _opn_timerb_en             00485f18     opn.obj
 0003:00004f24       _ptm_counter_select        00485f24     ptm.obj
 0003:00004f30       _ptm_timer_adjust          00485f30     ptm.obj
 0003:00004f31       _ptm_read_latch_buffer     00485f31     ptm.obj
 0003:00004f32       _ptm_write_latch_buffer    00485f32     ptm.obj
 0003:00004f34       _sndrcv_timing             00485f34     rs232c.obj
 0003:00004f38       _rtc_init_flag             00485f38     rtc.obj
 0003:00004f40       _rtc_ltime                 00485f40     rtc.obj
 0003:00004f48       _break_flag                00485f48     schedule.obj
 0003:00004f4c       _lp_openuse                00485f4c     tapelp.obj
 0003:00004f50       _color_add_data            00485f50     tools.obj
 0003:00004f68       _szIdleMessage             00485f68     w32_bar.obj
 0003:00004fe8       _szStatusMessage           00485fe8     w32_bar.obj
 0003:00005068       _szRunMessage              00486068     w32_bar.obj
 0003:000050e8       _szStopMessage             004860e8     w32_bar.obj
 0003:00005168       _szCaption                 00486168     w32_bar.obj
 0003:00005268       _szCAPMessage              00486268     w32_bar.obj
 0003:00005278       _szKANAMessage             00486278     w32_bar.obj
 0003:00005288       _szINSMessage              00486288     w32_bar.obj
 0003:00005298       _nCAP                      00486298     w32_bar.obj
 0003:0000529c       _nKANA                     0048629c     w32_bar.obj
 0003:000052a0       _nINS                      004862a0     w32_bar.obj
 0003:000052a4       _nDrive                    004862a4     w32_bar.obj
 0003:000052ac       _nTape                     004862ac     w32_bar.obj
 0003:000052b0       _szDrive                   004862b0     w32_bar.obj
 0003:000053b0       _uResID                    004863b0     w32_bar.obj
 0003:000053b4       _nStatusBorder             004863b4     w32_bar.obj
 0003:000053b8       _IsAppThemed               004863b8     w32_bar.obj
 0003:000053bc       _hInstTheme                004863bc     w32_bar.obj
 0003:000053c0       _bThemed                   004863c0     w32_bar.obj
 0003:000053c8       _uPropertyState            004863c8     w32_cfg.obj
 0003:000053cc       _uPropertyHelp             004863cc     w32_cfg.obj
 0003:000053d0       _KbdPageSelectID           004863d0     w32_cfg.obj
 0003:000053d4       _KbdPageCurrentKey         004863d4     w32_cfg.obj
 0003:000053d8       _KbdPageMap                004863d8     w32_cfg.obj
 0003:000054d8       _JoyPageIdx                004864d8     w32_cfg.obj
 0003:000054dc       _pszSection                004864dc     w32_cfg.obj
 0003:000054e0       _configdat                 004864e0     w32_cfg.obj
 0003:00005958       _propdat                   00486958     w32_cfg.obj
 0003:00005dd0       _szIniFile                 00486dd0     w32_cfg.obj
 0003:00005ed8       _StatePath                 00486ed8     w32_cmd.obj
 0003:00005fdc       _DiskTitle                 00486fdc     w32_cmd.obj
 0003:00005ff0       _DiskMedia                 00486ff0     w32_cmd.obj
 0003:00005ff4       _DiskFormat                00486ff4     w32_cmd.obj
 0003:00005ff8       _KeyStrokeString           00486ff8     w32_cmd.obj
 0003:000060f8       _bImmStatus                004870f8     w32_cmd.obj
 0003:000060fc       _dwConversion              004870fc     w32_cmd.obj
 0003:00006100       _dwSentence                00487100     w32_cmd.obj
 0003:00006108       _CSection                  00487108     w32_comm.obj
 0003:00006120       _hThreadRcv                00487120     w32_comm.obj
 0003:00006124       _uThResult                 00487124     w32_comm.obj
 0003:00006128       _bCommCloseReq             00487128     w32_comm.obj
 0003:0000612c       _bCriticalSection          0048712c     w32_comm.obj
 0003:00006130       _hComm                     00487130     w32_comm.obj
 0003:00006134       _nOpenPort                 00487134     w32_comm.obj
 0003:00006138       _commprop                  00487138     w32_comm.obj
 0003:00006178       _Overlap                   00487178     w32_comm.obj
 0003:0000618c       _dcb                       0048718c     w32_comm.obj
 0003:000061a8       _CommTimeout               004871a8     w32_comm.obj
 0003:000061bc       _dwRsRcvCount              004871bc     w32_comm.obj
 0003:000061c0       _uRsRcvData                004871c0     w32_comm.obj
 0003:000071c0       _dwRsRcvPoint              004881c0     w32_comm.obj
 0003:000071c8       _bNextFrameRender          004881c8     w32_draw.obj
 0003:000071d0       _bDirtyLine                004881d0     w32_draw.obj
 0003:00007810       _nMode                     00488810     w32_gdi.obj
 0003:00007811       _nNowBpp                   00488811     w32_gdi.obj
 0003:00007814       _bMouseCursor              00488814     w32_gdi.obj
 0003:00007818       _hBitmap                   00488818     w32_gdi.obj
 0003:0000781c       _nDrawTop                  0048881c     w32_gdi.obj
 0003:00007820       _nDrawBottom               00488820     w32_gdi.obj
 0003:00007824       _nDrawLeft                 00488824     w32_gdi.obj
 0003:00007828       _nDrawRight                00488828     w32_gdi.obj
 0003:0000782c       _bPaletFlag                0048882c     w32_gdi.obj
 0003:00007830       _bClearFlag                00488830     w32_gdi.obj
 0003:00007834       _bSelectCancelFlag         00488834     w32_gdi.obj
 0003:00007838       _bWindowOpen               00488838     w32_gdi.obj
 0003:0000783c       _nWindowDx1                0048883c     w32_gdi.obj
 0003:00007840       _nWindowDy1                00488840     w32_gdi.obj
 0003:00007844       _nWindowDx2                00488844     w32_gdi.obj
 0003:00007848       _nWindowDy2                00488848     w32_gdi.obj
 0003:0000784c       _CSection                  0048884c     w32_main.obj
 0003:00007864       _WINNLSEnableIME           00488864     w32_main.obj
 0003:00007868       _hInstDLL                  00488868     w32_main.obj
 0003:00007870       _hOut                      00488870     w32_midi.obj
 0003:00007874       _nMidiCtrl                 00488874     w32_midi.obj
 0003:00007878       _hOutHdr                   00488878     w32_midi.obj
 0003:000078b8       _szOpenDevice              004888b8     w32_midi.obj
 0003:000079b8       _SendBuf                   004889b8     w32_midi.obj
 0003:0000b9b8       _ExclBuf                   0048c9b8     w32_midi.obj
 0003:0000c9b8       _nMidiPos                  0048d9b8     w32_midi.obj
 0003:0000c9bc       _nMidiSysCount             0048d9bc     w32_midi.obj
 0003:0000c9c0       _bMidiExcvWait             0048d9c0     w32_midi.obj
 0003:0000c9c4       _dwSendReadPtr             0048d9c4     w32_midi.obj
 0003:0000c9c8       _dwSendWritePtr            0048d9c8     w32_midi.obj
 0003:0000c9cc       _dwExclWritePtr            0048d9cc     w32_midi.obj
 0003:0000c9d0       _nMidiLastData             0048d9d0     w32_midi.obj
 0003:0000c9d4       _hThread                   0048d9d4     w32_sch.obj
 0003:0000c9d8       _uThResult                 0048d9d8     w32_sch.obj
 0003:0000c9dc       _nPriority                 0048d9dc     w32_sch.obj
 0003:0000c9e0       _bDrawVsync                0048d9e0     w32_sch.obj
 0003:0000c9e4       _bPollVsync                0048d9e4     w32_sch.obj
 0003:0000c9e8       _dwTempTime                0048d9e8     w32_sch.obj
 0003:0000c9ec       _dwExecTime                0048d9ec     w32_sch.obj
 0003:0000c9f0       _nFrameSkip                0048d9f0     w32_sch.obj
 0003:0000c9f4       _bRunningBak               0048d9f4     w32_sch.obj
 0003:0000c9f8       _bFastMode                 0048d9f8     w32_sch.obj
 0003:0000c9fc       _nSpeedCheck               0048d9fc     w32_sch.obj
 0003:0000ca00       _dwChkTime                 0048da00     w32_sch.obj
 0003:0000ca04       _dwSleepCount              0048da04     w32_sch.obj
 0003:0000ca08       ?bResize@?1??MemoryProc@@9@9 0048da08     w32_sub1.obj
 0003:0000ca0c       ?bResize@?1??DisAsmProc@@9@9 0048da0c     w32_sub1.obj
 0003:0000ca10       _AddrHistoryPhys           0048da10     w32_sub1.obj
 0003:0000ca50       _AddrBufPhys               0048da50     w32_sub1.obj
 0003:0000ca54       _AddrNumPhys               0048da54     w32_sub1.obj
 0003:0000ca58       _nAddrDlgCPU               0048da58     w32_sub1.obj
 0003:0000ca59       _nBreakCPU                 0048da59     w32_sub1.obj
 0003:0000ca5a       _nMemDlgCPU                0048da5a     w32_sub1.obj
 0003:0000ca5b       _nRegDlgCPU                0048da5b     w32_sub1.obj
 0003:0000ca5c       _bAddrDlgLinearAddr        0048da5c     w32_sub1.obj
 0003:0000ca60       _AddrHistoryLogi           0048da60     w32_sub1.obj
 0003:0000ca80       _AddrBufLogi               0048da80     w32_sub1.obj
 0003:0000ca82       _nRegDlgNo                 0048da82     w32_sub1.obj
 0003:0000ca83       _nMemSrchCPU               0048da83     w32_sub1.obj
 0003:0000ca84       _AddrNumLogi               0048da84     w32_sub1.obj
 0003:0000ca88       _pBreakPoint               0048da88     w32_sub1.obj
 0003:0000ca8c       _hBreakPoint               0048da8c     w32_sub1.obj
 0003:0000ca90       _PosBreakPoint             0048da90     w32_sub1.obj
 0003:0000ca98       _pScheduler                0048da98     w32_sub1.obj
 0003:0000ca9c       _dwSchedulerTime           0048da9c     w32_sub1.obj
 0003:0000caa4       _dwSchedulerFrame          0048daa4     w32_sub1.obj
 0003:0000caac       _pCPURegister              0048daac     w32_sub1.obj
 0003:0000cab4       _hCPURegister              0048dab4     w32_sub1.obj
 0003:0000cabc       _pDisAsm                   0048dabc     w32_sub1.obj
 0003:0000cac4       _dwDisAsm                  0048dac4     w32_sub1.obj
 0003:0000cacc       _hDisAsm                   0048dacc     w32_sub1.obj
 0003:0000cad4       _PosDisAsmPoint            0048dad4     w32_sub1.obj
 0003:0000cadc       _nHeightDisAsm             0048dadc     w32_sub1.obj
 0003:0000cae0       _bDisPhysicalAddr          0048dae0     w32_sub1.obj
 0003:0000cae4       _pMemory                   0048dae4     w32_sub1.obj
 0003:0000caec       _dwMemory                  0048daec     w32_sub1.obj
 0003:0000caf4       _hMemory                   0048daf4     w32_sub1.obj
 0003:0000cafc       _nHeightMemory             0048dafc     w32_sub1.obj
 0003:0000cb00       _bAsciiDump                0048db00     w32_sub1.obj
 0003:0000cb08       _bKanjiDump                0048db08     w32_sub1.obj
 0003:0000cb10       _bDumpPhysicalAddr         0048db10     w32_sub1.obj
 0003:0000cb14       _bExtendMMRMode            0048db14     w32_sub1.obj
 0003:0000cb18       _nFM7Ver                   0048db18     w32_sub1.obj
 0003:0000cb1c       _dwMemDlgAddr              0048db1c     w32_sub1.obj
 0003:0000cb20       _nMemDlgByte               0048db20     w32_sub1.obj
 0003:0000cb24       _dwMemSrchAddr             0048db24     w32_sub1.obj
 0003:0000cb28       _dwMemSrchAddrSave         0048db28     w32_sub1.obj
 0003:0000cb30       _szMemSrchString           0048db30     w32_sub1.obj
 0003:0000cbb0       _wStackAddr                0048dbb0     w32_sub1.obj
 0003:0000cbd0       _wBreakAddr                0048dbd0     w32_sub1.obj
 0003:0000cbf0       ?bDblClk@?1??OPNDispProc@@9@9 0048dbf0     w32_sub2.obj
 0003:0000cbf4       _pFDC                      0048dbf4     w32_sub2.obj
 0003:0000cbf8       _pOPNReg                   0048dbf8     w32_sub2.obj
 0003:0000cbfc       _nOPNReg                   0048dbfc     w32_sub2.obj
 0003:0000cc00       _pOPNDisp                  0048dc00     w32_sub2.obj
 0003:0000cc04       _hOPNDisp                  0048dc04     w32_sub2.obj
 0003:0000cc08       _rOPNDisp                  0048dc08     w32_sub2.obj
 0003:0000cc18       _nOPNDisp                  0048dc18     w32_sub2.obj
 0003:0000cc1c       _pSubCtrl                  0048dc1c     w32_sub2.obj
 0003:0000cc20       _knOPNDisp                 0048dc20     w32_sub2.obj
 0003:0000cc68       _ktOPNDisp                 0048dc68     w32_sub2.obj
 0003:0000ccb0       _cnOPNDisp                 0048dcb0     w32_sub2.obj
 0003:0000d394       _pALULine                  0048e394     w32_sub2.obj
 0003:0000d398       _ctOPNDisp                 0048e398     w32_sub2.obj
 0003:0000da80       _lnOPNDisp                 0048ea80     w32_sub2.obj
 0003:0000dac8       _ltOPNDisp                 0048eac8     w32_sub2.obj
 0003:0000db10       _pKeyboard                 0048eb10     w32_sub3.obj
 0003:0000db14       _pMMR                      0048eb14     w32_sub3.obj
 0003:0000db18       _pDMAC                     0048eb18     w32_sub3.obj
 0003:0000db1c       _pPaletteReg               0048eb1c     w32_sub3.obj
 0003:0000db20       _hPaletteReg               0048eb20     w32_sub3.obj
 0003:0000db24       _rPaletteReg               0048eb24     w32_sub3.obj
 0003:0000db3c       _hVerIcon                  0048eb3c     w32_ver.obj
 0003:0000db40       _AboutURLRect              0048eb40     w32_ver.obj
 0003:0000db80       _bAboutURLHit              0048eb80     w32_ver.obj
 0003:0000db90       _pszAboutURL               0048eb90     w32_ver.obj
 0003:0000dd90       _IconRect                  0048ed90     w32_ver.obj
 0003:00016da2       ?tablemade@FM@@3_NA        00497da2     fmgen.obj
 0003:00024f20       ?nMode@@3EA                004a5f20     w32_dd.obj
 0003:00024f21       ?nDDResolution@@3EA        004a5f21     w32_dd.obj
 0003:00024f24       ?BkRect@@3UtagRECT@@A      004a5f24     w32_dd.obj
 0003:00024f34       ?bMouseCursor@@3HA         004a5f34     w32_dd.obj
 0003:00024f38       ?hMainMenu@@3PAUHMENU__@@A 004a5f38     w32_dd.obj
 0003:00024f3c       ?hDrawBrush@@3PAUHBRUSH__@@A 004a5f3c     w32_dd.obj
 0003:00024f40       ?hMainBrush@@3PAUHBRUSH__@@A 004a5f40     w32_dd.obj
 0003:00024f44       ?lpdd2@@3PAUIDirectDraw2@@A 004a5f44     w32_dd.obj
 0003:00024f48       ?lpdds@@3PAPAUIDirectDrawSurface@@A 004a5f48     w32_dd.obj
 0003:00024f50       ?lpddc@@3PAUIDirectDrawClipper@@A 004a5f50     w32_dd.obj
 0003:00024f54       ?nPixelFormat@@3IA         004a5f54     w32_dd.obj
 0003:00024f58       ?nDrawTop@@3GA             004a5f58     w32_dd.obj
 0003:00024f5c       ?nDrawBottom@@3GA          004a5f5c     w32_dd.obj
 0003:00024f60       ?nDrawLeft@@3GA            004a5f60     w32_dd.obj
 0003:00024f64       ?nDrawRight@@3GA           004a5f64     w32_dd.obj
 0003:00024f68       ?bPaletFlag@@3HA           004a5f68     w32_dd.obj
 0003:00024f6c       ?bClearFlag@@3HA           004a5f6c     w32_dd.obj
 0003:00024f70       ?bWindowOpen@@3HA          004a5f70     w32_dd.obj
 0003:00024f74       ?nWindowDx1@@3GA           004a5f74     w32_dd.obj
 0003:00024f78       ?nWindowDy1@@3GA           004a5f78     w32_dd.obj
 0003:00024f7c       ?nWindowDx2@@3GA           004a5f7c     w32_dd.obj
 0003:00024f80       ?nWindowDy2@@3GA           004a5f80     w32_dd.obj
 0003:00024f84       ?szCAPMessage@@3PADA       004a5f84     w32_dd.obj
 0003:00024f94       ?nCAP@@3HA                 004a5f94     w32_dd.obj
 0003:00024f98       ?szRunMessage@@3PADA       004a5f98     w32_dd.obj
 0003:00025018       ?szStopMessage@@3PADA      004a6018     w32_dd.obj
 0003:00025098       ?szCaption@@3PADA          004a6098     w32_dd.obj
 0003:00025198       ?szKANAMessage@@3PADA      004a6198     w32_dd.obj
 0003:000251a8       ?szINSMessage@@3PADA       004a61a8     w32_dd.obj
 0003:000251b8       ?nKANA@@3HA                004a61b8     w32_dd.obj
 0003:000251bc       ?nINS@@3HA                 004a61bc     w32_dd.obj
 0003:000251c0       ?nDrive@@3PAHA             004a61c0     w32_dd.obj
 0003:000251c8       ?szDrive@@3PAY0BB@DA       004a61c8     w32_dd.obj
 0003:000251ec       ?nTape@@3HA                004a61ec     w32_dd.obj
 0003:000251f0       ?bCaption@@3HA             004a61f0     w32_dd.obj
 0003:000251f4       ?nScrX@@3HA                004a61f4     w32_dd.obj
 0003:000251f8       ?nScrY@@3HA                004a61f8     w32_dd.obj
 0003:000251fc       ?hModUser32@@3PAUHINSTANCE__@@A 004a61fc     w32_dd.obj
 0003:00025200       ?monitorfromwindow@@3P6GPAUHMONITOR__@@PAUHWND__@@K@ZA 004a6200     w32_dd.obj
 0003:00025204       ?getmonitorinfo@@3P6GHPAUHMONITOR__@@PAUtagMONITOR_INFO@@@ZA 004a6204     w32_dd.obj
 0003:00025208       ?ddenumerateex@@3P6GJP6GHPAU_GUID@@PAD1PAXPAUHMONITOR__@@@Z2K@ZA 004a6208     w32_dd.obj
 0003:0002520c       ?hmonitor@@3PAUHMONITOR__@@A 004a620c     w32_dd.obj
 0003:00025210       ?gmonitor@@3U_GUID@@A      004a6210     w32_dd.obj
 0003:00025220       ?ptMouseBak@@3UtagPOINT@@A 004a6220     w32_dd.obj
 0003:00025228       ?ptFullScr@@3UtagPOINT@@A  004a6228     w32_dd.obj
 0003:00025230       _Render640                 004a6230     w32_dd.obj
 0003:00025234       _Render640w                004a6234     w32_dd.obj
 0003:00025238       _Render320                 004a6238     w32_dd.obj
 0003:0002523c       _Render320w                004a623c     w32_dd.obj
 0003:00025240       _Render256k                004a6240     w32_dd.obj
 0003:00025244       _Render640c                004a6244     w32_dd.obj
 0003:00025248       _Render640cw               004a6248     w32_dd.obj
 0003:000256d0       ?lpdi@@3PAUIDirectInputA@@A 004a66d0     w32_kbd.obj
 0003:000256d4       ?lpkbd@@3PAUIDirectInputDeviceA@@A 004a66d4     w32_kbd.obj
 0003:000256d8       ?keytime@@3KA              004a66d8     w32_kbd.obj
 0003:000256dc       ?menuexittime@@3KA         004a66dc     w32_kbd.obj
 0003:000256e0       ?dmyreadtime@@3KA          004a66e0     w32_kbd.obj
 0003:000256e4       ?bDummyRead@@3HA           004a66e4     w32_kbd.obj
 0003:000256e8       ?nKeyBuffer@@3PAEA         004a66e8     w32_kbd.obj
 0003:00025728       ?nKeyReadPtr@@3EA          004a6728     w32_kbd.obj
 0003:00025729       ?nKeyWritePtr@@3EA         004a6729     w32_kbd.obj
 0003:0002572a       ?nLastKey@@3EA             004a672a     w32_kbd.obj
 0003:0002572b       ?nLastKey2@@3EA            004a672b     w32_kbd.obj
 0003:0002572c       ?nTenDir@@3EA              004a672c     w32_kbd.obj
 0003:0002572d       ?nTenDir2@@3EA             004a672d     w32_kbd.obj
 0003:0002572e       ?nMouseButton@@3EA         004a672e     w32_kbd.obj
 0003:0002572f       ?nMouseButtons@@3EA        004a672f     w32_kbd.obj
 0003:00025730       ?joydat@@3PAEA             004a6730     w32_kbd.obj
 0003:00025733       ?cPreKey@@3DA              004a6733     w32_kbd.obj
 0003:00025734       ?joybk@@3PAEA              004a6734     w32_kbd.obj
 0003:00025738       ?joyrapid@@3PAY01HA        004a6738     w32_kbd.obj
 0003:00025748       ?joytime@@3KA              004a6748     w32_kbd.obj
 0003:0002574c       ?joytime2@@3KA             004a674c     w32_kbd.obj
 0003:00025750       ?joyplugged@@3PAHA         004a6750     w32_kbd.obj
 0003:00025758       ?lpmos@@3PAUIDirectInputDeviceA@@A 004a6758     w32_kbd.obj
 0003:0002575c       ?mostime@@3KA              004a675c     w32_kbd.obj
 0003:00025760       ?bCapture@@3HA             004a6760     w32_kbd.obj
 0003:00025764       ?nMouseX@@3HA              004a6764     w32_kbd.obj
 0003:00025768       ?nMouseY@@3HA              004a6768     w32_kbd.obj
 0003:0002576c       ?bMouseCursor@@3HA         004a676c     w32_kbd.obj
 0003:00025770       ?nMouseSX@@3HA             004a6770     w32_kbd.obj
 0003:00025774       ?nMouseSY@@3HA             004a6774     w32_kbd.obj
 0003:00025778       ?strPaste@@3PADA           004a6778     w32_kbd.obj
 0003:0002577c       ?strPtr@@3PADA             004a677c     w32_kbd.obj
 0003:00025780       ?uWaitCnt@@3IA             004a6780     w32_kbd.obj
 0003:00025784       ?key_last@?1??PollKbd@@9@0@4EA 004a6784     w32_kbd.obj
 0003:00025790       ?lpr@@3PAVLpr@@A           004a6790     w32_lpr.obj
 0003:00025798       _CharFontImg               004a6798     w32_lpr.obj
 0003:00025fe8       ?lpds@@3PAUIDirectSound@@A 004a6fe8     w32_snd.obj
 0003:00025fec       ?lpdsp@@3PAUIDirectSoundBuffer@@A 004a6fec     w32_snd.obj
 0003:00025ff0       ?lpdsb@@3PAUIDirectSoundBuffer@@A 004a6ff0     w32_snd.obj
 0003:00025ff4       ?lpsbuf@@3PAKA             004a6ff4     w32_snd.obj
 0003:00025ff8       ?bNowBank@@3HA             004a6ff8     w32_snd.obj
 0003:00025ffc       ?uBufSize@@3IA             004a6ffc     w32_snd.obj
 0003:00026000       ?uRate@@3IA                004a7000     w32_snd.obj
 0003:00026004       ?uTick@@3IA                004a7004     w32_snd.obj
 0003:00026008       ?bMode@@3HA                004a7008     w32_snd.obj
 0003:0002600c       ?uStereo@@3IA              004a700c     w32_snd.obj
 0003:00026010       ?uSample@@3IA              004a7010     w32_snd.obj
 0003:00026014       ?uBeep@@3IA                004a7014     w32_snd.obj
 0003:00026018       ?uKeyEncBeep@@3IA          004a7018     w32_snd.obj
 0003:0002601c       ?pOPN@@3PAPAVOPN@FM@@A     004a701c     w32_snd.obj
 0003:00026028       ?nScale@@3PAHA             004a7028     w32_snd.obj
 0003:00026034       ?uCh3Mode@@3PAEA           004a7034     w32_snd.obj
 0003:00026037       ?uTapeDelta@@3EA           004a7037     w32_snd.obj
 0003:00026038       ?bInitFlag@@3HA            004a7038     w32_snd.obj
 0003:0002603c       ?pWavCapture@@3PAGA        004a703c     w32_snd.obj
 0003:00026040       ?nWavCapture@@3IA          004a7040     w32_snd.obj
 0003:00026044       ?dwWavCapture@@3KA         004a7044     w32_snd.obj
 0003:00026048       ?uChannels@@3GA            004a7048     w32_snd.obj
 0003:0002604c       ?bBeepFlag@@3HA            004a704c     w32_snd.obj
 0003:00026050       ?bKeyEncBeepFlag@@3HA      004a7050     w32_snd.obj
 0003:00026054       ?bTHGUse@@3HA              004a7054     w32_snd.obj
 0003:00026058       ?bPartMute@@3PAY05HA       004a7058     w32_snd.obj
 0003:000260a0       ?nBeepLevel@@3HA           004a70a0     w32_snd.obj
 0003:000260a4       ?nCMTLevel@@3HA            004a70a4     w32_snd.obj
 0003:000260a8       ?nWaveLevel@@3HA           004a70a8     w32_snd.obj
 0003:000260ac       ?bTapeFlag@@3HA            004a70ac     w32_snd.obj
 0003:000260b0       ?bTapeFlag2@@3HA           004a70b0     w32_snd.obj
 0003:000260b4       ?bRomeoMute@@3HA           004a70b4     w32_snd.obj
 0003:000260b8       ?pDACbuf@@3PAEA            004a70b8     w32_snd.obj
 0003:000260bc       ?dwDACptr@@3KA             004a70bc     w32_snd.obj
 0003:000260c0       ?OPNqueue@@3PAU_FMqueue@@A 004a70c0     w32_snd.obj
 0003:000270c0       ?uOPNqueuePtr@@3HA         004a80c0     w32_snd.obj
 0003:000270c4       ?uWHGqueuePtr@@3HA         004a80c4     w32_snd.obj
 0003:000270c8       ?WHGqueue@@3PAU_FMqueue@@A 004a80c8     w32_snd.obj
 0003:000280c8       ?THGqueue@@3PAU_FMqueue@@A 004a90c8     w32_snd.obj
 0003:000290c8       ?uTHGqueuePtr@@3HA         004aa0c8     w32_snd.obj
 0003:000290cc       ?Wav@@3PAU_WAVDATA@@A      004aa0cc     w32_snd.obj
 0003:000290f0       ?WavP@@3PAU_WAVPLAY@@A     004aa0f0     w32_snd.obj
 0003:00029280       ?romeo@@3U_ROMEO@@A        004aa280     juliet.obj
 0003:000292e0       ?OpnCmnBuf@@3PAU_CmnBuf@@A 004aa2e0     juliet.obj
 0003:000a92e0       ?OpnNumCmnd@@3HC           0052a2e0     juliet.obj
 0003:000a92e4       ?OpnCmndReadIdx@@3HA       0052a2e4     juliet.obj
 0003:000a92e8       ?OpnCmndWriteIdx@@3HA      0052a2e8     juliet.obj
 0003:000a92ec       ?fnum_buff@@3PAEA          0052a2ec     juliet.obj
 0003:000a930c       ?psg_buff@@3PAEA           0052a30c     juliet.obj
 0003:000a931c       ?CSMmode@@3HA              0052a31c     juliet.obj
 0003:000a9320       ?fnum_tbl@@3PAEA           0052a320     juliet.obj
 0003:000aa320       ?psgfreq_tbl@@3PAGA        0052b320     juliet.obj
 0003:000d1844       ?Prescaler@@3PAHA          00552844     juliet.obj
 0003:000d1850       _GS_ExceptionRecord        00552850     LIBCMT:gs_report.obj
 0003:000d18a0       _GS_ContextRecord          005528a0     LIBCMT:gs_report.obj
 0003:000d1b7c       ?module_local_atexit_table@@3U_onexit_table_t@@A 00552b7c     LIBCMT:utility.obj
 0003:000d1b88       ?module_local_at_quick_exit_table@@3U_onexit_table_t@@A 00552b88     LIBCMT:utility.obj
 0003:000d1b94       ?module_local_atexit_table_initialized@@3_NA 00552b94     LIBCMT:utility.obj
 0003:000d1b95       ?is_initialized_as_dll@@3_NA 00552b95     LIBCMT:utility.obj
 0003:000d1bac       ?__vcrt_startup_thread_ptd@@3U__vcrt_ptd@@A 00552bac     libvcruntime:per_thread_data.obj
 0003:000d1bd4       ___vcrt_lock_table         00552bd4     libvcruntime:locks.obj
 0003:000d1bec       ___vcrt_locks_initialized  00552bec     libvcruntime:locks.obj
 0003:000d1bf0       ?module_handles@@3PAPAUHINSTANCE__@@A 00552bf0     libvcruntime:winapi_downlevel.obj
 0003:000d1bfc       ?encoded_function_pointers@@3PAPAXA 00552bfc     libvcruntime:winapi_downlevel.obj
 0003:000d1c3c       ?heap@@3V_HeapManager@@A   00552c3c     libvcruntime:undname.obj
 0003:000d1c50       ?__acrt_new_handler@@3V?$dual_state_global@P6AHI@Z@__crt_state_management@@A 00552c50     libucrt:new_handler.obj
 0003:000d1c54       ?__acrt_app_type@@3W4_crt_app_type@@A 00552c54     libucrt:report_runtime_error.obj
 0003:000d1c58       ?user_matherr@@3V?$dual_state_global@P6AHPAU_exception@@@Z@__crt_state_management@@A 00552c58     libucrt:matherr.obj
 0003:000d1c60       ?program_name@?1???$common_configure_argv@D@@YAHW4_crt_argv_mode@@@Z@4PADA 00552c60     libucrt:argv_parsing.obj
 0003:000d1d78       ?empty_string@?1???$common_wincmdln@E@@YAPAEXZ@4PAEA 00552d78     libucrt:argv_winmain.obj
 0003:000d1d7c       ?c_termination_complete@@3JA 00552d7c     libucrt:exit.obj
 0003:000d1d80       ?thread_local_exit_callback_func@@3P6GXPAXK0@ZA 00552d80     libucrt:exit.obj
 0003:000d1d8c       ?__acrt_global_new_mode@@3V?$dual_state_global@J@__crt_state_management@@A 00552d8c     libucrt:new_mode.obj
 0003:000d1dac       ?__acrt_invalid_parameter_handler@@3V?$dual_state_global@P6AXPB_W00II@Z@__crt_state_management@@A 00552dac     libucrt:invalid_parameter.obj
 0003:000d1dbc       ?_tzname@@3V?$dual_state_global@PAPAD@__crt_state_management@@A 00552dbc     libucrt:timeset.obj
 0003:000d1dc0       ?last_tz@@3PADA            00552dc0     libucrt:tzset.obj
 0003:000d1dc8       ?tz_api_used@@3HA          00552dc8     libucrt:tzset.obj
 0003:000d1dd0       ?tz_info@@3U_TIME_ZONE_INFORMATION@@A 00552dd0     libucrt:tzset.obj
 0003:000d1e7c       ?first_time@?1??__tzset@@9@4JA 00552e7c     libucrt:tzset.obj
 0003:000d1e80       ?module_handles@@3PAPAUHINSTANCE__@@A 00552e80     libucrt:winapi_thunks.obj
 0003:000d1ed0       ?encoded_function_pointers@@3PAPAXA 00552ed0     libucrt:winapi_thunks.obj
 0003:000d1f58       __pmatherr_set             00552f58     libucrt:libm_error.obj
 0003:000d1f64       ?enable_percent_n@@3IA     00552f64     libucrt:printf_count_output.obj
 0003:000d217c       ?state_cache@?1???$get_cached_win_policy@Ubegin_thread_init_policy_properties@?1??__acrt_get_begin_thread_init_policy@@YA?AW4begin_thread_init_policy@@XZ@@@YA?AW4begin_thread_init_policy@@W4AppPolicyThreadInitializationType@@@Z@4JA 0055317c     libucrt:win_policies.obj
 0003:000d2180       ?__acrt_lock_table@@3PAU_RTL_CRITICAL_SECTION@@A 00553180     libucrt:locks.obj
 0003:000d22d0       ?__acrt_locks_initialized@@3IA 005532d0     libucrt:locks.obj
 0003:000d22e0       ?fSystemSet@@3HA           005532e0     libucrt:mbctype.obj
 0003:000d22e4       ?initialized@?1??__acrt_initialize_multibyte@@9@4_NA 005532e4     libucrt:mbctype.obj
 0003:000d2310       ?ctrlc_action@@3V?$dual_state_global@P6AXH@Z@__crt_state_management@@A 00553310     libucrt:signal.obj
 0003:000d2314       ?ctrlbreak_action@@3V?$dual_state_global@P6AXH@Z@__crt_state_management@@A 00553314     libucrt:signal.obj
 0003:000d2318       ?abort_action@@3V?$dual_state_global@P6AXH@Z@__crt_state_management@@A 00553318     libucrt:signal.obj
 0003:000d231c       ?term_action@@3V?$dual_state_global@P6AXH@Z@__crt_state_management@@A 0055331c     libucrt:signal.obj
 0004:00000000       INF_c_1917_0_4             0055e000     LIBCMT:_svml_dpow2_sse2_.obj
 0004:00000010       QNaN_c_1917_0_4            0055e010     LIBCMT:_svml_dpow2_sse2_.obj
 0005:00001990       $R000000                   00560990     w32_res.res
 0005:00002538       $R000BA8                   00561538     w32_res.res
 0005:000032b8       $R001928                   005622b8     w32_res.res
 0005:00003360       $R0019D0                   00562360     w32_res.res
 0005:00003428       $R001A98                   00562428     w32_res.res
 0005:000034f8       $R001B68                   005624f8     w32_res.res
 0005:00003628       $R001C98                   00562628     w32_res.res
 0005:00003830       $R001EA0                   00562830     w32_res.res
 0005:00003ad8       $R002148                   00562ad8     w32_res.res
 0005:00003f70       $R0025E0                   00562f70     w32_res.res
 0005:000040b8       $R002728                   005630b8     w32_res.res
 0005:00004478       $R002AE8                   00563478     w32_res.res
 0005:00004540       $R002BB0                   00563540     w32_res.res
 0005:000045f8       $R002C68                   005635f8     w32_res.res
 0005:00004768       $R002DD8                   00563768     w32_res.res
 0005:00004820       $R002E90                   00563820     w32_res.res
 0005:000049b8       $R003028                   005639b8     w32_res.res
 0005:00004a90       $R003100                   00563a90     w32_res.res
 0005:00004bd0       $R003240                   00563bd0     w32_res.res
 0005:00004c68       $R0032D8                   00563c68     w32_res.res
 0005:00005058       $R0036C8                   00564058     w32_res.res
 0005:00005518       $R003B88                   00564518     w32_res.res
 0005:00005920       $R003F90                   00564920     w32_res.res
 0005:00005b30       $R0041A0                   00564b30     w32_res.res
 0005:00005c38       $R0042A8                   00564c38     w32_res.res
 0005:00005fa0       $R004610                   00564fa0     w32_res.res
 0005:00006238       $R0048A8                   00565238     w32_res.res
 0005:00006508       $R004B78                   00565508     w32_res.res
 0005:00006718       $R004D88                   00565718     w32_res.res
 0005:00006a78       $R0050E8                   00565a78     w32_res.res
 0005:00006c70       $R0052E0                   00565c70     w32_res.res
 0005:00006f50       $R0055C0                   00565f50     w32_res.res
 0005:00007238       $R0058A8                   00566238     w32_res.res
 0005:00007ae0       $R006150                   00566ae0     w32_res.res
 0005:00007b08       $R006178                   00566b08     w32_res.res
 0005:00007df0       $R006460                   00566df0     w32_res.res
 0005:00008698       $R006D08                   00567698     w32_res.res
 0005:000086c0       $R006D30                   005676c0     w32_res.res
 0005:000089a8       $R007018                   005679a8     w32_res.res
 0005:000089c0       $R007030                   005679c0     w32_res.res
 0005:00008ca8       $R007318                   00567ca8     w32_res.res
 0005:00008cc0       $R007330                   00567cc0     w32_res.res
 0005:00008fa8       $R007618                   00567fa8     w32_res.res
 0005:00008fc0       $R007630                   00567fc0     w32_res.res
 0005:000092a8       $R007918                   005682a8     w32_res.res
 0005:000092c0       $R007930                   005682c0     w32_res.res
 0005:00009f68       $R0085D8                   00568f68     w32_res.res
 0005:00009f80       $R0085F0                   00568f80     w32_res.res
 0005:0000ac28       $R009298                   00569c28     w32_res.res
 0005:0000ac40       $R0092B0                   00569c40     w32_res.res
 0005:0000b8e8       $R009F58                   0056a8e8     w32_res.res
 0005:0000b900       $R009F70                   0056a900     w32_res.res
 0005:0000c5a8       $R00AC18                   0056b5a8     w32_res.res
 0005:0000c5c0       $R00AC30                   0056b5c0     w32_res.res
 0005:0000d268       $R00B8D8                   0056c268     w32_res.res
 0005:0000d280       $R00B8F0                   0056c280     w32_res.res
 0005:0000df28       $R00C598                   0056cf28     w32_res.res
 0005:0000df40       $R00C5B0                   0056cf40     w32_res.res
 0005:0000ebe8       $R00D258                   0056dbe8     w32_res.res
 0005:0000ec00       $R00D270                   0056dc00     w32_res.res
 0005:0000eee8       $R00D558                   0056dee8     w32_res.res
 0005:0000ef00       $R00D570                   0056df00     w32_res.res
 0005:0000f1e8       $R00D858                   0056e1e8     w32_res.res
 0005:0000f200       $R00D870                   0056e200     w32_res.res
 0005:0000f4e8       $R00DB58                   0056e4e8     w32_res.res
 0005:0000f500       $R00DB70                   0056e500     w32_res.res
 0005:0000f7e8       $R00DE58                   0056e7e8     w32_res.res
 0005:0000f800       $R00DE70                   0056e800     w32_res.res
 0005:0000fae8       $R00E158                   0056eae8     w32_res.res
 0005:0000fb00       $R00E170                   0056eb00     w32_res.res
 0005:0000fde8       $R00E458                   0056ede8     w32_res.res
 0005:0000fe00       $R00E470                   0056ee00     w32_res.res
 0005:000100e8       $R00E758                   0056f0e8     w32_res.res
 0005:00010100       $R00E770                   0056f100     w32_res.res
 0005:000103e8       $R00EA58                   0056f3e8     w32_res.res
 0005:00010400       $R00EA70                   0056f400     w32_res.res
 0005:000106e8       $R00ED58                   0056f6e8     w32_res.res
 0005:00010700       $R00ED70                   0056f700     w32_res.res
 0005:000109e8       $R00F058                   0056f9e8     w32_res.res
 0005:00010a00       $R00F070                   0056fa00     w32_res.res
 0005:00010ce8       $R00F358                   0056fce8     w32_res.res
 0005:00010d00       $R00F370                   0056fd00     w32_res.res
 0005:00010fe8       $R00F658                   0056ffe8     w32_res.res
 0005:00011000       $R00F670                   00570000     w32_res.res
 0005:000112e8       $R00F958                   005702e8     w32_res.res
 0005:00011300       $R00F970                   00570300     w32_res.res
 0005:000115e8       $R00FC58                   005705e8     w32_res.res
 0005:00011600       $R00FC70                   00570600     w32_res.res
 0005:000118e8       $R00FF58                   005708e8     w32_res.res
 0005:00011900       $R00FF70                   00570900     w32_res.res
 0005:00011be8       $R010258                   00570be8     w32_res.res
 0005:00011c00       $R010270                   00570c00     w32_res.res
 0005:00012090       $R010700                   00571090     w32_res.res
 0005:000121c8       $R010838                   005711c8     w32_res.res
 0005:00012280       $R0108F0                   00571280     w32_res.res
 0005:00012310       $R010980                   00571310     w32_res.res
 0005:00012368       $R0109D8                   00571368     w32_res.res
 0005:000123d0       $R010A40                   005713d0     w32_res.res
 0005:00012430       $R010AA0                   00571430     w32_res.res
 0005:000124c8       $R010B38                   005714c8     w32_res.res
 0005:00012690       $R010D00                   00571690     w32_res.res
 0005:00012810       $R010E80                   00571810     w32_res.res
 0005:00012988       $R010FF8                   00571988     w32_res.res
 0005:00012a80       $R0110F0                   00571a80     w32_res.res
 0005:00012cd8       $R011348                   00571cd8     w32_res.res
 0005:00012f00       $R011570                   00571f00     w32_res.res
 0005:000130a8       $R011718                   005720a8     w32_res.res
 0005:000131d0       $R011840                   005721d0     w32_res.res
 0005:00013330       $R0119A0                   00572330     w32_res.res
 0005:00013368       $R0119D8                   00572368     w32_res.res
 0005:00013630       $R011CA0                   00572630     w32_res.res
 0005:00013820       $R011E90                   00572820     w32_res.res
 0005:00013938       $R011FA8                   00572938     w32_res.res
 0005:00013af0       $R012160                   00572af0     w32_res.res
 0005:00013bb8       $R012228                   00572bb8     w32_res.res
 0005:00013fd0       $R012640                   00572fd0     w32_res.res
 0005:00014258       $R0128C8                   00573258     w32_res.res
 0005:00014358       $R0129C8                   00573358     w32_res.res
 0005:00014508       $R012B78                   00573508     w32_res.res
 0005:00014588       $R012BF8                   00573588     w32_res.res
 0005:000147c0       $R012E30                   005737c0     w32_res.res
 0005:000149b0       $R013020                   005739b0     w32_res.res
 0005:00014b30       $R0131A0                   00573b30     w32_res.res
 0005:00014bc0       $R013230                   00573bc0     w32_res.res
 0005:00014c78       $R0132E8                   00573c78     w32_res.res
 0005:00014f38       $R0135A8                   00573f38     w32_res.res
 0005:00015138       $R0137A8                   00574138     w32_res.res
 0005:000154a0       $R013B10                   005744a0     w32_res.res
 0005:00015600       $R013C70                   00574600     w32_res.res
 0005:00015678       $R013CE8                   00574678     w32_res.res
 0005:00015760       $R013DD0                   00574760     w32_res.res
 0005:000157f8       $R013E68                   005747f8     w32_res.res
 0005:000158a8       $R013F18                   005748a8     w32_res.res
 0005:00015af8       $R014168                   00574af8     w32_res.res
